Microchip MPLAB XC8 Compiler V2.50

Linker command line:

-W-3 \
  --edf=C:\Program Files\Microchip\xc8\v2.50\pic\dat\20240725155939_en.msgs \
  -cn -h+dist/default/debug\Balancer.X.debug.sym \
  --cmf=dist/default/debug\Balancer.X.debug.cmf -z -Q16F886 \
  -oC:\Users\User\AppData\Local\Temp\xcAs26c.\driver_tmp_3.o \
  --defsym=__MPLAB_BUILD=1 --fixupoverflow=error \
  -Mdist/default/debug/Balancer.X.debug.map \
  --md=C:\Users\User\AppData\Local\Temp\xcAs26c.\driver_tmp_0.dat -E1 \
  -ver=XC8 Compiler --acfsm=1493 -ACODE=00h-07FFhx3,01800h-01EFFh \
  -ASTRCODE=00h-01EFFh -ASTRING=00h-0FFhx31 -ACONST=00h-0FFhx31 \
  -AENTRY=00h-0FFhx31 -ACOMMON=071h-07Fh -ABANK0=020h-06Fh \
  -ABANK1=0A0h-0EFh -ABANK2=0110h-016Fh -ABANK3=0190h-01E4h \
  -ARAM=020h-06Fh,0A0h-0EFh,0110h-016Fh,0190h-01E4h \
  -AABS1=020h-07Fh,0A0h-0EFh,0110h-016Fh,0190h-01EFh -ASFR0=00h-01Fh \
  -ASFR1=080h-09Fh -ASFR2=0100h-010Fh -ASFR3=0180h-018Fh \
  -ACONFIG=02007h-02008h -DCONFIG=2 -AIDLOC=02000h-02003h -DIDLOC=2 \
  -AEEDATA=00h-0FFh/02100h -peeprom_data=EEDATA -DEEDATA=2 -DCODE=2 \
  -DSTRCODE=2 -DSTRING=2 -DCONST=2 -DENTRY=2 \
  -preset_vec=00h,intentry=04h,sivt,init,end_init -ppowerup=CODE \
  -pcinit=CODE -pfunctab=ENTRY -k \
  C:\Users\User\AppData\Local\Temp\xcAs26c.\driver_tmp_12.o \
  dist/default/debug\Balancer.X.debug.o 

Object code version is 3.11

Machine type is 16F886



                Name                               Link     Load   Length Selector   Space Scale
C:\Users\User\AppData\Local\Temp\xcAs26c.\driver_tmp_12.o
                end_init                              C        C        3        8       0
                reset_vec                             0        0        4        0       0
                config                             2007     2007        2        0       4
dist/default/debug\Balancer.X.debug.o
                cinit                               7F1      7F1        F      FE2       0
                intentry                              4        4        8        8       0
                config                             2007     2007        2        0       4
                text16                              4D7      4D7       34      3E8       0
                text15                              55F      55F       1B      3E8       0
                text14                              535      535       2A      3E8       0
                text13                              5AB      5AB        9      3E8       0
                text12                              5A2      5A2        9      3E8       0
                text11                              598      598        A      3E8       0
                text10                              1F4      1F4       9D      3E8       0
                text9                               50B      50B       2A      3E8       0
                text8                               58A      58A        E      3E8       0
                text7                               57A      57A       10      3E8       0
                text6                               45E      45E       44      3E8       0
                text5                               3AF      3AF       67      3E8       0
                text4                               291      291       99      3E8       0
                text3                               32A      32A       85      3E8       0
                text2                               6D5      6D5      11C      DAA       0
                text1                               4A2      4A2       35      3E8       0
                maintext                            416      416       48      3E8       0
                cstackBANK0                          20       20       3B       20       1
                cstackCOMMON                         71       71        9       71       1
                clrtext                             5B4      5B4        8      3E8       0
                bssBANK0                             5B       5B       10       20       1
                bssCOMMON                            7A       7A        2       71       1
                strings                             100      100       F4      200       0

TOTAL           Name                               Link     Load   Length     Space
        CLASS   CODE           
                end_init                              C        C        3         0
                cinit                               7F1      7F1        F         0
                intentry                              4        4        8         0
                reset_vec                             0        0        4         0
                text16                              4D7      4D7       34         0
                text15                              55F      55F       1B         0
                text14                              535      535       2A         0
                text13                              5AB      5AB        9         0
                text12                              5A2      5A2        9         0
                text11                              598      598        A         0
                text10                              1F4      1F4       9D         0
                text9                               50B      50B       2A         0
                text8                               58A      58A        E         0
                text7                               57A      57A       10         0
                text6                               45E      45E       44         0
                text5                               3AF      3AF       67         0
                text4                               291      291       99         0
                text3                               32A      32A       85         0
                text2                               6D5      6D5      11C         0
                text1                               4A2      4A2       35         0
                maintext                            416      416       48         0
                clrtext                             5B4      5B4        8         0

        CLASS   STRCODE        

        CLASS   STRING         
                strings                             100      100       F4         0

        CLASS   CONST          

        CLASS   ENTRY          

        CLASS   COMMON         
                cstackCOMMON                         71       71        9         1
                bssCOMMON                            7A       7A        2         1

        CLASS   BANK0          
                cstackBANK0                          20       20       3B         1
                bssBANK0                             5B       5B       10         1

        CLASS   BANK1          

        CLASS   BANK2          

        CLASS   BANK3          

        CLASS   RAM            

        CLASS   ABS1           
                abs_s1                               7E       7E        2         1

        CLASS   SFR0           

        CLASS   SFR1           

        CLASS   SFR2           

        CLASS   SFR3           

        CLASS   CONFIG         
                config                             2007     2007        2         4

        CLASS   IDLOC          

        CLASS   EEDATA         

        CLASS   HEAP           

        CLASS   STACK          



SEGMENTS        Name                           Load    Length   Top    Selector   Space  Class     Delta

                reset_vec                      000000  000004  000004         0       0  CODE        2
                intentry                       000004  00000B  00000F         8       0  CODE        2
                cstackBANK0                    000020  00004B  00006B        20       1  BANK0       1
                cstackCOMMON                   000071  00000B  00007C        71       1  COMMON      1
                strings                        000100  0000F4  0001F4       200       0  STRING      2
                text10                         0001F4  0003C8  0005BC       3E8       0  CODE        2
                text2                          0006D5  00011C  0007F1       DAA       0  CODE        2
                cinit                          0007F1  00000F  000800       FE2       0  CODE        2


UNUSED ADDRESS RANGES

        Name                Unused          Largest block    Delta
        BANK0            006B-006F              5           1
        BANK1            00A0-00EF             50           1
        BANK2            0110-016F             60           1
        BANK3            0190-01E4             55           1
        CODE             000F-00FF             F1           2
                         05BC-06D4            119
                         0800-1EFF            800
        COMMON           007C-007D              2           1
        CONST            000F-00FF             F1           2
                         05BC-06D4             44
                         0800-1EFF            100
        EEDATA           2100-21FF            100           2
        ENTRY            000F-00FF             F1           2
                         05BC-06D4             44
                         0800-1EFF            100
        IDLOC            2000-2003              4           2
        RAM              006B-006F              5           1
                         00A0-00EF             50
                         0110-016F             60
                         0190-01E4             55
        SFR0             0000-001F             20           1
        SFR1             0080-009F             20           1
        SFR2             0100-010F             10           1
        SFR3             0180-018F             10           1
        STRCODE          000F-00FF             F1           2
                         05BC-06D4            119
                         0800-1EFF           1700
        STRING           000F-00FF             F1           2
                         05BC-06D4             44
                         0800-1EFF            100

                                  Symbol Table

?___aldiv                               cstackBANK0  0020
?___almod                               cstackBANK0  0020
AutoFox_INA226_ReadRegister@aRegister   cstackBANK0  0022
AutoFox_INA226_ReadRegister@aValue_p    cstackBANK0  0023
AutoFox_INA226_ReadRegister@this        cstackBANK0  0020
I2C_Master_Read@ack                     cstackCOMMON 0077
I2C_Master_Read@data                    cstackCOMMON 0075
I2C_Master_Write@data                   cstackCOMMON 0073
SendErrorStatus@err                     cstackCOMMON 0078
SendErrorStatus@errorMsg                cstackCOMMON 0079
SendInt32ToUART@buffer                  cstackBANK0  0048
SendInt32ToUART@i                       cstackBANK0  0054
SendInt32ToUART@value                   cstackBANK0  0044
SendUART_debug@data                     cstackCOMMON 0074
SendUART_debug@i                        cstackCOMMON 0075
_ACKDT                                  (abs)        048D
_ACKEN                                  (abs)        048C
_ACKSTAT                                (abs)        048E
_ANSEL                                  (abs)        0188
_ANSELH                                 (abs)        0189
_AutoFox_INA226_ReadRegister            text10       01F4
_Global_Init                            text9        050B
_I2C_Init                               text8        058A
_I2C_Master_Read                        text14       0535
_I2C_Master_Start                       text13       05AB
_I2C_Master_Stop                        text12       05A2
_I2C_Master_Wait                        text15       055F
_I2C_Master_Write                       text11       0598
_INTCONbits                             (abs)        000B
_ISR                                    text16       04D7
_Interrupt_Init                         text7        057A
_OPTION_REGbits                         (abs)        0081
_OSCCONbits                             (abs)        008F
_PORTAbits                              (abs)        0005
_PORTBbits                              (abs)        0006
_PORTCbits                              (abs)        0007
_RCEN                                   (abs)        048B
_RCSTAbits                              (abs)        0018
_SPBRG                                  (abs)        0099
_SSPADD                                 (abs)        0093
_SSPBUF                                 (abs)        0013
_SSPCON2                                (abs)        0091
_SSPCON2bits                            (abs)        0091
_SSPCONbits                             (abs)        0014
_SSPSTAT                                (abs)        0094
_SSPSTATbits                            (abs)        0094
_SendErrorStatus                        text5        03AF
_SendInt32ToUART                        text1        04A2
_SendUART_debug                         text6        045E
_T1CONbits                              (abs)        0010
_TMR0IE                                 (abs)        005D
_TMR0IF                                 (abs)        005A
_TRISA0                                 (abs)        0428
_TRISA1                                 (abs)        0429
_TRISA2                                 (abs)        042A
_TRISA3                                 (abs)        042B
_TRISA4                                 (abs)        042C
_TRISA5                                 (abs)        042D
_TRISA6                                 (abs)        042E
_TRISA7                                 (abs)        042F
_TRISB0                                 (abs)        0430
_TRISB1                                 (abs)        0431
_TRISB2                                 (abs)        0432
_TRISB3                                 (abs)        0433
_TRISB4                                 (abs)        0434
_TRISB5                                 (abs)        0435
_TRISB6                                 (abs)        0436
_TRISB7                                 (abs)        0437
_TRISC0                                 (abs)        0438
_TRISC1                                 (abs)        0439
_TRISC2                                 (abs)        043A
_TRISC3                                 (abs)        043B
_TRISC4                                 (abs)        043C
_TRISC5                                 (abs)        043D
_TRISC6                                 (abs)        043E
_TRISC7                                 (abs)        043F
_TRMT                                   (abs)        04C1
_TXREG                                  (abs)        0019
_TXSTAbits                              (abs)        0098
__H__absolute__                         __absolute__ 0000
__Habs1                                 abs1         0000
__Hbank0                                bank0        0000
__Hbank1                                bank1        0000
__Hbank2                                bank2        0000
__Hbank3                                bank3        0000
__HbssBANK0                             bssBANK0     0000
__HbssCOMMON                            bssCOMMON    0000
__Hcinit                                cinit        0800
__Hclrtext                              clrtext      0000
__Hcode                                 code         0000
__Hcommon                               common       0000
__Hconfig                               config       2009
__HcstackBANK0                          cstackBANK0  0000
__HcstackCOMMON                         cstackCOMMON 0000
__Heeprom_data                          eeprom_data  0000
__Hend_init                             end_init     000F
__Hfunctab                              functab      0000
__Hheap                                 heap         0000
__Hinit                                 init         000C
__Hintentry                             intentry     000C
__Hmaintext                             maintext     0000
__Hpowerup                              powerup      0000
__Hram                                  ram          0000
__Hreset_vec                            reset_vec    0004
__Hsfr0                                 sfr0         0000
__Hsfr1                                 sfr1         0000
__Hsfr2                                 sfr2         0000
__Hsfr3                                 sfr3         0000
__Hsivt                                 sivt         000C
__Hspace_0                              (abs)        0800
__Hspace_1                              (abs)        007C
__Hspace_2                              (abs)        0000
__Hspace_3                              (abs)        0000
__Hspace_4                              (abs)        4010
__Hstack                                stack        0000
__Hstrings                              strings      0000
__Htext                                 text         0000
__L__absolute__                         __absolute__ 0000
__Labs1                                 abs1         0000
__Lbank0                                bank0        0000
__Lbank1                                bank1        0000
__Lbank2                                bank2        0000
__Lbank3                                bank3        0000
__LbssBANK0                             bssBANK0     0000
__LbssCOMMON                            bssCOMMON    0000
__Lcinit                                cinit        07F1
__Lclrtext                              clrtext      0000
__Lcode                                 code         0000
__Lcommon                               common       0000
__Lconfig                               config       0000
__LcstackBANK0                          cstackBANK0  0000
__LcstackCOMMON                         cstackCOMMON 0000
__Leeprom_data                          eeprom_data  0000
__Lend_init                             end_init     000C
__Lfunctab                              functab      0000
__Lheap                                 heap         0000
__Linit                                 init         000C
__Lintentry                             intentry     0004
__Lmaintext                             maintext     0000
__Lpowerup                              powerup      0000
__Lram                                  ram          0000
__Lreset_vec                            reset_vec    0000
__Lsfr0                                 sfr0         0000
__Lsfr1                                 sfr1         0000
__Lsfr2                                 sfr2         0000
__Lsfr3                                 sfr3         0000
__Lsivt                                 sivt         000C
__Lspace_0                              (abs)        0000
__Lspace_1                              (abs)        0000
__Lspace_2                              (abs)        0000
__Lspace_3                              (abs)        0000
__Lspace_4                              (abs)        0000
__Lstack                                stack        0000
__Lstrings                              strings      0000
__Ltext                                 text         0000
__S0                                    (abs)        0800
__S1                                    (abs)        007C
__S3                                    (abs)        0000
___aldiv                                text4        0291
___aldiv@counter                        cstackCOMMON 0074
___aldiv@dividend                       cstackBANK0  0024
___aldiv@divisor                        cstackBANK0  0020
___aldiv@quotient                       cstackCOMMON 0076
___aldiv@sign                           cstackCOMMON 0075
___almod                                text3        032A
___almod@counter                        cstackCOMMON 0074
___almod@dividend                       cstackBANK0  0024
___almod@divisor                        cstackBANK0  0020
___almod@sign                           cstackCOMMON 0075
___heap_hi                              (abs)        0000
___heap_lo                              (abs)        0000
___int_sp                               stack        0000
___int_stack_hi                         stack        0000
___int_stack_lo                         stack        0000
___latbits                              (abs)        0002
___sp                                   stack        0000
___stack_hi                             stack        0000
___stack_lo                             stack        0000
___stackhi                              (abs)        0000
___stacklo                              (abs)        0000
__end_of_AutoFox_INA226_ReadRegister    text10       0291
__end_of_Global_Init                    text9        0535
__end_of_I2C_Init                       text8        0598
__end_of_I2C_Master_Read                text14       055F
__end_of_I2C_Master_Start               text13       05B4
__end_of_I2C_Master_Stop                text12       05AB
__end_of_I2C_Master_Wait                text15       057A
__end_of_I2C_Master_Write               text11       05A2
__end_of_INA226_ALERT_LIMIT             strings      0136
__end_of_INA226_BUS_VOLTAGE             strings      013B
__end_of_INA226_BUS_VOLTAGE_LSB         strings      010E
__end_of_INA226_CALIBRATION             strings      0138
__end_of_INA226_CONFIG                  strings      013D
__end_of_INA226_CONFIG_DEFAULT          strings      012A
__end_of_INA226_CURRENT                 strings      0139
__end_of_INA226_DEFAULT_I2C_ADDRESS     strings      0133
__end_of_INA226_DIE_ID                  strings      0134
__end_of_INA226_DIE_ID_K                strings      012C
__end_of_INA226_I2C_TIMEOUT             strings      0132
__end_of_INA226_I2C_TIMEOUT@ina226$F799 strings      0130
__end_of_INA226_MANUFACTURER_ID         strings      0135
__end_of_INA226_MANUFACTURER_ID_K       strings      012E
__end_of_INA226_MASK_ENABLE             strings      0137
__end_of_INA226_POWER                   strings      013A
__end_of_INA226_POWER_LSB_FACTOR        strings      010A
__end_of_INA226_SHUNT_VOLTAGE           strings      013C
__end_of_ISR                            text16       050B
__end_of_Interrupt_Init                 text7        058A
__end_of_SendErrorStatus                text5        0416
__end_of_SendInt32ToUART                text1        04D7
__end_of_SendUART_debug                 text6        04A2
__end_of___aldiv                        text4        032A
__end_of___almod                        text3        03AF
__end_of__initialization                cinit        07FC
__end_of__stringtab                     strings      0106
__end_of_cAlertCauseMask                strings      0122
__end_of_cAlertLatchingMode             strings      0120
__end_of_cAlertPinModeMask              strings      0124
__end_of_cBusVoltConvTimeIdxShift       strings      0116
__end_of_cBusVoltageConvTimeMask        strings      011C
__end_of_cMaxConvTimeTblIdx             strings      0110
__end_of_cMaxSampleAvgTblIdx            strings      0112
__end_of_cOperatingModeMask             strings      0126
__end_of_cResetCommand                  strings      0128
__end_of_cSampleAvgIdxShift             strings      0118
__end_of_cSampleAvgMask                 strings      011E
__end_of_cShuntVoltConvTimeIdxShift     strings      0114
__end_of_cShuntVoltageConvTimeMask      strings      011A
__end_of_itoa                           text2        07F1
__end_of_main                           maintext     045E
__initialization                        cinit        07F1
__pbssBANK0                             bssBANK0     005B
__pbssCOMMON                            bssCOMMON    007A
__pcstackBANK0                          cstackBANK0  0020
__pcstackCOMMON                         cstackCOMMON 0071
__pintentry                             intentry     0004
__pmaintext                             maintext     0416
__pstrings                              strings      0100
__ptext1                                text1        04A2
__ptext10                               text10       01F4
__ptext11                               text11       0598
__ptext12                               text12       05A2
__ptext13                               text13       05AB
__ptext14                               text14       0535
__ptext15                               text15       055F
__ptext16                               text16       04D7
__ptext2                                text2        06D5
__ptext3                                text3        032A
__ptext4                                text4        0291
__ptext5                                text5        03AF
__ptext6                                text6        045E
__ptext7                                text7        057A
__ptext8                                text8        058A
__ptext9                                text9        050B
__stringbase                            strings      0105
__stringtab                             strings      0100
_device                                 bssBANK0     005D
_g_flag                                 bssBANK0     005B
_g_timer_led_blink                      bssCOMMON    007A
_itoa                                   text2        06D5
_main                                   maintext     0416
btemp                                   (abs)        007E
clear_ram0                              clrtext      05B4
end_of_initialization                   cinit        07FC
interrupt_function                      intentry     0004
intlevel0                               functab      0000
intlevel1                               functab      0000
intlevel2                               functab      0000
intlevel3                               functab      0000
intlevel4                               functab      0000
intlevel5                               functab      0000
itoa@end                                cstackBANK0  003C
itoa@i                                  cstackBANK0  0040
itoa@isNegative                         cstackBANK0  0033
itoa@numeral_base                       cstackBANK0  002D
itoa@start                              cstackBANK0  0038
itoa@str                                cstackBANK0  002C
itoa@temp                               cstackBANK0  0037
itoa@value                              cstackBANK0  0028
main@theINA226_ID                       cstackBANK0  0059
reset_vec                               reset_vec    0000
saved_w                                 (abs)        007E
start                                   init         000C
start_initialization                    cinit        07F1
wtemp0                                  (abs)        007E


MODULE INFORMATION

Module		Function		Class		Link	Load	Size
interrupts.c
		_ISR           		CODE           	04D7	0000	52
		_Interrupt_Init		CODE           	057A	0000	16

interrupts.c estimated size: 68

sw_uart.c
		_SendInt32ToUART		CODE           	04A2	0000	53
		_SendUART_debug		CODE           	045E	0000	68
		_itoa          		CODE           	06D5	0000	284

sw_uart.c estimated size: 405

inits.c
		_Global_Init   		CODE           	050B	0000	42

inits.c estimated size: 42

ina226.c
		_AutoFox_INA226_ReadRegister		CODE           	01F4	0000	157
		_SendErrorStatus		CODE           	03AF	0000	103

ina226.c estimated size: 260

C:\Program Files\Microchip\xc8\v2.50\pic\sources\c99\common\almod.c
		___almod       		CODE           	032A	0000	133

C:\Program Files\Microchip\xc8\v2.50\pic\sources\c99\common\almod.c estimated size: 133

shared
		_INA226_MANUFACTURER_ID		STRING         	0000	0000	0
		_cAlertCauseMask		STRING         	0000	0000	0
		_cSampleAvgIdxShift		STRING         	0000	0000	0
		_INA226_POWER_LSB_FACTOR		STRING         	0000	0000	0
		_cBusVoltageConvTimeMask		STRING         	0000	0000	0
		_cMaxSampleAvgTblIdx		STRING         	0000	0000	0
		_cShuntVoltageConvTimeMask		STRING         	0000	0000	0
		__stringtab    		STRING         	0100	0000	6
		_INA226_DEFAULT_I2C_ADDRESS		STRING         	0000	0000	0
		_INA226_BUS_VOLTAGE		STRING         	0000	0000	0
		_INA226_MASK_ENABLE		STRING         	0000	0000	0
		_INA226_POWER  		STRING         	0000	0000	0
		_INA226_CONFIG 		STRING         	0000	0000	0
		_INA226_DIE_ID 		STRING         	0000	0000	0
		_cMaxConvTimeTblIdx		STRING         	0000	0000	0
		_cBusVoltConvTimeIdxShift		STRING         	0000	0000	0
		_INA226_SHUNT_VOLTAGE		STRING         	0000	0000	0
		_INA226_I2C_TIMEOUT@ina226$F799		STRING         	0000	0000	0
		_cShuntVoltConvTimeIdxShift		STRING         	0000	0000	0
		_INA226_CURRENT		STRING         	0000	0000	0
		_INA226_MANUFACTURER_ID_K		STRING         	0000	0000	0
		_INA226_CALIBRATION		STRING         	0000	0000	0
		__initialization		CODE           	07F1	0000	11
		_INA226_ALERT_LIMIT		STRING         	0000	0000	0
		_INA226_DIE_ID_K		STRING         	0000	0000	0
		_cResetCommand 		STRING         	0000	0000	0
		_cSampleAvgMask		STRING         	0000	0000	0
		_cOperatingModeMask		STRING         	0000	0000	0
		_cAlertPinModeMask		STRING         	0000	0000	0
		_INA226_I2C_TIMEOUT		STRING         	0000	0000	0
		_INA226_CONFIG_DEFAULT		STRING         	0000	0000	0
		_INA226_BUS_VOLTAGE_LSB		STRING         	0000	0000	0
		_cAlertLatchingMode		STRING         	0000	0000	0

shared estimated size: 17

C:\Program Files\Microchip\xc8\v2.50\pic\sources\c99\common\aldiv.c
		___aldiv       		CODE           	0291	0000	153

C:\Program Files\Microchip\xc8\v2.50\pic\sources\c99\common\aldiv.c estimated size: 153

main.c
		_main          		CODE           	0416	0000	72

main.c estimated size: 72

hw_i2c.c
		_I2C_Master_Read		CODE           	0535	0000	42
		_I2C_Master_Wait		CODE           	055F	0000	27
		_I2C_Master_Stop		CODE           	05A2	0000	9
		_I2C_Init      		CODE           	058A	0000	14
		_I2C_Master_Write		CODE           	0598	0000	10
		_I2C_Master_Start		CODE           	05AB	0000	9

hw_i2c.c estimated size: 111

