

Microchip MPLAB XC8 Assembler V2.50 build 20240725155939 
                                                                                               Mon Dec 02 23:15:33 2024

Microchip MPLAB XC8 C Compiler v2.50 (Free license) build 20240725155939 Og1 
     1                           	processor	16F886
     2                           	pagewidth 120
     3                           	opt	flic
     4                           	psect	stringtext,global,reloc=256,class=STRCODE,space=0,delta=2,noexec
     5                           	psect	cinit,global,class=CODE,space=0,merge=1,delta=2
     6                           	psect	bssCOMMON,global,class=COMMON,space=1,delta=1,noexec
     7                           	psect	bssBANK0,global,class=BANK0,space=1,delta=1,noexec
     8                           	psect	bssBANK1,global,class=BANK1,space=1,delta=1,noexec
     9                           	psect	clrtext,global,class=CODE,space=0,delta=2
    10                           	psect	cstackBANK1,global,class=BANK1,space=1,delta=1,noexec
    11                           	psect	cstackCOMMON,global,class=COMMON,space=1,delta=1,noexec
    12                           	psect	cstackBANK0,global,class=BANK0,space=1,delta=1,noexec
    13                           	psect	maintext,global,class=CODE,space=0,split=1,delta=2
    14                           	psect	text1,local,class=CODE,space=0,merge=1,delta=2
    15                           	psect	text2,local,class=CODE,space=0,merge=1,delta=2
    16                           	psect	text3,local,class=CODE,space=0,merge=1,delta=2,group=3
    17                           	psect	text4,local,class=CODE,space=0,merge=1,delta=2,group=1
    18                           	psect	text5,local,class=CODE,space=0,merge=1,delta=2,group=1
    19                           	psect	text6,local,class=CODE,space=0,merge=1,delta=2,group=3
    20                           	psect	text7,local,class=CODE,space=0,merge=1,delta=2
    21                           	psect	text8,local,class=CODE,space=0,merge=1,delta=2,group=2
    22                           	psect	text9,local,class=CODE,space=0,merge=1,delta=2,group=2
    23                           	psect	text10,local,class=CODE,space=0,merge=1,delta=2
    24                           	psect	text11,local,class=CODE,space=0,merge=1,delta=2
    25                           	psect	text12,local,class=CODE,space=0,merge=1,delta=2
    26                           	psect	text13,local,class=CODE,space=0,merge=1,delta=2
    27                           	psect	text14,local,class=CODE,space=0,merge=1,delta=2
    28                           	psect	text15,local,class=CODE,space=0,merge=1,delta=2
    29                           	psect	text16,local,class=CODE,space=0,merge=1,delta=2
    30                           	psect	text17,local,class=CODE,space=0,merge=1,delta=2
    31                           	psect	text18,local,class=CODE,space=0,merge=1,delta=2
    32                           	psect	text19,local,class=CODE,space=0,merge=1,delta=2,group=2
    33                           	psect	text20,local,class=CODE,space=0,merge=1,delta=2,group=2
    34                           	psect	text21,local,class=CODE,space=0,merge=1,delta=2
    35                           	psect	text22,local,class=CODE,space=0,merge=1,delta=2
    36                           	psect	text23,local,class=CODE,space=0,merge=1,delta=2
    37                           	psect	text24,local,class=CODE,space=0,merge=1,delta=2
    38                           	psect	text25,local,class=CODE,space=0,merge=1,delta=2
    39                           	psect	text26,local,class=CODE,space=0,merge=1,delta=2
    40                           	psect	text27,local,class=CODE,space=0,merge=1,delta=2
    41                           	psect	text28,local,class=CODE,space=0,merge=1,delta=2
    42                           	psect	text29,local,class=CODE,space=0,merge=1,delta=2
    43                           	psect	text30,local,class=CODE,space=0,merge=1,delta=2
    44                           	psect	text31,local,class=CODE,space=0,merge=1,delta=2
    45                           	psect	text32,local,class=CODE,space=0,merge=1,delta=2
    46                           	psect	intentry,global,class=CODE,space=0,delta=2
    47                           	psect	config,global,abs,ovrld,class=CONFIG,space=4,delta=2,noexec
    48                           	dabs	1,0x7E,2
    49     0000                     
    50                           ; Generated 12/10/2023 GMT
    51                           ; 
    52                           ; Copyright © 2023, Microchip Technology Inc. and its subsidiaries ("Microchip")
    53                           ; All rights reserved.
    54                           ; 
    55                           ; This software is developed by Microchip Technology Inc. and its subsidiaries ("Microch
      +                          ip").
    56                           ; 
    57                           ; Redistribution and use in source and binary forms, with or without modification, are
    58                           ; permitted provided that the following conditions are met:
    59                           ; 
    60                           ;     1. Redistributions of source code must retain the above copyright notice, this lis
      +                          t of
    61                           ;        conditions and the following disclaimer.
    62                           ; 
    63                           ;     2. Redistributions in binary form must reproduce the above copyright notice, this 
      +                          list
    64                           ;        of conditions and the following disclaimer in the documentation and/or other
    65                           ;        materials provided with the distribution. Publication is not required when
    66                           ;        this file is used in an embedded application.
    67                           ; 
    68                           ;     3. Microchip's name may not be used to endorse or promote products derived from th
      +                          is
    69                           ;        software without specific prior written permission.
    70                           ; 
    71                           ; THIS SOFTWARE IS PROVIDED BY MICROCHIP "AS IS" AND ANY EXPRESS OR IMPLIED WARRANTIES,
    72                           ; INCLUDING, BUT NOT LIMITED TO, THE IMPLIED WARRANTIES OF MERCHANTABILITY AND FITNESS F
      +                          OR
    73                           ; PURPOSE ARE DISCLAIMED.  IN NO EVENT SHALL MICROCHIP BE LIABLE FOR ANY DIRECT, INDIREC
      +                          T,
    74                           ; INCIDENTAL, SPECIAL, EXEMPLARY, OR CONSEQUENTIAL DAMAGES (INCLUDING BUT NOT LIMITED TO
    75                           ; PROCUREMENT OF SUBSTITUTE GOODS OR SERVICES; LOSS OF USE, DATA OR PROFITS; OR BUSINESS
    76                           ; INTERRUPTION) HOWSOEVER CAUSED AND ON ANY THEORY OF LIABILITY, WHETHER IN CONTRACT, ST
      +                          RICT
    77                           ; LIABILITY, OR TORT (INCLUDING NEGLIGENCE OR OTHERWISE) ARISING IN ANY WAY OUT OF THE U
      +                          SE OF
    78                           ; THIS SOFTWARE, EVEN IF ADVISED OF THE POSSIBILITY OF SUCH DAMAGE.
    79                           ; 
    80                           ; 
    81                           ; Code-generator required, PIC16F886 Definitions
    82                           ; 
    83                           ; SFR Addresses
    84     0004                     fsr             equ	4
    85     0004                     fsr0            equ	4
    86     0000                     indf            equ	0
    87     0000                     indf0           equ	0
    88     0002                     pc              equ	2
    89     0002                     pcl             equ	2
    90     000A                     pclath          equ	10
    91     0003                     status          equ	3
    92     0000                     INDF            equ	0	;# 
    93     0001                     TMR0            equ	1	;# 
    94     0002                     PCL             equ	2	;# 
    95     0003                     STATUS          equ	3	;# 
    96     0004                     FSR             equ	4	;# 
    97     0005                     PORTA           equ	5	;# 
    98     0006                     PORTB           equ	6	;# 
    99     0007                     PORTC           equ	7	;# 
   100     0009                     PORTE           equ	9	;# 
   101     000A                     PCLATH          equ	10	;# 
   102     000B                     INTCON          equ	11	;# 
   103     000C                     PIR1            equ	12	;# 
   104     000D                     PIR2            equ	13	;# 
   105     000E                     TMR1            equ	14	;# 
   106     000E                     TMR1L           equ	14	;# 
   107     000F                     TMR1H           equ	15	;# 
   108     0010                     T1CON           equ	16	;# 
   109     0011                     TMR2            equ	17	;# 
   110     0012                     T2CON           equ	18	;# 
   111     0013                     SSPBUF          equ	19	;# 
   112     0014                     SSPCON          equ	20	;# 
   113     0015                     CCPR1           equ	21	;# 
   114     0015                     CCPR1L          equ	21	;# 
   115     0016                     CCPR1H          equ	22	;# 
   116     0017                     CCP1CON         equ	23	;# 
   117     0018                     RCSTA           equ	24	;# 
   118     0019                     TXREG           equ	25	;# 
   119     001A                     RCREG           equ	26	;# 
   120     001B                     CCPR2           equ	27	;# 
   121     001B                     CCPR2L          equ	27	;# 
   122     001C                     CCPR2H          equ	28	;# 
   123     001D                     CCP2CON         equ	29	;# 
   124     001E                     ADRESH          equ	30	;# 
   125     001F                     ADCON0          equ	31	;# 
   126     0081                     OPTION_REG      equ	129	;# 
   127     0085                     TRISA           equ	133	;# 
   128     0086                     TRISB           equ	134	;# 
   129     0087                     TRISC           equ	135	;# 
   130     0089                     TRISE           equ	137	;# 
   131     008C                     PIE1            equ	140	;# 
   132     008D                     PIE2            equ	141	;# 
   133     008E                     PCON            equ	142	;# 
   134     008F                     OSCCON          equ	143	;# 
   135     0090                     OSCTUNE         equ	144	;# 
   136     0091                     SSPCON2         equ	145	;# 
   137     0092                     PR2             equ	146	;# 
   138     0093                     SSPADD          equ	147	;# 
   139     0093                     SSPMSK          equ	147	;# 
   140     0093                     MSK             equ	147	;# 
   141     0094                     SSPSTAT         equ	148	;# 
   142     0095                     WPUB            equ	149	;# 
   143     0096                     IOCB            equ	150	;# 
   144     0097                     VRCON           equ	151	;# 
   145     0098                     TXSTA           equ	152	;# 
   146     0099                     SPBRG           equ	153	;# 
   147     009A                     SPBRGH          equ	154	;# 
   148     009B                     PWM1CON         equ	155	;# 
   149     009C                     ECCPAS          equ	156	;# 
   150     009D                     PSTRCON         equ	157	;# 
   151     009E                     ADRESL          equ	158	;# 
   152     009F                     ADCON1          equ	159	;# 
   153     0105                     WDTCON          equ	261	;# 
   154     0107                     CM1CON0         equ	263	;# 
   155     0108                     CM2CON0         equ	264	;# 
   156     0109                     CM2CON1         equ	265	;# 
   157     010C                     EEDATA          equ	268	;# 
   158     010C                     EEDAT           equ	268	;# 
   159     010D                     EEADR           equ	269	;# 
   160     010E                     EEDATH          equ	270	;# 
   161     010F                     EEADRH          equ	271	;# 
   162     0185                     SRCON           equ	389	;# 
   163     0187                     BAUDCTL         equ	391	;# 
   164     0188                     ANSEL           equ	392	;# 
   165     0189                     ANSELH          equ	393	;# 
   166     018C                     EECON1          equ	396	;# 
   167     018D                     EECON2          equ	397	;# 
   168     0000                     INDF            equ	0	;# 
   169     0001                     TMR0            equ	1	;# 
   170     0002                     PCL             equ	2	;# 
   171     0003                     STATUS          equ	3	;# 
   172     0004                     FSR             equ	4	;# 
   173     0005                     PORTA           equ	5	;# 
   174     0006                     PORTB           equ	6	;# 
   175     0007                     PORTC           equ	7	;# 
   176     0009                     PORTE           equ	9	;# 
   177     000A                     PCLATH          equ	10	;# 
   178     000B                     INTCON          equ	11	;# 
   179     000C                     PIR1            equ	12	;# 
   180     000D                     PIR2            equ	13	;# 
   181     000E                     TMR1            equ	14	;# 
   182     000E                     TMR1L           equ	14	;# 
   183     000F                     TMR1H           equ	15	;# 
   184     0010                     T1CON           equ	16	;# 
   185     0011                     TMR2            equ	17	;# 
   186     0012                     T2CON           equ	18	;# 
   187     0013                     SSPBUF          equ	19	;# 
   188     0014                     SSPCON          equ	20	;# 
   189     0015                     CCPR1           equ	21	;# 
   190     0015                     CCPR1L          equ	21	;# 
   191     0016                     CCPR1H          equ	22	;# 
   192     0017                     CCP1CON         equ	23	;# 
   193     0018                     RCSTA           equ	24	;# 
   194     0019                     TXREG           equ	25	;# 
   195     001A                     RCREG           equ	26	;# 
   196     001B                     CCPR2           equ	27	;# 
   197     001B                     CCPR2L          equ	27	;# 
   198     001C                     CCPR2H          equ	28	;# 
   199     001D                     CCP2CON         equ	29	;# 
   200     001E                     ADRESH          equ	30	;# 
   201     001F                     ADCON0          equ	31	;# 
   202     0081                     OPTION_REG      equ	129	;# 
   203     0085                     TRISA           equ	133	;# 
   204     0086                     TRISB           equ	134	;# 
   205     0087                     TRISC           equ	135	;# 
   206     0089                     TRISE           equ	137	;# 
   207     008C                     PIE1            equ	140	;# 
   208     008D                     PIE2            equ	141	;# 
   209     008E                     PCON            equ	142	;# 
   210     008F                     OSCCON          equ	143	;# 
   211     0090                     OSCTUNE         equ	144	;# 
   212     0091                     SSPCON2         equ	145	;# 
   213     0092                     PR2             equ	146	;# 
   214     0093                     SSPADD          equ	147	;# 
   215     0093                     SSPMSK          equ	147	;# 
   216     0093                     MSK             equ	147	;# 
   217     0094                     SSPSTAT         equ	148	;# 
   218     0095                     WPUB            equ	149	;# 
   219     0096                     IOCB            equ	150	;# 
   220     0097                     VRCON           equ	151	;# 
   221     0098                     TXSTA           equ	152	;# 
   222     0099                     SPBRG           equ	153	;# 
   223     009A                     SPBRGH          equ	154	;# 
   224     009B                     PWM1CON         equ	155	;# 
   225     009C                     ECCPAS          equ	156	;# 
   226     009D                     PSTRCON         equ	157	;# 
   227     009E                     ADRESL          equ	158	;# 
   228     009F                     ADCON1          equ	159	;# 
   229     0105                     WDTCON          equ	261	;# 
   230     0107                     CM1CON0         equ	263	;# 
   231     0108                     CM2CON0         equ	264	;# 
   232     0109                     CM2CON1         equ	265	;# 
   233     010C                     EEDATA          equ	268	;# 
   234     010C                     EEDAT           equ	268	;# 
   235     010D                     EEADR           equ	269	;# 
   236     010E                     EEDATH          equ	270	;# 
   237     010F                     EEADRH          equ	271	;# 
   238     0185                     SRCON           equ	389	;# 
   239     0187                     BAUDCTL         equ	391	;# 
   240     0188                     ANSEL           equ	392	;# 
   241     0189                     ANSELH          equ	393	;# 
   242     018C                     EECON1          equ	396	;# 
   243     018D                     EECON2          equ	397	;# 
   244     0000                     INDF            equ	0	;# 
   245     0001                     TMR0            equ	1	;# 
   246     0002                     PCL             equ	2	;# 
   247     0003                     STATUS          equ	3	;# 
   248     0004                     FSR             equ	4	;# 
   249     0005                     PORTA           equ	5	;# 
   250     0006                     PORTB           equ	6	;# 
   251     0007                     PORTC           equ	7	;# 
   252     0009                     PORTE           equ	9	;# 
   253     000A                     PCLATH          equ	10	;# 
   254     000B                     INTCON          equ	11	;# 
   255     000C                     PIR1            equ	12	;# 
   256     000D                     PIR2            equ	13	;# 
   257     000E                     TMR1            equ	14	;# 
   258     000E                     TMR1L           equ	14	;# 
   259     000F                     TMR1H           equ	15	;# 
   260     0010                     T1CON           equ	16	;# 
   261     0011                     TMR2            equ	17	;# 
   262     0012                     T2CON           equ	18	;# 
   263     0013                     SSPBUF          equ	19	;# 
   264     0014                     SSPCON          equ	20	;# 
   265     0015                     CCPR1           equ	21	;# 
   266     0015                     CCPR1L          equ	21	;# 
   267     0016                     CCPR1H          equ	22	;# 
   268     0017                     CCP1CON         equ	23	;# 
   269     0018                     RCSTA           equ	24	;# 
   270     0019                     TXREG           equ	25	;# 
   271     001A                     RCREG           equ	26	;# 
   272     001B                     CCPR2           equ	27	;# 
   273     001B                     CCPR2L          equ	27	;# 
   274     001C                     CCPR2H          equ	28	;# 
   275     001D                     CCP2CON         equ	29	;# 
   276     001E                     ADRESH          equ	30	;# 
   277     001F                     ADCON0          equ	31	;# 
   278     0081                     OPTION_REG      equ	129	;# 
   279     0085                     TRISA           equ	133	;# 
   280     0086                     TRISB           equ	134	;# 
   281     0087                     TRISC           equ	135	;# 
   282     0089                     TRISE           equ	137	;# 
   283     008C                     PIE1            equ	140	;# 
   284     008D                     PIE2            equ	141	;# 
   285     008E                     PCON            equ	142	;# 
   286     008F                     OSCCON          equ	143	;# 
   287     0090                     OSCTUNE         equ	144	;# 
   288     0091                     SSPCON2         equ	145	;# 
   289     0092                     PR2             equ	146	;# 
   290     0093                     SSPADD          equ	147	;# 
   291     0093                     SSPMSK          equ	147	;# 
   292     0093                     MSK             equ	147	;# 
   293     0094                     SSPSTAT         equ	148	;# 
   294     0095                     WPUB            equ	149	;# 
   295     0096                     IOCB            equ	150	;# 
   296     0097                     VRCON           equ	151	;# 
   297     0098                     TXSTA           equ	152	;# 
   298     0099                     SPBRG           equ	153	;# 
   299     009A                     SPBRGH          equ	154	;# 
   300     009B                     PWM1CON         equ	155	;# 
   301     009C                     ECCPAS          equ	156	;# 
   302     009D                     PSTRCON         equ	157	;# 
   303     009E                     ADRESL          equ	158	;# 
   304     009F                     ADCON1          equ	159	;# 
   305     0105                     WDTCON          equ	261	;# 
   306     0107                     CM1CON0         equ	263	;# 
   307     0108                     CM2CON0         equ	264	;# 
   308     0109                     CM2CON1         equ	265	;# 
   309     010C                     EEDATA          equ	268	;# 
   310     010C                     EEDAT           equ	268	;# 
   311     010D                     EEADR           equ	269	;# 
   312     010E                     EEDATH          equ	270	;# 
   313     010F                     EEADRH          equ	271	;# 
   314     0185                     SRCON           equ	389	;# 
   315     0187                     BAUDCTL         equ	391	;# 
   316     0188                     ANSEL           equ	392	;# 
   317     0189                     ANSELH          equ	393	;# 
   318     018C                     EECON1          equ	396	;# 
   319     018D                     EECON2          equ	397	;# 
   320     0000                     INDF            equ	0	;# 
   321     0001                     TMR0            equ	1	;# 
   322     0002                     PCL             equ	2	;# 
   323     0003                     STATUS          equ	3	;# 
   324     0004                     FSR             equ	4	;# 
   325     0005                     PORTA           equ	5	;# 
   326     0006                     PORTB           equ	6	;# 
   327     0007                     PORTC           equ	7	;# 
   328     0009                     PORTE           equ	9	;# 
   329     000A                     PCLATH          equ	10	;# 
   330     000B                     INTCON          equ	11	;# 
   331     000C                     PIR1            equ	12	;# 
   332     000D                     PIR2            equ	13	;# 
   333     000E                     TMR1            equ	14	;# 
   334     000E                     TMR1L           equ	14	;# 
   335     000F                     TMR1H           equ	15	;# 
   336     0010                     T1CON           equ	16	;# 
   337     0011                     TMR2            equ	17	;# 
   338     0012                     T2CON           equ	18	;# 
   339     0013                     SSPBUF          equ	19	;# 
   340     0014                     SSPCON          equ	20	;# 
   341     0015                     CCPR1           equ	21	;# 
   342     0015                     CCPR1L          equ	21	;# 
   343     0016                     CCPR1H          equ	22	;# 
   344     0017                     CCP1CON         equ	23	;# 
   345     0018                     RCSTA           equ	24	;# 
   346     0019                     TXREG           equ	25	;# 
   347     001A                     RCREG           equ	26	;# 
   348     001B                     CCPR2           equ	27	;# 
   349     001B                     CCPR2L          equ	27	;# 
   350     001C                     CCPR2H          equ	28	;# 
   351     001D                     CCP2CON         equ	29	;# 
   352     001E                     ADRESH          equ	30	;# 
   353     001F                     ADCON0          equ	31	;# 
   354     0081                     OPTION_REG      equ	129	;# 
   355     0085                     TRISA           equ	133	;# 
   356     0086                     TRISB           equ	134	;# 
   357     0087                     TRISC           equ	135	;# 
   358     0089                     TRISE           equ	137	;# 
   359     008C                     PIE1            equ	140	;# 
   360     008D                     PIE2            equ	141	;# 
   361     008E                     PCON            equ	142	;# 
   362     008F                     OSCCON          equ	143	;# 
   363     0090                     OSCTUNE         equ	144	;# 
   364     0091                     SSPCON2         equ	145	;# 
   365     0092                     PR2             equ	146	;# 
   366     0093                     SSPADD          equ	147	;# 
   367     0093                     SSPMSK          equ	147	;# 
   368     0093                     MSK             equ	147	;# 
   369     0094                     SSPSTAT         equ	148	;# 
   370     0095                     WPUB            equ	149	;# 
   371     0096                     IOCB            equ	150	;# 
   372     0097                     VRCON           equ	151	;# 
   373     0098                     TXSTA           equ	152	;# 
   374     0099                     SPBRG           equ	153	;# 
   375     009A                     SPBRGH          equ	154	;# 
   376     009B                     PWM1CON         equ	155	;# 
   377     009C                     ECCPAS          equ	156	;# 
   378     009D                     PSTRCON         equ	157	;# 
   379     009E                     ADRESL          equ	158	;# 
   380     009F                     ADCON1          equ	159	;# 
   381     0105                     WDTCON          equ	261	;# 
   382     0107                     CM1CON0         equ	263	;# 
   383     0108                     CM2CON0         equ	264	;# 
   384     0109                     CM2CON1         equ	265	;# 
   385     010C                     EEDATA          equ	268	;# 
   386     010C                     EEDAT           equ	268	;# 
   387     010D                     EEADR           equ	269	;# 
   388     010E                     EEDATH          equ	270	;# 
   389     010F                     EEADRH          equ	271	;# 
   390     0185                     SRCON           equ	389	;# 
   391     0187                     BAUDCTL         equ	391	;# 
   392     0188                     ANSEL           equ	392	;# 
   393     0189                     ANSELH          equ	393	;# 
   394     018C                     EECON1          equ	396	;# 
   395     018D                     EECON2          equ	397	;# 
   396     0000                     INDF            equ	0	;# 
   397     0001                     TMR0            equ	1	;# 
   398     0002                     PCL             equ	2	;# 
   399     0003                     STATUS          equ	3	;# 
   400     0004                     FSR             equ	4	;# 
   401     0005                     PORTA           equ	5	;# 
   402     0006                     PORTB           equ	6	;# 
   403     0007                     PORTC           equ	7	;# 
   404     0009                     PORTE           equ	9	;# 
   405     000A                     PCLATH          equ	10	;# 
   406     000B                     INTCON          equ	11	;# 
   407     000C                     PIR1            equ	12	;# 
   408     000D                     PIR2            equ	13	;# 
   409     000E                     TMR1            equ	14	;# 
   410     000E                     TMR1L           equ	14	;# 
   411     000F                     TMR1H           equ	15	;# 
   412     0010                     T1CON           equ	16	;# 
   413     0011                     TMR2            equ	17	;# 
   414     0012                     T2CON           equ	18	;# 
   415     0013                     SSPBUF          equ	19	;# 
   416     0014                     SSPCON          equ	20	;# 
   417     0015                     CCPR1           equ	21	;# 
   418     0015                     CCPR1L          equ	21	;# 
   419     0016                     CCPR1H          equ	22	;# 
   420     0017                     CCP1CON         equ	23	;# 
   421     0018                     RCSTA           equ	24	;# 
   422     0019                     TXREG           equ	25	;# 
   423     001A                     RCREG           equ	26	;# 
   424     001B                     CCPR2           equ	27	;# 
   425     001B                     CCPR2L          equ	27	;# 
   426     001C                     CCPR2H          equ	28	;# 
   427     001D                     CCP2CON         equ	29	;# 
   428     001E                     ADRESH          equ	30	;# 
   429     001F                     ADCON0          equ	31	;# 
   430     0081                     OPTION_REG      equ	129	;# 
   431     0085                     TRISA           equ	133	;# 
   432     0086                     TRISB           equ	134	;# 
   433     0087                     TRISC           equ	135	;# 
   434     0089                     TRISE           equ	137	;# 
   435     008C                     PIE1            equ	140	;# 
   436     008D                     PIE2            equ	141	;# 
   437     008E                     PCON            equ	142	;# 
   438     008F                     OSCCON          equ	143	;# 
   439     0090                     OSCTUNE         equ	144	;# 
   440     0091                     SSPCON2         equ	145	;# 
   441     0092                     PR2             equ	146	;# 
   442     0093                     SSPADD          equ	147	;# 
   443     0093                     SSPMSK          equ	147	;# 
   444     0093                     MSK             equ	147	;# 
   445     0094                     SSPSTAT         equ	148	;# 
   446     0095                     WPUB            equ	149	;# 
   447     0096                     IOCB            equ	150	;# 
   448     0097                     VRCON           equ	151	;# 
   449     0098                     TXSTA           equ	152	;# 
   450     0099                     SPBRG           equ	153	;# 
   451     009A                     SPBRGH          equ	154	;# 
   452     009B                     PWM1CON         equ	155	;# 
   453     009C                     ECCPAS          equ	156	;# 
   454     009D                     PSTRCON         equ	157	;# 
   455     009E                     ADRESL          equ	158	;# 
   456     009F                     ADCON1          equ	159	;# 
   457     0105                     WDTCON          equ	261	;# 
   458     0107                     CM1CON0         equ	263	;# 
   459     0108                     CM2CON0         equ	264	;# 
   460     0109                     CM2CON1         equ	265	;# 
   461     010C                     EEDATA          equ	268	;# 
   462     010C                     EEDAT           equ	268	;# 
   463     010D                     EEADR           equ	269	;# 
   464     010E                     EEDATH          equ	270	;# 
   465     010F                     EEADRH          equ	271	;# 
   466     0185                     SRCON           equ	389	;# 
   467     0187                     BAUDCTL         equ	391	;# 
   468     0188                     ANSEL           equ	392	;# 
   469     0189                     ANSELH          equ	393	;# 
   470     018C                     EECON1          equ	396	;# 
   471     018D                     EECON2          equ	397	;# 
   472     0000                     INDF            equ	0	;# 
   473     0001                     TMR0            equ	1	;# 
   474     0002                     PCL             equ	2	;# 
   475     0003                     STATUS          equ	3	;# 
   476     0004                     FSR             equ	4	;# 
   477     0005                     PORTA           equ	5	;# 
   478     0006                     PORTB           equ	6	;# 
   479     0007                     PORTC           equ	7	;# 
   480     0009                     PORTE           equ	9	;# 
   481     000A                     PCLATH          equ	10	;# 
   482     000B                     INTCON          equ	11	;# 
   483     000C                     PIR1            equ	12	;# 
   484     000D                     PIR2            equ	13	;# 
   485     000E                     TMR1            equ	14	;# 
   486     000E                     TMR1L           equ	14	;# 
   487     000F                     TMR1H           equ	15	;# 
   488     0010                     T1CON           equ	16	;# 
   489     0011                     TMR2            equ	17	;# 
   490     0012                     T2CON           equ	18	;# 
   491     0013                     SSPBUF          equ	19	;# 
   492     0014                     SSPCON          equ	20	;# 
   493     0015                     CCPR1           equ	21	;# 
   494     0015                     CCPR1L          equ	21	;# 
   495     0016                     CCPR1H          equ	22	;# 
   496     0017                     CCP1CON         equ	23	;# 
   497     0018                     RCSTA           equ	24	;# 
   498     0019                     TXREG           equ	25	;# 
   499     001A                     RCREG           equ	26	;# 
   500     001B                     CCPR2           equ	27	;# 
   501     001B                     CCPR2L          equ	27	;# 
   502     001C                     CCPR2H          equ	28	;# 
   503     001D                     CCP2CON         equ	29	;# 
   504     001E                     ADRESH          equ	30	;# 
   505     001F                     ADCON0          equ	31	;# 
   506     0081                     OPTION_REG      equ	129	;# 
   507     0085                     TRISA           equ	133	;# 
   508     0086                     TRISB           equ	134	;# 
   509     0087                     TRISC           equ	135	;# 
   510     0089                     TRISE           equ	137	;# 
   511     008C                     PIE1            equ	140	;# 
   512     008D                     PIE2            equ	141	;# 
   513     008E                     PCON            equ	142	;# 
   514     008F                     OSCCON          equ	143	;# 
   515     0090                     OSCTUNE         equ	144	;# 
   516     0091                     SSPCON2         equ	145	;# 
   517     0092                     PR2             equ	146	;# 
   518     0093                     SSPADD          equ	147	;# 
   519     0093                     SSPMSK          equ	147	;# 
   520     0093                     MSK             equ	147	;# 
   521     0094                     SSPSTAT         equ	148	;# 
   522     0095                     WPUB            equ	149	;# 
   523     0096                     IOCB            equ	150	;# 
   524     0097                     VRCON           equ	151	;# 
   525     0098                     TXSTA           equ	152	;# 
   526     0099                     SPBRG           equ	153	;# 
   527     009A                     SPBRGH          equ	154	;# 
   528     009B                     PWM1CON         equ	155	;# 
   529     009C                     ECCPAS          equ	156	;# 
   530     009D                     PSTRCON         equ	157	;# 
   531     009E                     ADRESL          equ	158	;# 
   532     009F                     ADCON1          equ	159	;# 
   533     0105                     WDTCON          equ	261	;# 
   534     0107                     CM1CON0         equ	263	;# 
   535     0108                     CM2CON0         equ	264	;# 
   536     0109                     CM2CON1         equ	265	;# 
   537     010C                     EEDATA          equ	268	;# 
   538     010C                     EEDAT           equ	268	;# 
   539     010D                     EEADR           equ	269	;# 
   540     010E                     EEDATH          equ	270	;# 
   541     010F                     EEADRH          equ	271	;# 
   542     0185                     SRCON           equ	389	;# 
   543     0187                     BAUDCTL         equ	391	;# 
   544     0188                     ANSEL           equ	392	;# 
   545     0189                     ANSELH          equ	393	;# 
   546     018C                     EECON1          equ	396	;# 
   547     018D                     EECON2          equ	397	;# 
   548     0000                     INDF            equ	0	;# 
   549     0001                     TMR0            equ	1	;# 
   550     0002                     PCL             equ	2	;# 
   551     0003                     STATUS          equ	3	;# 
   552     0004                     FSR             equ	4	;# 
   553     0005                     PORTA           equ	5	;# 
   554     0006                     PORTB           equ	6	;# 
   555     0007                     PORTC           equ	7	;# 
   556     0009                     PORTE           equ	9	;# 
   557     000A                     PCLATH          equ	10	;# 
   558     000B                     INTCON          equ	11	;# 
   559     000C                     PIR1            equ	12	;# 
   560     000D                     PIR2            equ	13	;# 
   561     000E                     TMR1            equ	14	;# 
   562     000E                     TMR1L           equ	14	;# 
   563     000F                     TMR1H           equ	15	;# 
   564     0010                     T1CON           equ	16	;# 
   565     0011                     TMR2            equ	17	;# 
   566     0012                     T2CON           equ	18	;# 
   567     0013                     SSPBUF          equ	19	;# 
   568     0014                     SSPCON          equ	20	;# 
   569     0015                     CCPR1           equ	21	;# 
   570     0015                     CCPR1L          equ	21	;# 
   571     0016                     CCPR1H          equ	22	;# 
   572     0017                     CCP1CON         equ	23	;# 
   573     0018                     RCSTA           equ	24	;# 
   574     0019                     TXREG           equ	25	;# 
   575     001A                     RCREG           equ	26	;# 
   576     001B                     CCPR2           equ	27	;# 
   577     001B                     CCPR2L          equ	27	;# 
   578     001C                     CCPR2H          equ	28	;# 
   579     001D                     CCP2CON         equ	29	;# 
   580     001E                     ADRESH          equ	30	;# 
   581     001F                     ADCON0          equ	31	;# 
   582     0081                     OPTION_REG      equ	129	;# 
   583     0085                     TRISA           equ	133	;# 
   584     0086                     TRISB           equ	134	;# 
   585     0087                     TRISC           equ	135	;# 
   586     0089                     TRISE           equ	137	;# 
   587     008C                     PIE1            equ	140	;# 
   588     008D                     PIE2            equ	141	;# 
   589     008E                     PCON            equ	142	;# 
   590     008F                     OSCCON          equ	143	;# 
   591     0090                     OSCTUNE         equ	144	;# 
   592     0091                     SSPCON2         equ	145	;# 
   593     0092                     PR2             equ	146	;# 
   594     0093                     SSPADD          equ	147	;# 
   595     0093                     SSPMSK          equ	147	;# 
   596     0093                     MSK             equ	147	;# 
   597     0094                     SSPSTAT         equ	148	;# 
   598     0095                     WPUB            equ	149	;# 
   599     0096                     IOCB            equ	150	;# 
   600     0097                     VRCON           equ	151	;# 
   601     0098                     TXSTA           equ	152	;# 
   602     0099                     SPBRG           equ	153	;# 
   603     009A                     SPBRGH          equ	154	;# 
   604     009B                     PWM1CON         equ	155	;# 
   605     009C                     ECCPAS          equ	156	;# 
   606     009D                     PSTRCON         equ	157	;# 
   607     009E                     ADRESL          equ	158	;# 
   608     009F                     ADCON1          equ	159	;# 
   609     0105                     WDTCON          equ	261	;# 
   610     0107                     CM1CON0         equ	263	;# 
   611     0108                     CM2CON0         equ	264	;# 
   612     0109                     CM2CON1         equ	265	;# 
   613     010C                     EEDATA          equ	268	;# 
   614     010C                     EEDAT           equ	268	;# 
   615     010D                     EEADR           equ	269	;# 
   616     010E                     EEDATH          equ	270	;# 
   617     010F                     EEADRH          equ	271	;# 
   618     0185                     SRCON           equ	389	;# 
   619     0187                     BAUDCTL         equ	391	;# 
   620     0188                     ANSEL           equ	392	;# 
   621     0189                     ANSELH          equ	393	;# 
   622     018C                     EECON1          equ	396	;# 
   623     018D                     EECON2          equ	397	;# 
   624     0000                     INDF            equ	0	;# 
   625     0001                     TMR0            equ	1	;# 
   626     0002                     PCL             equ	2	;# 
   627     0003                     STATUS          equ	3	;# 
   628     0004                     FSR             equ	4	;# 
   629     0005                     PORTA           equ	5	;# 
   630     0006                     PORTB           equ	6	;# 
   631     0007                     PORTC           equ	7	;# 
   632     0009                     PORTE           equ	9	;# 
   633     000A                     PCLATH          equ	10	;# 
   634     000B                     INTCON          equ	11	;# 
   635     000C                     PIR1            equ	12	;# 
   636     000D                     PIR2            equ	13	;# 
   637     000E                     TMR1            equ	14	;# 
   638     000E                     TMR1L           equ	14	;# 
   639     000F                     TMR1H           equ	15	;# 
   640     0010                     T1CON           equ	16	;# 
   641     0011                     TMR2            equ	17	;# 
   642     0012                     T2CON           equ	18	;# 
   643     0013                     SSPBUF          equ	19	;# 
   644     0014                     SSPCON          equ	20	;# 
   645     0015                     CCPR1           equ	21	;# 
   646     0015                     CCPR1L          equ	21	;# 
   647     0016                     CCPR1H          equ	22	;# 
   648     0017                     CCP1CON         equ	23	;# 
   649     0018                     RCSTA           equ	24	;# 
   650     0019                     TXREG           equ	25	;# 
   651     001A                     RCREG           equ	26	;# 
   652     001B                     CCPR2           equ	27	;# 
   653     001B                     CCPR2L          equ	27	;# 
   654     001C                     CCPR2H          equ	28	;# 
   655     001D                     CCP2CON         equ	29	;# 
   656     001E                     ADRESH          equ	30	;# 
   657     001F                     ADCON0          equ	31	;# 
   658     0081                     OPTION_REG      equ	129	;# 
   659     0085                     TRISA           equ	133	;# 
   660     0086                     TRISB           equ	134	;# 
   661     0087                     TRISC           equ	135	;# 
   662     0089                     TRISE           equ	137	;# 
   663     008C                     PIE1            equ	140	;# 
   664     008D                     PIE2            equ	141	;# 
   665     008E                     PCON            equ	142	;# 
   666     008F                     OSCCON          equ	143	;# 
   667     0090                     OSCTUNE         equ	144	;# 
   668     0091                     SSPCON2         equ	145	;# 
   669     0092                     PR2             equ	146	;# 
   670     0093                     SSPADD          equ	147	;# 
   671     0093                     SSPMSK          equ	147	;# 
   672     0093                     MSK             equ	147	;# 
   673     0094                     SSPSTAT         equ	148	;# 
   674     0095                     WPUB            equ	149	;# 
   675     0096                     IOCB            equ	150	;# 
   676     0097                     VRCON           equ	151	;# 
   677     0098                     TXSTA           equ	152	;# 
   678     0099                     SPBRG           equ	153	;# 
   679     009A                     SPBRGH          equ	154	;# 
   680     009B                     PWM1CON         equ	155	;# 
   681     009C                     ECCPAS          equ	156	;# 
   682     009D                     PSTRCON         equ	157	;# 
   683     009E                     ADRESL          equ	158	;# 
   684     009F                     ADCON1          equ	159	;# 
   685     0105                     WDTCON          equ	261	;# 
   686     0107                     CM1CON0         equ	263	;# 
   687     0108                     CM2CON0         equ	264	;# 
   688     0109                     CM2CON1         equ	265	;# 
   689     010C                     EEDATA          equ	268	;# 
   690     010C                     EEDAT           equ	268	;# 
   691     010D                     EEADR           equ	269	;# 
   692     010E                     EEDATH          equ	270	;# 
   693     010F                     EEADRH          equ	271	;# 
   694     0185                     SRCON           equ	389	;# 
   695     0187                     BAUDCTL         equ	391	;# 
   696     0188                     ANSEL           equ	392	;# 
   697     0189                     ANSELH          equ	393	;# 
   698     018C                     EECON1          equ	396	;# 
   699     018D                     EECON2          equ	397	;# 
   700     0000                     INDF            equ	0	;# 
   701     0001                     TMR0            equ	1	;# 
   702     0002                     PCL             equ	2	;# 
   703     0003                     STATUS          equ	3	;# 
   704     0004                     FSR             equ	4	;# 
   705     0005                     PORTA           equ	5	;# 
   706     0006                     PORTB           equ	6	;# 
   707     0007                     PORTC           equ	7	;# 
   708     0009                     PORTE           equ	9	;# 
   709     000A                     PCLATH          equ	10	;# 
   710     000B                     INTCON          equ	11	;# 
   711     000C                     PIR1            equ	12	;# 
   712     000D                     PIR2            equ	13	;# 
   713     000E                     TMR1            equ	14	;# 
   714     000E                     TMR1L           equ	14	;# 
   715     000F                     TMR1H           equ	15	;# 
   716     0010                     T1CON           equ	16	;# 
   717     0011                     TMR2            equ	17	;# 
   718     0012                     T2CON           equ	18	;# 
   719     0013                     SSPBUF          equ	19	;# 
   720     0014                     SSPCON          equ	20	;# 
   721     0015                     CCPR1           equ	21	;# 
   722     0015                     CCPR1L          equ	21	;# 
   723     0016                     CCPR1H          equ	22	;# 
   724     0017                     CCP1CON         equ	23	;# 
   725     0018                     RCSTA           equ	24	;# 
   726     0019                     TXREG           equ	25	;# 
   727     001A                     RCREG           equ	26	;# 
   728     001B                     CCPR2           equ	27	;# 
   729     001B                     CCPR2L          equ	27	;# 
   730     001C                     CCPR2H          equ	28	;# 
   731     001D                     CCP2CON         equ	29	;# 
   732     001E                     ADRESH          equ	30	;# 
   733     001F                     ADCON0          equ	31	;# 
   734     0081                     OPTION_REG      equ	129	;# 
   735     0085                     TRISA           equ	133	;# 
   736     0086                     TRISB           equ	134	;# 
   737     0087                     TRISC           equ	135	;# 
   738     0089                     TRISE           equ	137	;# 
   739     008C                     PIE1            equ	140	;# 
   740     008D                     PIE2            equ	141	;# 
   741     008E                     PCON            equ	142	;# 
   742     008F                     OSCCON          equ	143	;# 
   743     0090                     OSCTUNE         equ	144	;# 
   744     0091                     SSPCON2         equ	145	;# 
   745     0092                     PR2             equ	146	;# 
   746     0093                     SSPADD          equ	147	;# 
   747     0093                     SSPMSK          equ	147	;# 
   748     0093                     MSK             equ	147	;# 
   749     0094                     SSPSTAT         equ	148	;# 
   750     0095                     WPUB            equ	149	;# 
   751     0096                     IOCB            equ	150	;# 
   752     0097                     VRCON           equ	151	;# 
   753     0098                     TXSTA           equ	152	;# 
   754     0099                     SPBRG           equ	153	;# 
   755     009A                     SPBRGH          equ	154	;# 
   756     009B                     PWM1CON         equ	155	;# 
   757     009C                     ECCPAS          equ	156	;# 
   758     009D                     PSTRCON         equ	157	;# 
   759     009E                     ADRESL          equ	158	;# 
   760     009F                     ADCON1          equ	159	;# 
   761     0105                     WDTCON          equ	261	;# 
   762     0107                     CM1CON0         equ	263	;# 
   763     0108                     CM2CON0         equ	264	;# 
   764     0109                     CM2CON1         equ	265	;# 
   765     010C                     EEDATA          equ	268	;# 
   766     010C                     EEDAT           equ	268	;# 
   767     010D                     EEADR           equ	269	;# 
   768     010E                     EEDATH          equ	270	;# 
   769     010F                     EEADRH          equ	271	;# 
   770     0185                     SRCON           equ	389	;# 
   771     0187                     BAUDCTL         equ	391	;# 
   772     0188                     ANSEL           equ	392	;# 
   773     0189                     ANSELH          equ	393	;# 
   774     018C                     EECON1          equ	396	;# 
   775     018D                     EECON2          equ	397	;# 
   776                           
   777                           	psect	stringtext
   778     0800                     __pstringtext:
   779     0800                     stringtab:
   780     0800                     __stringtab:
   781                           
   782                           ;	String table - string pointers are 2 bytes each
   783     0800  1BFF               	btfsc	btemp+1,7
   784     0801  280A               	ljmp	stringcode
   785     0802  1383               	bcf	3,7
   786     0803  187F               	btfsc	btemp+1,0
   787     0804  1783               	bsf	3,7
   788     0805  0800               	movf	0,w
   789     0806  0A84               	incf	4,f
   790     0807  1903               	skipnz
   791     0808  0AFF               	incf	btemp+1,f
   792     0809  0008               	return
   793     080A                     stringcode:
   794     080A  087F               	movf	btemp+1,w
   795     080B  397F               	andlw	127
   796     080C  008A               	movwf	10
   797     080D  0804               	movf	4,w
   798     080E  0A84               	incf	4,f
   799     080F  1903               	skipnz
   800     0810  0AFF               	incf	btemp+1,f
   801     0811  0082               	movwf	2
   802     0812                     __stringbase:
   803     0812                     __end_of__stringtab:
   804     0812                     read_voltage@vref:
   805     0812  34C4               	retlw	196
   806     0813  3409               	retlw	9
   807     0814  3400               	retlw	0
   808     0815  3400               	retlw	0
   809     0816                     __end_ofread_voltage@vref:
   810     0816                     _INA226_POWER_LSB_FACTOR:
   811     0816  3419               	retlw	25
   812     0817  3400               	retlw	0
   813     0818  3400               	retlw	0
   814     0819  3400               	retlw	0
   815     081A                     __end_of_INA226_POWER_LSB_FACTOR:
   816     081A                     _INA226_BUS_VOLTAGE_LSB:
   817     081A  34CF               	retlw	207
   818     081B  3404               	retlw	4
   819     081C  3400               	retlw	0
   820     081D  3400               	retlw	0
   821     081E                     __end_of_INA226_BUS_VOLTAGE_LSB:
   822     081E                     _cMaxConvTimeTblIdx:
   823     081E  3407               	retlw	7
   824     081F  3400               	retlw	0
   825     0820                     __end_of_cMaxConvTimeTblIdx:
   826     0820                     _cMaxSampleAvgTblIdx:
   827     0820  3407               	retlw	7
   828     0821  3400               	retlw	0
   829     0822                     __end_of_cMaxSampleAvgTblIdx:
   830     0822                     _cShuntVoltConvTimeIdxShift:
   831     0822  3403               	retlw	3
   832     0823  3400               	retlw	0
   833     0824                     __end_of_cShuntVoltConvTimeIdxShift:
   834     0824                     _cBusVoltConvTimeIdxShift:
   835     0824  3406               	retlw	6
   836     0825  3400               	retlw	0
   837     0826                     __end_of_cBusVoltConvTimeIdxShift:
   838     0826                     _cSampleAvgIdxShift:
   839     0826  3409               	retlw	9
   840     0827  3400               	retlw	0
   841     0828                     __end_of_cSampleAvgIdxShift:
   842     0828                     _cShuntVoltageConvTimeMask:
   843     0828  3438               	retlw	56
   844     0829  3400               	retlw	0
   845     082A                     __end_of_cShuntVoltageConvTimeMask:
   846     082A                     _cBusVoltageConvTimeMask:
   847     082A  34C0               	retlw	192
   848     082B  3401               	retlw	1
   849     082C                     __end_of_cBusVoltageConvTimeMask:
   850     082C                     _cSampleAvgMask:
   851     082C  3400               	retlw	0
   852     082D  340E               	retlw	14
   853     082E                     __end_of_cSampleAvgMask:
   854     082E                     _cAlertLatchingMode:
   855     082E  3401               	retlw	1
   856     082F  3400               	retlw	0
   857     0830                     __end_of_cAlertLatchingMode:
   858     0830                     _cAlertCauseMask:
   859     0830  341E               	retlw	30
   860     0831  3400               	retlw	0
   861     0832                     __end_of_cAlertCauseMask:
   862     0832                     _cAlertPinModeMask:
   863     0832  3400               	retlw	0
   864     0833  34FC               	retlw	252
   865     0834                     __end_of_cAlertPinModeMask:
   866     0834                     _cOperatingModeMask:
   867     0834  3407               	retlw	7
   868     0835  3400               	retlw	0
   869     0836                     __end_of_cOperatingModeMask:
   870     0836                     _cResetCommand:
   871     0836  3400               	retlw	0
   872     0837  3480               	retlw	128
   873     0838                     __end_of_cResetCommand:
   874     0838                     _INA226_CONFIG_DEFAULT:
   875     0838  3427               	retlw	39
   876     0839  3445               	retlw	69
   877     083A                     __end_of_INA226_CONFIG_DEFAULT:
   878     083A                     _INA226_DIE_ID_K:
   879     083A  3460               	retlw	96
   880     083B  3422               	retlw	34
   881     083C                     __end_of_INA226_DIE_ID_K:
   882     083C                     _INA226_MANUFACTURER_ID_K:
   883     083C  3449               	retlw	73
   884     083D  3454               	retlw	84
   885     083E                     __end_of_INA226_MANUFACTURER_ID_K:
   886     083E                     _INA226_I2C_TIMEOUT@ina226$F818:
   887     083E  34E8               	retlw	232
   888     083F  3403               	retlw	3
   889     0840                     __end_of_INA226_I2C_TIMEOUT@ina226$F818:
   890     0840                     _INA226_I2C_TIMEOUT:
   891     0840  34E8               	retlw	232
   892     0841  3403               	retlw	3
   893     0842                     __end_of_INA226_I2C_TIMEOUT:
   894     0842                     read_voltage@num_samples:
   895     0842  3432               	retlw	50
   896     0843                     __end_ofread_voltage@num_samples:
   897     0843                     _INA226_DIE_ID:
   898     0843  34FF               	retlw	255
   899     0844                     __end_of_INA226_DIE_ID:
   900     0844                     _INA226_MANUFACTURER_ID:
   901     0844  34FE               	retlw	254
   902     0845                     __end_of_INA226_MANUFACTURER_ID:
   903     0845                     _INA226_ALERT_LIMIT:
   904     0845  3407               	retlw	7
   905     0846                     __end_of_INA226_ALERT_LIMIT:
   906     0846                     _INA226_MASK_ENABLE:
   907     0846  3406               	retlw	6
   908     0847                     __end_of_INA226_MASK_ENABLE:
   909     0847                     _INA226_CALIBRATION:
   910     0847  3405               	retlw	5
   911     0848                     __end_of_INA226_CALIBRATION:
   912     0848                     _INA226_CURRENT:
   913     0848  3404               	retlw	4
   914     0849                     __end_of_INA226_CURRENT:
   915     0849                     _INA226_POWER:
   916     0849  3403               	retlw	3
   917     084A                     __end_of_INA226_POWER:
   918     084A                     _INA226_BUS_VOLTAGE:
   919     084A  3402               	retlw	2
   920     084B                     __end_of_INA226_BUS_VOLTAGE:
   921     084B                     _INA226_SHUNT_VOLTAGE:
   922     084B  3401               	retlw	1
   923     084C                     __end_of_INA226_SHUNT_VOLTAGE:
   924     084C                     _INA226_CONFIG:
   925     084C  3400               	retlw	0
   926     084D                     __end_of_INA226_CONFIG:
   927     084D                     _INA226_DEFAULT_I2C_ADDRESS@ina226$F817:
   928     084D  3440               	retlw	64
   929     084E                     __end_of_INA226_DEFAULT_I2C_ADDRESS@ina226$F817:
   930     084E                     _INA226_DEFAULT_I2C_ADDRESS:
   931     084E  3440               	retlw	64
   932     084F                     __end_of_INA226_DEFAULT_I2C_ADDRESS:
   933     001E                     _ADRESH         set	30
   934     001F                     _ADCON0bits     set	31
   935     0019                     _TXREG          set	25
   936     0018                     _RCSTAbits      set	24
   937     0013                     _SSPBUF         set	19
   938     0014                     _SSPCONbits     set	20
   939     0010                     _T1CONbits      set	16
   940     000B                     _INTCONbits     set	11
   941     0005                     _PORTAbits      set	5
   942     0007                     _PORTCbits      set	7
   943     0006                     _PORTBbits      set	6
   944     005A                     _TMR0IF         set	90
   945     005D                     _TMR0IE         set	93
   946     009E                     _ADRESL         set	158
   947     009F                     _ADCON1bits     set	159
   948     0099                     _SPBRG          set	153
   949     0098                     _TXSTAbits      set	152
   950     0091                     _SSPCON2bits    set	145
   951     0094                     _SSPSTATbits    set	148
   952     0091                     _SSPCON2        set	145
   953     0093                     _SSPADD         set	147
   954     0081                     _OPTION_REGbits set	129
   955     008F                     _OSCCONbits     set	143
   956     048E                     _ACKSTAT        set	1166
   957     04C1                     _TRMT           set	1217
   958     048C                     _ACKEN          set	1164
   959     048D                     _ACKDT          set	1165
   960     048B                     _RCEN           set	1163
   961     0437                     _TRISB7         set	1079
   962     0436                     _TRISB6         set	1078
   963     0435                     _TRISB5         set	1077
   964     0434                     _TRISB4         set	1076
   965     0433                     _TRISB3         set	1075
   966     0432                     _TRISB2         set	1074
   967     0431                     _TRISB1         set	1073
   968     0430                     _TRISB0         set	1072
   969     042F                     _TRISA7         set	1071
   970     042E                     _TRISA6         set	1070
   971     042D                     _TRISA5         set	1069
   972     042C                     _TRISA4         set	1068
   973     042B                     _TRISA3         set	1067
   974     042A                     _TRISA2         set	1066
   975     0429                     _TRISA1         set	1065
   976     0428                     _TRISA0         set	1064
   977     043F                     _TRISC7         set	1087
   978     043E                     _TRISC6         set	1086
   979     043D                     _TRISC5         set	1085
   980     043C                     _TRISC4         set	1084
   981     043B                     _TRISC3         set	1083
   982     043A                     _TRISC2         set	1082
   983     0439                     _TRISC1         set	1081
   984     0438                     _TRISC0         set	1080
   985     0189                     _ANSELH         set	393
   986     0188                     _ANSEL          set	392
   987     084F                     STR_13:
   988     084F  3449               	retlw	73	;'I'
   989     0850  344E               	retlw	78	;'N'
   990     0851  3441               	retlw	65	;'A'
   991     0852  3432               	retlw	50	;'2'
   992     0853  3432               	retlw	50	;'2'
   993     0854  3436               	retlw	54	;'6'
   994     0855  345F               	retlw	95	;'_'
   995     0856  3444               	retlw	68	;'D'
   996     0857  3449               	retlw	73	;'I'
   997     0858  3445               	retlw	69	;'E'
   998     0859  345F               	retlw	95	;'_'
   999     085A  3449               	retlw	73	;'I'
  1000     085B  3444               	retlw	68	;'D'
  1001     085C  345F               	retlw	95	;'_'
  1002     085D  344D               	retlw	77	;'M'
  1003     085E  3449               	retlw	73	;'I'
  1004     085F  3453               	retlw	83	;'S'
  1005     0860  344D               	retlw	77	;'M'
  1006     0861  3441               	retlw	65	;'A'
  1007     0862  3454               	retlw	84	;'T'
  1008     0863  3443               	retlw	67	;'C'
  1009     0864  3448               	retlw	72	;'H'
  1010     0865  3420               	retlw	32	;' '
  1011     0866  340D               	retlw	13
  1012     0867  340A               	retlw	10
  1013     0868  3400               	retlw	0
  1014     0869                     STR_15:
  1015     0869  3449               	retlw	73	;'I'
  1016     086A  3432               	retlw	50	;'2'
  1017     086B  3443               	retlw	67	;'C'
  1018     086C  345F               	retlw	95	;'_'
  1019     086D  3454               	retlw	84	;'T'
  1020     086E  3452               	retlw	82	;'R'
  1021     086F  3441               	retlw	65	;'A'
  1022     0870  344E               	retlw	78	;'N'
  1023     0871  3453               	retlw	83	;'S'
  1024     0872  344D               	retlw	77	;'M'
  1025     0873  3449               	retlw	73	;'I'
  1026     0874  3453               	retlw	83	;'S'
  1027     0875  3453               	retlw	83	;'S'
  1028     0876  3449               	retlw	73	;'I'
  1029     0877  344F               	retlw	79	;'O'
  1030     0878  344E               	retlw	78	;'N'
  1031     0879  345F               	retlw	95	;'_'
  1032     087A  3445               	retlw	69	;'E'
  1033     087B  3452               	retlw	82	;'R'
  1034     087C  3452               	retlw	82	;'R'
  1035     087D  344F               	retlw	79	;'O'
  1036     087E  3452               	retlw	82	;'R'
  1037     087F  3420               	retlw	32	;' '
  1038     0880  340D               	retlw	13
  1039     0881  340A               	retlw	10
  1040     0882  3400               	retlw	0
  1041     0883                     STR_12:
  1042     0883  3449               	retlw	73	;'I'
  1043     0884  344E               	retlw	78	;'N'
  1044     0885  3441               	retlw	65	;'A'
  1045     0886  3432               	retlw	50	;'2'
  1046     0887  3432               	retlw	50	;'2'
  1047     0888  3436               	retlw	54	;'6'
  1048     0889  345F               	retlw	95	;'_'
  1049     088A  3454               	retlw	84	;'T'
  1050     088B  3449               	retlw	73	;'I'
  1051     088C  345F               	retlw	95	;'_'
  1052     088D  3449               	retlw	73	;'I'
  1053     088E  3444               	retlw	68	;'D'
  1054     088F  345F               	retlw	95	;'_'
  1055     0890  344D               	retlw	77	;'M'
  1056     0891  3449               	retlw	73	;'I'
  1057     0892  3453               	retlw	83	;'S'
  1058     0893  344D               	retlw	77	;'M'
  1059     0894  3441               	retlw	65	;'A'
  1060     0895  3454               	retlw	84	;'T'
  1061     0896  3443               	retlw	67	;'C'
  1062     0897  3448               	retlw	72	;'H'
  1063     0898  3420               	retlw	32	;' '
  1064     0899  340D               	retlw	13
  1065     089A  340A               	retlw	10
  1066     089B  3400               	retlw	0
  1067     089C                     STR_18:
  1068     089C  3449               	retlw	73	;'I'
  1069     089D  344E               	retlw	78	;'N'
  1070     089E  3456               	retlw	86	;'V'
  1071     089F  3441               	retlw	65	;'A'
  1072     08A0  344C               	retlw	76	;'L'
  1073     08A1  3449               	retlw	73	;'I'
  1074     08A2  3444               	retlw	68	;'D'
  1075     08A3  345F               	retlw	95	;'_'
  1076     08A4  3449               	retlw	73	;'I'
  1077     08A5  3432               	retlw	50	;'2'
  1078     08A6  3443               	retlw	67	;'C'
  1079     08A7  345F               	retlw	95	;'_'
  1080     08A8  3441               	retlw	65	;'A'
  1081     08A9  3444               	retlw	68	;'D'
  1082     08AA  3444               	retlw	68	;'D'
  1083     08AB  3452               	retlw	82	;'R'
  1084     08AC  3445               	retlw	69	;'E'
  1085     08AD  3453               	retlw	83	;'S'
  1086     08AE  3453               	retlw	83	;'S'
  1087     08AF  3420               	retlw	32	;' '
  1088     08B0  340D               	retlw	13
  1089     08B1  340A               	retlw	10
  1090     08B2  3400               	retlw	0
  1091     08B3                     STR_17:
  1092     08B3  344E               	retlw	78	;'N'
  1093     08B4  344F               	retlw	79	;'O'
  1094     08B5  3454               	retlw	84	;'T'
  1095     08B6  345F               	retlw	95	;'_'
  1096     08B7  3449               	retlw	73	;'I'
  1097     08B8  344E               	retlw	78	;'N'
  1098     08B9  3449               	retlw	73	;'I'
  1099     08BA  3454               	retlw	84	;'T'
  1100     08BB  3449               	retlw	73	;'I'
  1101     08BC  3441               	retlw	65	;'A'
  1102     08BD  344C               	retlw	76	;'L'
  1103     08BE  3449               	retlw	73	;'I'
  1104     08BF  345A               	retlw	90	;'Z'
  1105     08C0  3445               	retlw	69	;'E'
  1106     08C1  3444               	retlw	68	;'D'
  1107     08C2  3420               	retlw	32	;' '
  1108     08C3  340D               	retlw	13
  1109     08C4  340A               	retlw	10
  1110     08C5  3400               	retlw	0
  1111     08C6                     STR_16:
  1112     08C6  3442               	retlw	66	;'B'
  1113     08C7  3441               	retlw	65	;'A'
  1114     08C8  3444               	retlw	68	;'D'
  1115     08C9  345F               	retlw	95	;'_'
  1116     08CA  3450               	retlw	80	;'P'
  1117     08CB  3441               	retlw	65	;'A'
  1118     08CC  3452               	retlw	82	;'R'
  1119     08CD  3441               	retlw	65	;'A'
  1120     08CE  344D               	retlw	77	;'M'
  1121     08CF  3445               	retlw	69	;'E'
  1122     08D0  3454               	retlw	84	;'T'
  1123     08D1  3445               	retlw	69	;'E'
  1124     08D2  3452               	retlw	82	;'R'
  1125     08D3  3420               	retlw	32	;' '
  1126     08D4  340D               	retlw	13
  1127     08D5  340A               	retlw	10
  1128     08D6  3400               	retlw	0
  1129     08D7                     STR_19:
  1130     08D7  3455               	retlw	85	;'U'
  1131     08D8  344E               	retlw	78	;'N'
  1132     08D9  344B               	retlw	75	;'K'
  1133     08DA  344E               	retlw	78	;'N'
  1134     08DB  344F               	retlw	79	;'O'
  1135     08DC  3457               	retlw	87	;'W'
  1136     08DD  344E               	retlw	78	;'N'
  1137     08DE  345F               	retlw	95	;'_'
  1138     08DF  3445               	retlw	69	;'E'
  1139     08E0  3452               	retlw	82	;'R'
  1140     08E1  3452               	retlw	82	;'R'
  1141     08E2  344F               	retlw	79	;'O'
  1142     08E3  3452               	retlw	82	;'R'
  1143     08E4  3420               	retlw	32	;' '
  1144     08E5  340D               	retlw	13
  1145     08E6  340A               	retlw	10
  1146     08E7  3400               	retlw	0
  1147     08E8                     STR_14:
  1148     08E8  3443               	retlw	67	;'C'
  1149     08E9  344F               	retlw	79	;'O'
  1150     08EA  344E               	retlw	78	;'N'
  1151     08EB  3446               	retlw	70	;'F'
  1152     08EC  3449               	retlw	73	;'I'
  1153     08ED  3447               	retlw	71	;'G'
  1154     08EE  345F               	retlw	95	;'_'
  1155     08EF  3445               	retlw	69	;'E'
  1156     08F0  3452               	retlw	82	;'R'
  1157     08F1  3452               	retlw	82	;'R'
  1158     08F2  344F               	retlw	79	;'O'
  1159     08F3  3452               	retlw	82	;'R'
  1160     08F4  3420               	retlw	32	;' '
  1161     08F5  340D               	retlw	13
  1162     08F6  340A               	retlw	10
  1163     08F7  3400               	retlw	0
  1164     08F8                     STR_3:
  1165     08F8  3442               	retlw	66	;'B'
  1166     08F9  3455               	retlw	85	;'U'
  1167     08FA  3453               	retlw	83	;'S'
  1168     08FB  343A               	retlw	58	;':'
  1169     08FC  3425               	retlw	37	;'%'
  1170     08FD  3475               	retlw	117	;'u'
  1171     08FE  3420               	retlw	32	;' '
  1172     08FF  340D               	retlw	13
  1173     0900  340A               	retlw	10
  1174     0901  340D               	retlw	13
  1175     0902  340A               	retlw	10
  1176     0903  3400               	retlw	0
  1177     0904                     STR_2:
  1178     0904  3431               	retlw	49	;'1'
  1179     0905  3432               	retlw	50	;'2'
  1180     0906  3456               	retlw	86	;'V'
  1181     0907  343A               	retlw	58	;':'
  1182     0908  3425               	retlw	37	;'%'
  1183     0909  3475               	retlw	117	;'u'
  1184     090A  3420               	retlw	32	;' '
  1185     090B  340D               	retlw	13
  1186     090C  340A               	retlw	10
  1187     090D  3400               	retlw	0
  1188     090E                     STR_1:
  1189     090E  3432               	retlw	50	;'2'
  1190     090F  3434               	retlw	52	;'4'
  1191     0910  3456               	retlw	86	;'V'
  1192     0911  343A               	retlw	58	;':'
  1193     0912  3425               	retlw	37	;'%'
  1194     0913  3475               	retlw	117	;'u'
  1195     0914  3420               	retlw	32	;' '
  1196     0915  340D               	retlw	13
  1197     0916  340A               	retlw	10
  1198     0917  3400               	retlw	0
  1199     0918                     STR_11:
  1200     0918  3446               	retlw	70	;'F'
  1201     0919  3441               	retlw	65	;'A'
  1202     091A  3449               	retlw	73	;'I'
  1203     091B  344C               	retlw	76	;'L'
  1204     091C  3420               	retlw	32	;' '
  1205     091D  340D               	retlw	13
  1206     091E  340A               	retlw	10
  1207     091F  3400               	retlw	0
  1208     0920                     STR_10:
  1209     0920  344F               	retlw	79	;'O'
  1210     0921  344B               	retlw	75	;'K'
  1211     0922  3420               	retlw	32	;' '
  1212     0923  340D               	retlw	13
  1213     0924  340A               	retlw	10
  1214     0925  3400               	retlw	0
  1215     090E                     STR_4           equ	STR_1
  1216     090E                     STR_7           equ	STR_1
  1217     0904                     STR_5           equ	STR_2
  1218     0904                     STR_8           equ	STR_2
  1219     08F8                     STR_6           equ	STR_3
  1220     08F8                     STR_9           equ	STR_3
  1221                           
  1222                           	psect	cinit
  1223     07E8                     start_initialization:	
  1224                           ; #config settings
  1225                           
  1226     07E8                     __initialization:
  1227                           
  1228                           ; Clear objects allocated to COMMON
  1229     07E8  01FA               	clrf	__pbssCOMMON& (0+127)
  1230     07E9  01FB               	clrf	(__pbssCOMMON+1)& (0+127)
  1231                           
  1232                           ; Clear objects allocated to BANK0
  1233     07EA  1283               	bcf	3,5	;RP0=0, select bank0
  1234     07EB  1303               	bcf	3,6	;RP1=0, select bank0
  1235     07EC  01E6               	clrf	__pbssBANK0& (0+127)
  1236     07ED  01E7               	clrf	(__pbssBANK0+1)& (0+127)
  1237     07EE  01E8               	clrf	(__pbssBANK0+2)& (0+127)
  1238     07EF  01E9               	clrf	(__pbssBANK0+3)& (0+127)
  1239     07F0  01EA               	clrf	(__pbssBANK0+4)& (0+127)
  1240     07F1  01EB               	clrf	(__pbssBANK0+5)& (0+127)
  1241     07F2  01EC               	clrf	(__pbssBANK0+6)& (0+127)
  1242                           
  1243                           ; Clear objects allocated to BANK1
  1244     07F3  1383               	bcf	3,7	;select IRP bank0
  1245     07F4  30A0               	movlw	low __pbssBANK1
  1246     07F5  0084               	movwf	4
  1247     07F6  30C0               	movlw	low (__pbssBANK1+32)
  1248     07F7  120A  158A  21DB  120A  118A  	fcall	clear_ram0
  1249     07FC                     end_of_initialization:	
  1250                           ;End of C runtime variable initialization code
  1251                           
  1252     07FC                     __end_of__initialization:
  1253     07FC  0183               	clrf	3
  1254     07FD  120A  118A  2D52   	ljmp	_main	;jump to C main() function
  1255                           
  1256                           	psect	bssCOMMON
  1257     007A                     __pbssCOMMON:
  1258     007A                     _g_timer_led_blink:
  1259     007A                     	ds	2
  1260                           
  1261                           	psect	bssBANK0
  1262     0066                     __pbssBANK0:
  1263     0066                     _width:
  1264     0066                     	ds	2
  1265     0068                     _prec:
  1266     0068                     	ds	2
  1267     006A                     _g_flag:
  1268     006A                     	ds	2
  1269     006C                     _flags:
  1270     006C                     	ds	1
  1271                           
  1272                           	psect	bssBANK1
  1273     00A0                     __pbssBANK1:
  1274     00A0                     _dbuf:
  1275     00A0                     	ds	32
  1276                           
  1277                           	psect	clrtext
  1278     09DB                     clear_ram0:	
  1279                           ;	Called with FSR containing the base address, and
  1280                           ;	W with the last address+1
  1281                           
  1282     09DB  0064               	clrwdt	;clear the watchdog before getting into this loop
  1283     09DC                     clrloop0:
  1284     09DC  0180               	clrf	0	;clear RAM location pointed to by FSR
  1285     09DD  0A84               	incf	4,f	;increment pointer
  1286     09DE  0604               	xorwf	4,w	;XOR with final address
  1287     09DF  1903               	btfsc	3,2	;have we reached the end yet?
  1288     09E0  3400               	retlw	0	;all done for this memory range, return
  1289     09E1  0604               	xorwf	4,w	;XOR again to restore value
  1290     09E2  29DC               	goto	clrloop0	;do the next byte
  1291                           
  1292                           	psect	cstackBANK1
  1293     00C0                     __pcstackBANK1:
  1294     00C0                     main@voltage_bus_24V:
  1295                           
  1296                           ; 2 bytes @ 0x0
  1297     00C0                     	ds	2
  1298     00C2                     main@voltage_batt_12V_high:
  1299                           
  1300                           ; 2 bytes @ 0x2
  1301     00C2                     	ds	2
  1302     00C4                     main@voltage_batt_12V_low:
  1303                           
  1304                           ; 2 bytes @ 0x4
  1305     00C4                     	ds	2
  1306     00C6                     main@ina226:
  1307                           
  1308                           ; 14 bytes @ 0x6
  1309     00C6                     	ds	14
  1310                           
  1311                           	psect	cstackCOMMON
  1312     0071                     __pcstackCOMMON:
  1313     0071                     ?_Global_Init:
  1314     0071                     ?_Interrupt_Init:	
  1315                           ; 1 bytes @ 0x0
  1316                           
  1317     0071                     ?_I2C_Init:	
  1318                           ; 1 bytes @ 0x0
  1319                           
  1320     0071                     ?_SendErrorStatus:	
  1321                           ; 1 bytes @ 0x0
  1322                           
  1323     0071                     ?_ADC_Init:	
  1324                           ; 1 bytes @ 0x0
  1325                           
  1326     0071                     ?_AutoFox_INA226_CheckI2cAddress:	
  1327                           ; 1 bytes @ 0x0
  1328                           
  1329     0071                     ?_main:	
  1330                           ; 1 bytes @ 0x0
  1331                           
  1332     0071                     ?_ISR:	
  1333                           ; 1 bytes @ 0x0
  1334                           
  1335     0071                     ?_I2C_Master_Wait:	
  1336                           ; 1 bytes @ 0x0
  1337                           
  1338     0071                     ?_I2C_Master_Start:	
  1339                           ; 1 bytes @ 0x0
  1340                           
  1341     0071                     ?_I2C_Master_Stop:	
  1342                           ; 1 bytes @ 0x0
  1343                           
  1344     0071                     ?_I2C_Master_Read:	
  1345                           ; 1 bytes @ 0x0
  1346                           
  1347     0071                     ?_SendUART_debug:	
  1348                           ; 1 bytes @ 0x0
  1349                           
  1350     0071                     ?_putch:	
  1351                           ; 1 bytes @ 0x0
  1352                           
  1353     0071                     ??_ISR:	
  1354                           ; 1 bytes @ 0x0
  1355                           
  1356                           
  1357                           ; 1 bytes @ 0x0
  1358     0071                     	ds	2
  1359     0073                     ?_AutoFox_INA226_Constructor:
  1360     0073                     ?_I2C_Master_Write:	
  1361                           ; 1 bytes @ 0x2
  1362                           
  1363     0073                     ?_ADC_Read_ADC_Result:	
  1364                           ; 1 bytes @ 0x2
  1365                           
  1366     0073                     ?___lwdiv:	
  1367                           ; 2 bytes @ 0x2
  1368                           
  1369     0073                     ?___lwmod:	
  1370                           ; 2 bytes @ 0x2
  1371                           
  1372     0073                     I2C_Master_Write@data:	
  1373                           ; 2 bytes @ 0x2
  1374                           
  1375     0073                     AutoFox_INA226_Constructor@this:	
  1376                           ; 2 bytes @ 0x2
  1377                           
  1378     0073                     ___lwdiv@divisor:	
  1379                           ; 2 bytes @ 0x2
  1380                           
  1381     0073                     ___lwmod@divisor:	
  1382                           ; 2 bytes @ 0x2
  1383                           
  1384     0073                     ??_Global_Init:	
  1385                           ; 2 bytes @ 0x2
  1386                           
  1387     0073                     ??_Interrupt_Init:	
  1388                           ; 1 bytes @ 0x2
  1389                           
  1390     0073                     ??_I2C_Init:	
  1391                           ; 1 bytes @ 0x2
  1392                           
  1393     0073                     ??_ADC_Init:	
  1394                           ; 1 bytes @ 0x2
  1395                           
  1396     0073                     ??_I2C_Master_Wait:	
  1397                           ; 1 bytes @ 0x2
  1398                           
  1399     0073                     ??_I2C_Master_Start:	
  1400                           ; 1 bytes @ 0x2
  1401                           
  1402     0073                     ??_I2C_Master_Stop:	
  1403                           ; 1 bytes @ 0x2
  1404                           
  1405     0073                     ??_I2C_Master_Read:	
  1406                           ; 1 bytes @ 0x2
  1407                           
  1408     0073                     ??_SendUART_debug:	
  1409                           ; 1 bytes @ 0x2
  1410                           
  1411     0073                     ??___lmul:	
  1412                           ; 1 bytes @ 0x2
  1413                           
  1414                           
  1415                           ; 1 bytes @ 0x2
  1416     0073                     	ds	1
  1417     0074                     SendUART_debug@data:
  1418     0074                     ___lmul@product:	
  1419                           ; 1 bytes @ 0x3
  1420                           
  1421                           
  1422                           ; 4 bytes @ 0x3
  1423     0074                     	ds	1
  1424     0075                     ?_AutoFox_INA226_WriteRegister:
  1425     0075                     SendUART_debug@i:	
  1426                           ; 1 bytes @ 0x4
  1427                           
  1428     0075                     I2C_Master_Read@data:	
  1429                           ; 1 bytes @ 0x4
  1430                           
  1431     0075                     AutoFox_INA226_WriteRegister@this:	
  1432                           ; 2 bytes @ 0x4
  1433                           
  1434     0075                     ADC_Read_ADC_Result@adcResult:	
  1435                           ; 2 bytes @ 0x4
  1436                           
  1437     0075                     ___lwdiv@dividend:	
  1438                           ; 2 bytes @ 0x4
  1439                           
  1440     0075                     ___lwmod@dividend:	
  1441                           ; 2 bytes @ 0x4
  1442                           
  1443     0075                     ??_AutoFox_INA226_Constructor:	
  1444                           ; 2 bytes @ 0x4
  1445                           
  1446     0075                     ??_AutoFox_INA226_CheckI2cAddress:	
  1447                           ; 1 bytes @ 0x4
  1448                           
  1449     0075                     ??_I2C_Master_Write:	
  1450                           ; 1 bytes @ 0x4
  1451                           
  1452     0075                     ??_ADC_Read_ADC_Result:	
  1453                           ; 1 bytes @ 0x4
  1454                           
  1455                           
  1456                           ; 1 bytes @ 0x4
  1457     0075                     	ds	1
  1458     0076                     putch@txData:
  1459     0076                     ??_SendErrorStatus:	
  1460                           ; 1 bytes @ 0x5
  1461                           
  1462     0076                     ??_putch:	
  1463                           ; 1 bytes @ 0x5
  1464                           
  1465                           
  1466                           ; 1 bytes @ 0x5
  1467     0076                     	ds	1
  1468     0077                     ?_fputc:
  1469     0077                     I2C_Master_Read@ack:	
  1470                           ; 2 bytes @ 0x6
  1471                           
  1472     0077                     AutoFox_INA226_CheckI2cAddress@aI2C_Address:	
  1473                           ; 1 bytes @ 0x6
  1474                           
  1475     0077                     AutoFox_INA226_WriteRegister@aRegister:	
  1476                           ; 1 bytes @ 0x6
  1477                           
  1478     0077                     ___lwdiv@counter:	
  1479                           ; 1 bytes @ 0x6
  1480                           
  1481     0077                     ___lwmod@counter:	
  1482                           ; 1 bytes @ 0x6
  1483                           
  1484     0077                     fputc@c:	
  1485                           ; 1 bytes @ 0x6
  1486                           
  1487     0077                     ??___lwdiv:	
  1488                           ; 2 bytes @ 0x6
  1489                           
  1490     0077                     ??___lwmod:	
  1491                           ; 1 bytes @ 0x6
  1492                           
  1493                           
  1494                           ; 1 bytes @ 0x6
  1495     0077                     	ds	1
  1496     0078                     AutoFox_INA226_WriteRegister@aValue:
  1497     0078                     ___lwdiv@quotient:	
  1498                           ; 2 bytes @ 0x7
  1499                           
  1500     0078                     ??___lldiv:	
  1501                           ; 2 bytes @ 0x7
  1502                           
  1503                           
  1504                           ; 1 bytes @ 0x7
  1505     0078                     	ds	1
  1506     0079                     fputc@fp:
  1507     0079                     ??_AutoFox_INA226_GetBusVoltage_V:	
  1508                           ; 1 bytes @ 0x8
  1509                           
  1510                           
  1511                           ; 1 bytes @ 0x8
  1512     0079                     	ds	1
  1513     007A                     ??_printf:
  1514     007A                     ??_vfprintf:	
  1515                           ; 1 bytes @ 0x9
  1516                           
  1517                           
  1518                           	psect	cstackBANK0
  1519     0020                     __pcstackBANK0:	
  1520                           ; 1 bytes @ 0x9
  1521                           
  1522     0020                     ?_AutoFox_INA226_ReadRegister:
  1523     0020                     ?___lmul:	
  1524                           ; 1 bytes @ 0x0
  1525                           
  1526     0020                     SendErrorStatus@err:	
  1527                           ; 4 bytes @ 0x0
  1528                           
  1529     0020                     AutoFox_INA226_ReadRegister@this:	
  1530                           ; 1 bytes @ 0x0
  1531                           
  1532     0020                     ___lmul@multiplier:	
  1533                           ; 2 bytes @ 0x0
  1534                           
  1535     0020                     ??_AutoFox_INA226_WriteRegister:	
  1536                           ; 4 bytes @ 0x0
  1537                           
  1538     0020                     ??_fputc:	
  1539                           ; 1 bytes @ 0x0
  1540                           
  1541                           
  1542                           ; 1 bytes @ 0x0
  1543     0020                     	ds	1
  1544     0021                     SendErrorStatus@errorMsg:
  1545                           
  1546                           ; 2 bytes @ 0x1
  1547     0021                     	ds	1
  1548     0022                     AutoFox_INA226_ReadRegister@aRegister:
  1549                           
  1550                           ; 1 bytes @ 0x2
  1551     0022                     	ds	1
  1552     0023                     AutoFox_INA226_ReadRegister@aValue_p:
  1553                           
  1554                           ; 2 bytes @ 0x3
  1555     0023                     	ds	1
  1556     0024                     AutoFox_INA226_WriteRegister@buffer:
  1557     0024                     ___lmul@multiplicand:	
  1558                           ; 3 bytes @ 0x4
  1559                           
  1560                           
  1561                           ; 4 bytes @ 0x4
  1562     0024                     	ds	1
  1563     0025                     ?_vfpfcnvrt:
  1564     0025                     vfpfcnvrt@fp:	
  1565                           ; 1 bytes @ 0x5
  1566                           
  1567     0025                     ??_AutoFox_INA226_ReadRegister:	
  1568                           ; 1 bytes @ 0x5
  1569                           
  1570                           
  1571                           ; 1 bytes @ 0x5
  1572     0025                     	ds	1
  1573     0026                     vfpfcnvrt@fmt:
  1574                           
  1575                           ; 1 bytes @ 0x6
  1576     0026                     	ds	1
  1577     0027                     vfpfcnvrt@ap:
  1578                           
  1579                           ; 1 bytes @ 0x7
  1580     0027                     	ds	1
  1581     0028                     ?___lldiv:
  1582     0028                     ___lldiv@divisor:	
  1583                           ; 4 bytes @ 0x8
  1584                           
  1585     0028                     ??_vfpfcnvrt:	
  1586                           ; 4 bytes @ 0x8
  1587                           
  1588                           
  1589                           ; 1 bytes @ 0x8
  1590     0028                     	ds	1
  1591     0029                     ?_AutoFox_INA226_ConfigureVoltageConversionTime:
  1592     0029                     ?_AutoFox_INA226_ConfigureNumSampleAveraging:	
  1593                           ; 1 bytes @ 0x9
  1594                           
  1595     0029                     AutoFox_INA226_ConfigureVoltageConversionTime@this:	
  1596                           ; 1 bytes @ 0x9
  1597                           
  1598     0029                     AutoFox_INA226_ConfigureNumSampleAveraging@this:	
  1599                           ; 2 bytes @ 0x9
  1600                           
  1601                           
  1602                           ; 2 bytes @ 0x9
  1603     0029                     	ds	2
  1604     002B                     AutoFox_INA226_ConfigureVoltageConversionTime@aIndexToConversionTimeTable:
  1605     002B                     AutoFox_INA226_ConfigureNumSampleAveraging@aIndexToSampleAverageTable:	
  1606                           ; 2 bytes @ 0xB
  1607                           
  1608                           
  1609                           ; 2 bytes @ 0xB
  1610     002B                     	ds	1
  1611     002C                     vfpfcnvrt@cp:
  1612     002C                     ___lldiv@dividend:	
  1613                           ; 2 bytes @ 0xC
  1614                           
  1615                           
  1616                           ; 4 bytes @ 0xC
  1617     002C                     	ds	1
  1618     002D                     ??_AutoFox_INA226_ConfigureVoltageConversionTime:
  1619     002D                     ??_AutoFox_INA226_ConfigureNumSampleAveraging:	
  1620                           ; 1 bytes @ 0xD
  1621                           
  1622                           
  1623                           ; 1 bytes @ 0xD
  1624     002D                     	ds	1
  1625     002E                     vfpfcnvrt@convarg:
  1626                           
  1627                           ; 4 bytes @ 0xE
  1628     002E                     	ds	2
  1629     0030                     ___lldiv@quotient:
  1630                           
  1631                           ; 4 bytes @ 0x10
  1632     0030                     	ds	1
  1633     0031                     AutoFox_INA226_ConfigureNumSampleAveraging@s:
  1634     0031                     AutoFox_INA226_ConfigureVoltageConversionTime@theMergedBusAndShuntConvTimeIndicies:	
  1635                           ; 1 bytes @ 0x11
  1636                           
  1637                           
  1638                           ; 2 bytes @ 0x11
  1639     0031                     	ds	1
  1640     0032                     vfpfcnvrt@c:
  1641                           
  1642                           ; 1 bytes @ 0x12
  1643     0032                     	ds	1
  1644     0033                     ?_vfprintf:
  1645     0033                     AutoFox_INA226_ConfigureVoltageConversionTime@s:	
  1646                           ; 2 bytes @ 0x13
  1647                           
  1648     0033                     vfprintf@fp:	
  1649                           ; 1 bytes @ 0x13
  1650                           
  1651                           
  1652                           ; 1 bytes @ 0x13
  1653     0033                     	ds	1
  1654     0034                     ___lldiv@counter:
  1655     0034                     vfprintf@fmt:	
  1656                           ; 1 bytes @ 0x14
  1657                           
  1658                           
  1659                           ; 2 bytes @ 0x14
  1660     0034                     	ds	1
  1661     0035                     ?_AutoFox_INA226_setupCalibration:
  1662     0035                     ?_AutoFox_INA226_GetBusVoltage_V:	
  1663                           ; 1 bytes @ 0x15
  1664                           
  1665     0035                     ?_read_voltage:	
  1666                           ; 2 bytes @ 0x15
  1667                           
  1668     0035                     AutoFox_INA226_setupCalibration@this:	
  1669                           ; 2 bytes @ 0x15
  1670                           
  1671     0035                     AutoFox_INA226_GetBusVoltage_V@this:	
  1672                           ; 2 bytes @ 0x15
  1673                           
  1674                           
  1675                           ; 2 bytes @ 0x15
  1676     0035                     	ds	1
  1677     0036                     vfprintf@ap:
  1678                           
  1679                           ; 1 bytes @ 0x16
  1680     0036                     	ds	1
  1681     0037                     AutoFox_INA226_setupCalibration@aShuntResistor_mOhms:
  1682     0037                     vfprintf@cfmt:	
  1683                           ; 2 bytes @ 0x17
  1684                           
  1685     0037                     AutoFox_INA226_GetBusVoltage_V@theRegisterValue:	
  1686                           ; 2 bytes @ 0x17
  1687                           
  1688     0037                     ??_read_voltage:	
  1689                           ; 4 bytes @ 0x17
  1690                           
  1691                           
  1692                           ; 1 bytes @ 0x17
  1693     0037                     	ds	2
  1694     0039                     ?_printf:
  1695     0039                     printf@fmt:	
  1696                           ; 2 bytes @ 0x19
  1697                           
  1698     0039                     AutoFox_INA226_setupCalibration@aMaxCurrent_Amps:	
  1699                           ; 2 bytes @ 0x19
  1700                           
  1701                           
  1702                           ; 4 bytes @ 0x19
  1703     0039                     	ds	2
  1704     003B                     read_voltage@R2:
  1705                           
  1706                           ; 4 bytes @ 0x1B
  1707     003B                     	ds	2
  1708     003D                     printf@ap:
  1709     003D                     ??_AutoFox_INA226_setupCalibration:	
  1710                           ; 1 bytes @ 0x1D
  1711                           
  1712                           
  1713                           ; 1 bytes @ 0x1D
  1714     003D                     	ds	2
  1715     003F                     read_voltage@sample:
  1716                           
  1717                           ; 2 bytes @ 0x1F
  1718     003F                     	ds	2
  1719     0041                     read_voltage@sum:
  1720                           
  1721                           ; 4 bytes @ 0x21
  1722     0041                     	ds	4
  1723     0045                     read_voltage@i:
  1724     0045                     AutoFox_INA226_setupCalibration@theCal:	
  1725                           ; 1 bytes @ 0x25
  1726                           
  1727                           
  1728                           ; 4 bytes @ 0x25
  1729     0045                     	ds	1
  1730     0046                     read_voltage@R1:
  1731                           
  1732                           ; 4 bytes @ 0x26
  1733     0046                     	ds	3
  1734     0049                     AutoFox_INA226_setupCalibration@theCurrentLSB_uA:
  1735                           
  1736                           ; 4 bytes @ 0x29
  1737     0049                     	ds	1
  1738     004A                     read_voltage@average:
  1739                           
  1740                           ; 4 bytes @ 0x2A
  1741     004A                     	ds	3
  1742     004D                     ?_AutoFox_INA226_Init:
  1743     004D                     AutoFox_INA226_Init@this:	
  1744                           ; 1 bytes @ 0x2D
  1745                           
  1746                           
  1747                           ; 2 bytes @ 0x2D
  1748     004D                     	ds	2
  1749     004F                     AutoFox_INA226_Init@aI2C_Address:
  1750                           
  1751                           ; 1 bytes @ 0x2F
  1752     004F                     	ds	1
  1753     0050                     AutoFox_INA226_Init@aShuntResistor_mOhms:
  1754                           
  1755                           ; 2 bytes @ 0x30
  1756     0050                     	ds	2
  1757     0052                     AutoFox_INA226_Init@aMaxCurrent_Amps:
  1758                           
  1759                           ; 4 bytes @ 0x32
  1760     0052                     	ds	4
  1761     0056                     ??_AutoFox_INA226_Init:
  1762                           
  1763                           ; 1 bytes @ 0x36
  1764     0056                     	ds	4
  1765     005A                     AutoFox_INA226_Init@s:
  1766                           
  1767                           ; 1 bytes @ 0x3A
  1768     005A                     	ds	1
  1769     005B                     AutoFox_INA226_Init@s_868:
  1770                           
  1771                           ; 1 bytes @ 0x3B
  1772     005B                     	ds	1
  1773     005C                     AutoFox_INA226_Init@s_869:
  1774                           
  1775                           ; 1 bytes @ 0x3C
  1776     005C                     	ds	1
  1777     005D                     AutoFox_INA226_Init@s_870:
  1778                           
  1779                           ; 1 bytes @ 0x3D
  1780     005D                     	ds	1
  1781     005E                     AutoFox_INA226_Init@s_871:
  1782                           
  1783                           ; 1 bytes @ 0x3E
  1784     005E                     	ds	1
  1785     005F                     AutoFox_INA226_Init@s_872:
  1786                           
  1787                           ; 1 bytes @ 0x3F
  1788     005F                     	ds	1
  1789     0060                     AutoFox_INA226_Init@s_873:
  1790                           
  1791                           ; 1 bytes @ 0x40
  1792     0060                     	ds	1
  1793     0061                     AutoFox_INA226_Init@theINA226_ID:
  1794                           
  1795                           ; 2 bytes @ 0x41
  1796     0061                     	ds	2
  1797     0063                     ??_main:
  1798                           
  1799                           ; 1 bytes @ 0x43
  1800     0063                     	ds	3
  1801                           
  1802                           	psect	maintext
  1803     0552                     __pmaintext:	
  1804 ;;
  1805 ;;Main: autosize = 0, tempsize = 3, incstack = 0, save=0
  1806 ;;
  1807 ;; *************** function _main *****************
  1808 ;; Defined at:
  1809 ;;		line 22 in file "main.c"
  1810 ;; Parameters:    Size  Location     Type
  1811 ;;		None
  1812 ;; Auto vars:     Size  Location     Type
  1813 ;;  ina226         14    6[BANK1 ] struct AutoFox_INA226
  1814 ;;  voltage_batt    2    4[BANK1 ] unsigned short 
  1815 ;;  voltage_batt    2    2[BANK1 ] unsigned short 
  1816 ;;  voltage_bus_    2    0[BANK1 ] unsigned short 
  1817 ;; Return value:  Size  Location     Type
  1818 ;;                  1    wreg      void 
  1819 ;; Registers used:
  1820 ;;		wreg, fsr0l, fsr0h, status,2, status,0, btemp+1, pclath, cstack
  1821 ;; Tracked objects:
  1822 ;;		On entry : B00/0
  1823 ;;		On exit  : 0/0
  1824 ;;		Unchanged: 0/0
  1825 ;; Data sizes:     COMMON   BANK0   BANK1   BANK3   BANK2
  1826 ;;      Params:         0       0       0       0       0
  1827 ;;      Locals:         0       0      20       0       0
  1828 ;;      Temps:          0       3       0       0       0
  1829 ;;      Totals:         0       3      20       0       0
  1830 ;;Total ram usage:       23 bytes
  1831 ;; Hardware stack levels required when called: 7
  1832 ;; This function calls:
  1833 ;;		_ADC_Init
  1834 ;;		_AutoFox_INA226_ConfigureNumSampleAveraging
  1835 ;;		_AutoFox_INA226_ConfigureVoltageConversionTime
  1836 ;;		_AutoFox_INA226_Constructor
  1837 ;;		_AutoFox_INA226_GetBusVoltage_V
  1838 ;;		_AutoFox_INA226_Init
  1839 ;;		_Global_Init
  1840 ;;		_I2C_Init
  1841 ;;		_Interrupt_Init
  1842 ;;		_SendErrorStatus
  1843 ;;		_printf
  1844 ;;		_read_voltage
  1845 ;; This function is called by:
  1846 ;;		Startup code after reset
  1847 ;; This function uses a non-reentrant model
  1848 ;;
  1849                           
  1850     0552                     _main:	
  1851                           ;psect for function _main
  1852                           
  1853     0552                     l3441:	
  1854                           ;incstack = 0
  1855                           ; Regs used in _main: [wreg-fsr0h+status,2+status,0+btemp+1+pclath+cstack]
  1856                           
  1857                           
  1858                           ;main.c: 25:     AutoFox_INA226 ina226;;main.c: 26:     AutoFox_INA226_Constructor(&ina2
      +                          26);
  1859     0552  30C6               	movlw	low main@ina226
  1860     0553  00F3               	movwf	AutoFox_INA226_Constructor@this
  1861     0554  3000               	movlw	high main@ina226
  1862     0555  00F4               	movwf	AutoFox_INA226_Constructor@this+1
  1863     0556  120A  158A  2549  120A  118A  	fcall	_AutoFox_INA226_Constructor
  1864     055B                     l3443:
  1865                           
  1866                           ;main.c: 28:     Global_Init();
  1867     055B  120A  158A  22EF  120A  118A  	fcall	_Global_Init
  1868     0560                     l3445:
  1869                           
  1870                           ;main.c: 29:     Interrupt_Init();
  1871     0560  120A  158A  220D  120A  118A  	fcall	_Interrupt_Init
  1872     0565                     l3447:
  1873                           
  1874                           ;main.c: 30:     I2C_Init();
  1875     0565  120A  158A  21FF  120A  118A  	fcall	_I2C_Init
  1876     056A                     l3449:
  1877                           
  1878                           ;main.c: 31:     PORTBbits.RB7=0;
  1879     056A  1283               	bcf	3,5	;RP0=0, select bank0
  1880     056B  1303               	bcf	3,6	;RP1=0, select bank0
  1881     056C  1386               	bcf	6,7	;volatile
  1882     056D                     l3451:
  1883                           
  1884                           ;main.c: 32:     PORTBbits.RB6=0;
  1885     056D  1306               	bcf	6,6	;volatile
  1886     056E                     l3453:
  1887                           
  1888                           ;main.c: 33:     PORTCbits.RC0=1;
  1889     056E  1407               	bsf	7,0	;volatile
  1890     056F                     l3455:
  1891                           
  1892                           ;main.c: 34:     PORTAbits.RA6=1;
  1893     056F  1705               	bsf	5,6	;volatile
  1894     0570                     l3457:
  1895     0570  30C6               	movlw	low main@ina226
  1896     0571  00CD               	movwf	AutoFox_INA226_Init@this
  1897     0572  3000               	movlw	high main@ina226
  1898     0573  00CE               	movwf	AutoFox_INA226_Init@this+1
  1899     0574  3040               	movlw	64
  1900     0575  00CF               	movwf	AutoFox_INA226_Init@aI2C_Address
  1901     0576  3002               	movlw	2
  1902     0577  00D0               	movwf	AutoFox_INA226_Init@aShuntResistor_mOhms
  1903     0578  3000               	movlw	0
  1904     0579  00D1               	movwf	AutoFox_INA226_Init@aShuntResistor_mOhms+1
  1905     057A  3000               	movlw	0
  1906     057B  00D5               	movwf	AutoFox_INA226_Init@aMaxCurrent_Amps+3
  1907     057C  3000               	movlw	0
  1908     057D  00D4               	movwf	AutoFox_INA226_Init@aMaxCurrent_Amps+2
  1909     057E  3000               	movlw	0
  1910     057F  00D3               	movwf	AutoFox_INA226_Init@aMaxCurrent_Amps+1
  1911     0580  3032               	movlw	50
  1912     0581  00D2               	movwf	AutoFox_INA226_Init@aMaxCurrent_Amps
  1913     0582  120A  118A  216A  120A  118A  	fcall	_AutoFox_INA226_Init
  1914     0587  120A  158A  25A7  120A  118A  	fcall	_SendErrorStatus
  1915     058C                     l3459:
  1916                           
  1917                           ;main.c: 38:     SendErrorStatus(AutoFox_INA226_ConfigureVoltageConversionTime(&ina226, 
      +                          0b111));
  1918     058C  30C6               	movlw	low main@ina226
  1919     058D  1283               	bcf	3,5	;RP0=0, select bank0
  1920     058E  1303               	bcf	3,6	;RP1=0, select bank0
  1921     058F  00A9               	movwf	AutoFox_INA226_ConfigureVoltageConversionTime@this
  1922     0590  3000               	movlw	high main@ina226
  1923     0591  00AA               	movwf	AutoFox_INA226_ConfigureVoltageConversionTime@this+1
  1924     0592  3007               	movlw	7
  1925     0593  00AB               	movwf	AutoFox_INA226_ConfigureVoltageConversionTime@aIndexToConversionTimeTable
  1926     0594  3000               	movlw	0
  1927     0595  00AC               	movwf	AutoFox_INA226_ConfigureVoltageConversionTime@aIndexToConversionTimeTable+1
  1928     0596  120A  158A  26B9  120A  118A  	fcall	_AutoFox_INA226_ConfigureVoltageConversionTime
  1929     059B  120A  158A  25A7  120A  118A  	fcall	_SendErrorStatus
  1930     05A0                     l3461:
  1931                           
  1932                           ;main.c: 39:     SendErrorStatus(AutoFox_INA226_ConfigureNumSampleAveraging(&ina226, 0b0
      +                          10));
  1933     05A0  30C6               	movlw	low main@ina226
  1934     05A1  1283               	bcf	3,5	;RP0=0, select bank0
  1935     05A2  1303               	bcf	3,6	;RP1=0, select bank0
  1936     05A3  00A9               	movwf	AutoFox_INA226_ConfigureNumSampleAveraging@this
  1937     05A4  3000               	movlw	high main@ina226
  1938     05A5  00AA               	movwf	AutoFox_INA226_ConfigureNumSampleAveraging@this+1
  1939     05A6  3002               	movlw	2
  1940     05A7  00AB               	movwf	AutoFox_INA226_ConfigureNumSampleAveraging@aIndexToSampleAverageTable
  1941     05A8  3000               	movlw	0
  1942     05A9  00AC               	movwf	AutoFox_INA226_ConfigureNumSampleAveraging@aIndexToSampleAverageTable+1
  1943     05AA  120A  158A  262E  120A  118A  	fcall	_AutoFox_INA226_ConfigureNumSampleAveraging
  1944     05AF  120A  158A  25A7  120A  118A  	fcall	_SendErrorStatus
  1945     05B4                     l3463:
  1946                           
  1947                           ;main.c: 41:     uint16_t voltage_bus_24V, voltage_batt_12V_high, voltage_batt_12V_low;;
      +                          main.c: 43:     ADC_Init();
  1948     05B4  120A  158A  225B  120A  118A  	fcall	_ADC_Init
  1949     05B9                     l3465:
  1950                           
  1951                           ;main.c: 46: {;main.c: 47:             voltage_bus_24V = AutoFox_INA226_GetBusVoltage_V(
      +                          &ina226);
  1952     05B9  30C6               	movlw	low main@ina226
  1953     05BA  1283               	bcf	3,5	;RP0=0, select bank0
  1954     05BB  1303               	bcf	3,6	;RP1=0, select bank0
  1955     05BC  00B5               	movwf	AutoFox_INA226_GetBusVoltage_V@this
  1956     05BD  3000               	movlw	high main@ina226
  1957     05BE  00B6               	movwf	AutoFox_INA226_GetBusVoltage_V@this+1
  1958     05BF  120A  158A  244A  120A  118A  	fcall	_AutoFox_INA226_GetBusVoltage_V
  1959     05C4  1283               	bcf	3,5	;RP0=0, select bank0
  1960     05C5  1303               	bcf	3,6	;RP1=0, select bank0
  1961     05C6  0836               	movf	?_AutoFox_INA226_GetBusVoltage_V+1,w
  1962     05C7  1683               	bsf	3,5	;RP0=1, select bank1
  1963     05C8  1303               	bcf	3,6	;RP1=0, select bank1
  1964     05C9  00C1               	movwf	(main@voltage_bus_24V+1)^(0+128)
  1965     05CA  1283               	bcf	3,5	;RP0=0, select bank0
  1966     05CB  1303               	bcf	3,6	;RP1=0, select bank0
  1967     05CC  0835               	movf	?_AutoFox_INA226_GetBusVoltage_V,w
  1968     05CD  1683               	bsf	3,5	;RP0=1, select bank1
  1969     05CE  1303               	bcf	3,6	;RP1=0, select bank1
  1970     05CF  00C0               	movwf	main@voltage_bus_24V^(0+128)
  1971     05D0                     l3467:
  1972                           
  1973                           ;main.c: 48:             voltage_batt_12V_low = read_voltage();
  1974     05D0  120A  118A  23BF  120A  118A  	fcall	_read_voltage
  1975     05D5  1283               	bcf	3,5	;RP0=0, select bank0
  1976     05D6  1303               	bcf	3,6	;RP1=0, select bank0
  1977     05D7  0836               	movf	?_read_voltage+1,w
  1978     05D8  1683               	bsf	3,5	;RP0=1, select bank1
  1979     05D9  1303               	bcf	3,6	;RP1=0, select bank1
  1980     05DA  00C5               	movwf	(main@voltage_batt_12V_low+1)^(0+128)
  1981     05DB  1283               	bcf	3,5	;RP0=0, select bank0
  1982     05DC  1303               	bcf	3,6	;RP1=0, select bank0
  1983     05DD  0835               	movf	?_read_voltage,w
  1984     05DE  1683               	bsf	3,5	;RP0=1, select bank1
  1985     05DF  1303               	bcf	3,6	;RP1=0, select bank1
  1986     05E0  00C4               	movwf	main@voltage_batt_12V_low^(0+128)
  1987     05E1                     l3469:
  1988                           
  1989                           ;main.c: 49:             voltage_batt_12V_high = voltage_bus_24V - voltage_batt_12V_low;
  1990     05E1  0844               	movf	main@voltage_batt_12V_low^(0+128),w
  1991     05E2  0240               	subwf	main@voltage_bus_24V^(0+128),w
  1992     05E3  00C2               	movwf	main@voltage_batt_12V_high^(0+128)
  1993     05E4  0845               	movf	(main@voltage_batt_12V_low+1)^(0+128),w
  1994     05E5  1C03               	skipc
  1995     05E6  0A45               	incf	(main@voltage_batt_12V_low+1)^(0+128),w
  1996     05E7  0241               	subwf	(main@voltage_bus_24V+1)^(0+128),w
  1997     05E8  00C3               	movwf	(main@voltage_batt_12V_high+1)^(0+128)
  1998     05E9                     l3471:
  1999                           
  2000                           ;main.c: 51:             printf("24V:%u \r\n", voltage_batt_12V_high);
  2001     05E9  300E               	movlw	low (STR_1| (0+32768))
  2002     05EA  1283               	bcf	3,5	;RP0=0, select bank0
  2003     05EB  1303               	bcf	3,6	;RP1=0, select bank0
  2004     05EC  00B9               	movwf	printf@fmt
  2005     05ED  3089               	movlw	high (STR_1| (0+32768))
  2006     05EE  00BA               	movwf	printf@fmt+1
  2007     05EF  1683               	bsf	3,5	;RP0=1, select bank1
  2008     05F0  1303               	bcf	3,6	;RP1=0, select bank1
  2009     05F1  0843               	movf	(main@voltage_batt_12V_high+1)^(0+128),w
  2010     05F2  1283               	bcf	3,5	;RP0=0, select bank0
  2011     05F3  1303               	bcf	3,6	;RP1=0, select bank0
  2012     05F4  00BC               	movwf	?_printf+3
  2013     05F5  1683               	bsf	3,5	;RP0=1, select bank1
  2014     05F6  1303               	bcf	3,6	;RP1=0, select bank1
  2015     05F7  0842               	movf	main@voltage_batt_12V_high^(0+128),w
  2016     05F8  1283               	bcf	3,5	;RP0=0, select bank0
  2017     05F9  1303               	bcf	3,6	;RP1=0, select bank0
  2018     05FA  00BB               	movwf	?_printf+2
  2019     05FB  120A  158A  221D  120A  118A  	fcall	_printf
  2020     0600                     l3473:
  2021                           
  2022                           ;main.c: 52:             printf("12V:%u \r\n", voltage_batt_12V_low);
  2023     0600  3004               	movlw	low (STR_2| (0+32768))
  2024     0601  1283               	bcf	3,5	;RP0=0, select bank0
  2025     0602  1303               	bcf	3,6	;RP1=0, select bank0
  2026     0603  00B9               	movwf	printf@fmt
  2027     0604  3089               	movlw	high (STR_2| (0+32768))
  2028     0605  00BA               	movwf	printf@fmt+1
  2029     0606  1683               	bsf	3,5	;RP0=1, select bank1
  2030     0607  1303               	bcf	3,6	;RP1=0, select bank1
  2031     0608  0845               	movf	(main@voltage_batt_12V_low+1)^(0+128),w
  2032     0609  1283               	bcf	3,5	;RP0=0, select bank0
  2033     060A  1303               	bcf	3,6	;RP1=0, select bank0
  2034     060B  00BC               	movwf	?_printf+3
  2035     060C  1683               	bsf	3,5	;RP0=1, select bank1
  2036     060D  1303               	bcf	3,6	;RP1=0, select bank1
  2037     060E  0844               	movf	main@voltage_batt_12V_low^(0+128),w
  2038     060F  1283               	bcf	3,5	;RP0=0, select bank0
  2039     0610  1303               	bcf	3,6	;RP1=0, select bank0
  2040     0611  00BB               	movwf	?_printf+2
  2041     0612  120A  158A  221D  120A  118A  	fcall	_printf
  2042     0617                     l3475:
  2043                           
  2044                           ;main.c: 53:             printf("BUS:%u \r\n\r\n", voltage_bus_24V);
  2045     0617  30F8               	movlw	low (STR_3| (0+32768))
  2046     0618  1283               	bcf	3,5	;RP0=0, select bank0
  2047     0619  1303               	bcf	3,6	;RP1=0, select bank0
  2048     061A  00B9               	movwf	printf@fmt
  2049     061B  3088               	movlw	high (STR_3| (0+32768))
  2050     061C  00BA               	movwf	printf@fmt+1
  2051     061D  1683               	bsf	3,5	;RP0=1, select bank1
  2052     061E  1303               	bcf	3,6	;RP1=0, select bank1
  2053     061F  0841               	movf	(main@voltage_bus_24V+1)^(0+128),w
  2054     0620  1283               	bcf	3,5	;RP0=0, select bank0
  2055     0621  1303               	bcf	3,6	;RP1=0, select bank0
  2056     0622  00BC               	movwf	?_printf+3
  2057     0623  1683               	bsf	3,5	;RP0=1, select bank1
  2058     0624  1303               	bcf	3,6	;RP1=0, select bank1
  2059     0625  0840               	movf	main@voltage_bus_24V^(0+128),w
  2060     0626  1283               	bcf	3,5	;RP0=0, select bank0
  2061     0627  1303               	bcf	3,6	;RP1=0, select bank0
  2062     0628  00BB               	movwf	?_printf+2
  2063     0629  120A  158A  221D  120A  118A  	fcall	_printf
  2064     062E                     l3477:
  2065                           
  2066                           ;main.c: 55:         if (voltage_batt_12V_low > (voltage_batt_12V_high + 5))
  2067     062E  1683               	bsf	3,5	;RP0=1, select bank1
  2068     062F  1303               	bcf	3,6	;RP1=0, select bank1
  2069     0630  0842               	movf	main@voltage_batt_12V_high^(0+128),w
  2070     0631  3E05               	addlw	5
  2071     0632  1283               	bcf	3,5	;RP0=0, select bank0
  2072     0633  1303               	bcf	3,6	;RP1=0, select bank0
  2073     0634  00E3               	movwf	??_main
  2074     0635  1683               	bsf	3,5	;RP0=1, select bank1
  2075     0636  1303               	bcf	3,6	;RP1=0, select bank1
  2076     0637  0843               	movf	(main@voltage_batt_12V_high+1)^(0+128),w
  2077     0638  1803               	skipnc
  2078     0639  3E01               	addlw	1
  2079     063A  3E00               	addlw	0
  2080     063B  1283               	bcf	3,5	;RP0=0, select bank0
  2081     063C  1303               	bcf	3,6	;RP1=0, select bank0
  2082     063D  00E4               	movwf	??_main+1
  2083     063E  1683               	bsf	3,5	;RP0=1, select bank1
  2084     063F  1303               	bcf	3,6	;RP1=0, select bank1
  2085     0640  0845               	movf	(main@voltage_batt_12V_low+1)^(0+128),w
  2086     0641  1283               	bcf	3,5	;RP0=0, select bank0
  2087     0642  1303               	bcf	3,6	;RP1=0, select bank0
  2088     0643  0264               	subwf	??_main+1,w
  2089     0644  1D03               	skipz
  2090     0645  2E4C               	goto	u2655
  2091     0646  1683               	bsf	3,5	;RP0=1, select bank1
  2092     0647  1303               	bcf	3,6	;RP1=0, select bank1
  2093     0648  0844               	movf	main@voltage_batt_12V_low^(0+128),w
  2094     0649  1283               	bcf	3,5	;RP0=0, select bank0
  2095     064A  1303               	bcf	3,6	;RP1=0, select bank0
  2096     064B  0263               	subwf	??_main,w
  2097     064C                     u2655:
  2098     064C  1803               	skipnc
  2099     064D  2E4F               	goto	u2651
  2100     064E  2E50               	goto	u2650
  2101     064F                     u2651:
  2102     064F  2F09               	goto	l3499
  2103     0650                     u2650:
  2104     0650                     l43:	
  2105                           ;main.c: 56:         {;main.c: 57:             while (1)
  2106                           
  2107                           
  2108                           ;main.c: 58:             {;main.c: 59:                 PORTBbits.RB4=0;
  2109     0650  1283               	bcf	3,5	;RP0=0, select bank0
  2110     0651  1206               	bcf	6,4	;volatile
  2111     0652                     l3479:
  2112                           
  2113                           ;main.c: 61:                 _delay((unsigned long)((1000)*(8000000/4000.0)));
  2114     0652  300B               	movlw	11
  2115     0653  1283               	bcf	3,5	;RP0=0, select bank0
  2116     0654  1303               	bcf	3,6	;RP1=0, select bank0
  2117     0655  00E5               	movwf	??_main+2
  2118     0656  3026               	movlw	38
  2119     0657  00E4               	movwf	??_main+1
  2120     0658  305D               	movlw	93
  2121     0659  00E3               	movwf	??_main
  2122     065A                     u2827:
  2123     065A  0BE3               	decfsz	??_main,f
  2124     065B  2E5A               	goto	u2827
  2125     065C  0BE4               	decfsz	??_main+1,f
  2126     065D  2E5A               	goto	u2827
  2127     065E  0BE5               	decfsz	??_main+2,f
  2128     065F  2E5A               	goto	u2827
  2129     0660                     l3481:
  2130                           
  2131                           ;main.c: 62:                  PORTBbits.RB4=1;
  2132     0660  1283               	bcf	3,5	;RP0=0, select bank0
  2133     0661  1303               	bcf	3,6	;RP1=0, select bank0
  2134     0662  1606               	bsf	6,4	;volatile
  2135                           
  2136                           ;main.c: 63:                  _delay((unsigned long)((5000)*(8000000/4000.0)));
  2137     0663  3033               	movlw	51
  2138     0664  1283               	bcf	3,5	;RP0=0, select bank0
  2139     0665  1303               	bcf	3,6	;RP1=0, select bank0
  2140     0666  00E5               	movwf	??_main+2
  2141     0667  30BB               	movlw	187
  2142     0668  00E4               	movwf	??_main+1
  2143     0669  30DF               	movlw	223
  2144     066A  00E3               	movwf	??_main
  2145     066B                     u2837:
  2146     066B  0BE3               	decfsz	??_main,f
  2147     066C  2E6B               	goto	u2837
  2148     066D  0BE4               	decfsz	??_main+1,f
  2149     066E  2E6B               	goto	u2837
  2150     066F  0BE5               	decfsz	??_main+2,f
  2151     0670  2E6B               	goto	u2837
  2152     0671                     l3483:
  2153                           
  2154                           ;main.c: 65:                 voltage_bus_24V = AutoFox_INA226_GetBusVoltage_V(&ina226);
  2155     0671  30C6               	movlw	low main@ina226
  2156     0672  1283               	bcf	3,5	;RP0=0, select bank0
  2157     0673  1303               	bcf	3,6	;RP1=0, select bank0
  2158     0674  00B5               	movwf	AutoFox_INA226_GetBusVoltage_V@this
  2159     0675  3000               	movlw	high main@ina226
  2160     0676  00B6               	movwf	AutoFox_INA226_GetBusVoltage_V@this+1
  2161     0677  120A  158A  244A  120A  118A  	fcall	_AutoFox_INA226_GetBusVoltage_V
  2162     067C  1283               	bcf	3,5	;RP0=0, select bank0
  2163     067D  1303               	bcf	3,6	;RP1=0, select bank0
  2164     067E  0836               	movf	?_AutoFox_INA226_GetBusVoltage_V+1,w
  2165     067F  1683               	bsf	3,5	;RP0=1, select bank1
  2166     0680  1303               	bcf	3,6	;RP1=0, select bank1
  2167     0681  00C1               	movwf	(main@voltage_bus_24V+1)^(0+128)
  2168     0682  1283               	bcf	3,5	;RP0=0, select bank0
  2169     0683  1303               	bcf	3,6	;RP1=0, select bank0
  2170     0684  0835               	movf	?_AutoFox_INA226_GetBusVoltage_V,w
  2171     0685  1683               	bsf	3,5	;RP0=1, select bank1
  2172     0686  1303               	bcf	3,6	;RP1=0, select bank1
  2173     0687  00C0               	movwf	main@voltage_bus_24V^(0+128)
  2174     0688                     l3485:
  2175                           
  2176                           ;main.c: 66:                 voltage_batt_12V_low = read_voltage();
  2177     0688  120A  118A  23BF  120A  118A  	fcall	_read_voltage
  2178     068D  1283               	bcf	3,5	;RP0=0, select bank0
  2179     068E  1303               	bcf	3,6	;RP1=0, select bank0
  2180     068F  0836               	movf	?_read_voltage+1,w
  2181     0690  1683               	bsf	3,5	;RP0=1, select bank1
  2182     0691  1303               	bcf	3,6	;RP1=0, select bank1
  2183     0692  00C5               	movwf	(main@voltage_batt_12V_low+1)^(0+128)
  2184     0693  1283               	bcf	3,5	;RP0=0, select bank0
  2185     0694  1303               	bcf	3,6	;RP1=0, select bank0
  2186     0695  0835               	movf	?_read_voltage,w
  2187     0696  1683               	bsf	3,5	;RP0=1, select bank1
  2188     0697  1303               	bcf	3,6	;RP1=0, select bank1
  2189     0698  00C4               	movwf	main@voltage_batt_12V_low^(0+128)
  2190     0699                     l3487:
  2191                           
  2192                           ;main.c: 67:                 voltage_batt_12V_high = voltage_bus_24V - voltage_batt_12V_
      +                          low;
  2193     0699  0844               	movf	main@voltage_batt_12V_low^(0+128),w
  2194     069A  0240               	subwf	main@voltage_bus_24V^(0+128),w
  2195     069B  00C2               	movwf	main@voltage_batt_12V_high^(0+128)
  2196     069C  0845               	movf	(main@voltage_batt_12V_low+1)^(0+128),w
  2197     069D  1C03               	skipc
  2198     069E  0A45               	incf	(main@voltage_batt_12V_low+1)^(0+128),w
  2199     069F  0241               	subwf	(main@voltage_bus_24V+1)^(0+128),w
  2200     06A0  00C3               	movwf	(main@voltage_batt_12V_high+1)^(0+128)
  2201     06A1                     l3489:
  2202                           
  2203                           ;main.c: 69:                  printf("24V:%u \r\n", voltage_batt_12V_high);
  2204     06A1  300E               	movlw	low (STR_1| (0+32768))
  2205     06A2  1283               	bcf	3,5	;RP0=0, select bank0
  2206     06A3  1303               	bcf	3,6	;RP1=0, select bank0
  2207     06A4  00B9               	movwf	printf@fmt
  2208     06A5  3089               	movlw	high (STR_1| (0+32768))
  2209     06A6  00BA               	movwf	printf@fmt+1
  2210     06A7  1683               	bsf	3,5	;RP0=1, select bank1
  2211     06A8  1303               	bcf	3,6	;RP1=0, select bank1
  2212     06A9  0843               	movf	(main@voltage_batt_12V_high+1)^(0+128),w
  2213     06AA  1283               	bcf	3,5	;RP0=0, select bank0
  2214     06AB  1303               	bcf	3,6	;RP1=0, select bank0
  2215     06AC  00BC               	movwf	?_printf+3
  2216     06AD  1683               	bsf	3,5	;RP0=1, select bank1
  2217     06AE  1303               	bcf	3,6	;RP1=0, select bank1
  2218     06AF  0842               	movf	main@voltage_batt_12V_high^(0+128),w
  2219     06B0  1283               	bcf	3,5	;RP0=0, select bank0
  2220     06B1  1303               	bcf	3,6	;RP1=0, select bank0
  2221     06B2  00BB               	movwf	?_printf+2
  2222     06B3  120A  158A  221D  120A  118A  	fcall	_printf
  2223     06B8                     l3491:
  2224                           
  2225                           ;main.c: 70:                  printf("12V:%u \r\n", voltage_batt_12V_low);
  2226     06B8  3004               	movlw	low (STR_2| (0+32768))
  2227     06B9  1283               	bcf	3,5	;RP0=0, select bank0
  2228     06BA  1303               	bcf	3,6	;RP1=0, select bank0
  2229     06BB  00B9               	movwf	printf@fmt
  2230     06BC  3089               	movlw	high (STR_2| (0+32768))
  2231     06BD  00BA               	movwf	printf@fmt+1
  2232     06BE  1683               	bsf	3,5	;RP0=1, select bank1
  2233     06BF  1303               	bcf	3,6	;RP1=0, select bank1
  2234     06C0  0845               	movf	(main@voltage_batt_12V_low+1)^(0+128),w
  2235     06C1  1283               	bcf	3,5	;RP0=0, select bank0
  2236     06C2  1303               	bcf	3,6	;RP1=0, select bank0
  2237     06C3  00BC               	movwf	?_printf+3
  2238     06C4  1683               	bsf	3,5	;RP0=1, select bank1
  2239     06C5  1303               	bcf	3,6	;RP1=0, select bank1
  2240     06C6  0844               	movf	main@voltage_batt_12V_low^(0+128),w
  2241     06C7  1283               	bcf	3,5	;RP0=0, select bank0
  2242     06C8  1303               	bcf	3,6	;RP1=0, select bank0
  2243     06C9  00BB               	movwf	?_printf+2
  2244     06CA  120A  158A  221D  120A  118A  	fcall	_printf
  2245     06CF                     l3493:
  2246                           
  2247                           ;main.c: 71:                  printf("BUS:%u \r\n\r\n", voltage_bus_24V);
  2248     06CF  30F8               	movlw	low (STR_3| (0+32768))
  2249     06D0  1283               	bcf	3,5	;RP0=0, select bank0
  2250     06D1  1303               	bcf	3,6	;RP1=0, select bank0
  2251     06D2  00B9               	movwf	printf@fmt
  2252     06D3  3088               	movlw	high (STR_3| (0+32768))
  2253     06D4  00BA               	movwf	printf@fmt+1
  2254     06D5  1683               	bsf	3,5	;RP0=1, select bank1
  2255     06D6  1303               	bcf	3,6	;RP1=0, select bank1
  2256     06D7  0841               	movf	(main@voltage_bus_24V+1)^(0+128),w
  2257     06D8  1283               	bcf	3,5	;RP0=0, select bank0
  2258     06D9  1303               	bcf	3,6	;RP1=0, select bank0
  2259     06DA  00BC               	movwf	?_printf+3
  2260     06DB  1683               	bsf	3,5	;RP0=1, select bank1
  2261     06DC  1303               	bcf	3,6	;RP1=0, select bank1
  2262     06DD  0840               	movf	main@voltage_bus_24V^(0+128),w
  2263     06DE  1283               	bcf	3,5	;RP0=0, select bank0
  2264     06DF  1303               	bcf	3,6	;RP1=0, select bank0
  2265     06E0  00BB               	movwf	?_printf+2
  2266     06E1  120A  158A  221D  120A  118A  	fcall	_printf
  2267     06E6                     l3495:
  2268                           
  2269                           ;main.c: 74:                 if (voltage_batt_12V_low < (voltage_batt_12V_high + 5))
  2270     06E6  1683               	bsf	3,5	;RP0=1, select bank1
  2271     06E7  1303               	bcf	3,6	;RP1=0, select bank1
  2272     06E8  0842               	movf	main@voltage_batt_12V_high^(0+128),w
  2273     06E9  3E05               	addlw	5
  2274     06EA  1283               	bcf	3,5	;RP0=0, select bank0
  2275     06EB  1303               	bcf	3,6	;RP1=0, select bank0
  2276     06EC  00E3               	movwf	??_main
  2277     06ED  1683               	bsf	3,5	;RP0=1, select bank1
  2278     06EE  1303               	bcf	3,6	;RP1=0, select bank1
  2279     06EF  0843               	movf	(main@voltage_batt_12V_high+1)^(0+128),w
  2280     06F0  1803               	skipnc
  2281     06F1  3E01               	addlw	1
  2282     06F2  3E00               	addlw	0
  2283     06F3  1283               	bcf	3,5	;RP0=0, select bank0
  2284     06F4  1303               	bcf	3,6	;RP1=0, select bank0
  2285     06F5  00E4               	movwf	??_main+1
  2286     06F6  0864               	movf	??_main+1,w
  2287     06F7  1683               	bsf	3,5	;RP0=1, select bank1
  2288     06F8  1303               	bcf	3,6	;RP1=0, select bank1
  2289     06F9  0245               	subwf	(main@voltage_batt_12V_low+1)^(0+128),w
  2290     06FA  1D03               	skipz
  2291     06FB  2F02               	goto	u2665
  2292     06FC  1283               	bcf	3,5	;RP0=0, select bank0
  2293     06FD  1303               	bcf	3,6	;RP1=0, select bank0
  2294     06FE  0863               	movf	??_main,w
  2295     06FF  1683               	bsf	3,5	;RP0=1, select bank1
  2296     0700  1303               	bcf	3,6	;RP1=0, select bank1
  2297     0701  0244               	subwf	main@voltage_batt_12V_low^(0+128),w
  2298     0702                     u2665:
  2299     0702  1803               	skipnc
  2300     0703  2F05               	goto	u2661
  2301     0704  2F06               	goto	u2660
  2302     0705                     u2661:
  2303     0705  2E50               	goto	l43
  2304     0706                     u2660:
  2305     0706                     l3497:
  2306                           
  2307                           ;main.c: 75:                 {;main.c: 76:                      PORTBbits.RB4=1;
  2308     0706  1283               	bcf	3,5	;RP0=0, select bank0
  2309     0707  1303               	bcf	3,6	;RP1=0, select bank0
  2310     0708  1606               	bsf	6,4	;volatile
  2311     0709                     l3499:	
  2312                           ;main.c: 77:                     break;
  2313                           
  2314                           
  2315                           ;main.c: 82:         if (voltage_batt_12V_high > (voltage_batt_12V_low + 5))
  2316     0709  1683               	bsf	3,5	;RP0=1, select bank1
  2317     070A  1303               	bcf	3,6	;RP1=0, select bank1
  2318     070B  0844               	movf	main@voltage_batt_12V_low^(0+128),w
  2319     070C  3E05               	addlw	5
  2320     070D  1283               	bcf	3,5	;RP0=0, select bank0
  2321     070E  1303               	bcf	3,6	;RP1=0, select bank0
  2322     070F  00E3               	movwf	??_main
  2323     0710  1683               	bsf	3,5	;RP0=1, select bank1
  2324     0711  1303               	bcf	3,6	;RP1=0, select bank1
  2325     0712  0845               	movf	(main@voltage_batt_12V_low+1)^(0+128),w
  2326     0713  1803               	skipnc
  2327     0714  3E01               	addlw	1
  2328     0715  3E00               	addlw	0
  2329     0716  1283               	bcf	3,5	;RP0=0, select bank0
  2330     0717  1303               	bcf	3,6	;RP1=0, select bank0
  2331     0718  00E4               	movwf	??_main+1
  2332     0719  1683               	bsf	3,5	;RP0=1, select bank1
  2333     071A  1303               	bcf	3,6	;RP1=0, select bank1
  2334     071B  0843               	movf	(main@voltage_batt_12V_high+1)^(0+128),w
  2335     071C  1283               	bcf	3,5	;RP0=0, select bank0
  2336     071D  1303               	bcf	3,6	;RP1=0, select bank0
  2337     071E  0264               	subwf	??_main+1,w
  2338     071F  1D03               	skipz
  2339     0720  2F27               	goto	u2675
  2340     0721  1683               	bsf	3,5	;RP0=1, select bank1
  2341     0722  1303               	bcf	3,6	;RP1=0, select bank1
  2342     0723  0842               	movf	main@voltage_batt_12V_high^(0+128),w
  2343     0724  1283               	bcf	3,5	;RP0=0, select bank0
  2344     0725  1303               	bcf	3,6	;RP1=0, select bank0
  2345     0726  0263               	subwf	??_main,w
  2346     0727                     u2675:
  2347     0727  1803               	skipnc
  2348     0728  2F2A               	goto	u2671
  2349     0729  2F2B               	goto	u2670
  2350     072A                     u2671:
  2351     072A  2DB9               	goto	l3465
  2352     072B                     u2670:
  2353     072B                     l48:	
  2354                           ;main.c: 83:         {;main.c: 84:             while (1)
  2355                           
  2356                           
  2357                           ;main.c: 85:             {;main.c: 86:                 PORTBbits.RB5=0;
  2358     072B  1283               	bcf	3,5	;RP0=0, select bank0
  2359     072C  1286               	bcf	6,5	;volatile
  2360     072D                     l3501:
  2361                           
  2362                           ;main.c: 88:                 _delay((unsigned long)((1000)*(8000000/4000.0)));
  2363     072D  300B               	movlw	11
  2364     072E  1283               	bcf	3,5	;RP0=0, select bank0
  2365     072F  1303               	bcf	3,6	;RP1=0, select bank0
  2366     0730  00E5               	movwf	??_main+2
  2367     0731  3026               	movlw	38
  2368     0732  00E4               	movwf	??_main+1
  2369     0733  305D               	movlw	93
  2370     0734  00E3               	movwf	??_main
  2371     0735                     u2847:
  2372     0735  0BE3               	decfsz	??_main,f
  2373     0736  2F35               	goto	u2847
  2374     0737  0BE4               	decfsz	??_main+1,f
  2375     0738  2F35               	goto	u2847
  2376     0739  0BE5               	decfsz	??_main+2,f
  2377     073A  2F35               	goto	u2847
  2378     073B                     l3503:
  2379                           
  2380                           ;main.c: 89:                  PORTBbits.RB5=1;
  2381     073B  1283               	bcf	3,5	;RP0=0, select bank0
  2382     073C  1303               	bcf	3,6	;RP1=0, select bank0
  2383     073D  1686               	bsf	6,5	;volatile
  2384                           
  2385                           ;main.c: 90:                  _delay((unsigned long)((5000)*(8000000/4000.0)));
  2386     073E  3033               	movlw	51
  2387     073F  1283               	bcf	3,5	;RP0=0, select bank0
  2388     0740  1303               	bcf	3,6	;RP1=0, select bank0
  2389     0741  00E5               	movwf	??_main+2
  2390     0742  30BB               	movlw	187
  2391     0743  00E4               	movwf	??_main+1
  2392     0744  30DF               	movlw	223
  2393     0745  00E3               	movwf	??_main
  2394     0746                     u2857:
  2395     0746  0BE3               	decfsz	??_main,f
  2396     0747  2F46               	goto	u2857
  2397     0748  0BE4               	decfsz	??_main+1,f
  2398     0749  2F46               	goto	u2857
  2399     074A  0BE5               	decfsz	??_main+2,f
  2400     074B  2F46               	goto	u2857
  2401     074C                     l3505:
  2402                           
  2403                           ;main.c: 92:                 voltage_bus_24V = AutoFox_INA226_GetBusVoltage_V(&ina226);
  2404     074C  30C6               	movlw	low main@ina226
  2405     074D  1283               	bcf	3,5	;RP0=0, select bank0
  2406     074E  1303               	bcf	3,6	;RP1=0, select bank0
  2407     074F  00B5               	movwf	AutoFox_INA226_GetBusVoltage_V@this
  2408     0750  3000               	movlw	high main@ina226
  2409     0751  00B6               	movwf	AutoFox_INA226_GetBusVoltage_V@this+1
  2410     0752  120A  158A  244A  120A  118A  	fcall	_AutoFox_INA226_GetBusVoltage_V
  2411     0757  1283               	bcf	3,5	;RP0=0, select bank0
  2412     0758  1303               	bcf	3,6	;RP1=0, select bank0
  2413     0759  0836               	movf	?_AutoFox_INA226_GetBusVoltage_V+1,w
  2414     075A  1683               	bsf	3,5	;RP0=1, select bank1
  2415     075B  1303               	bcf	3,6	;RP1=0, select bank1
  2416     075C  00C1               	movwf	(main@voltage_bus_24V+1)^(0+128)
  2417     075D  1283               	bcf	3,5	;RP0=0, select bank0
  2418     075E  1303               	bcf	3,6	;RP1=0, select bank0
  2419     075F  0835               	movf	?_AutoFox_INA226_GetBusVoltage_V,w
  2420     0760  1683               	bsf	3,5	;RP0=1, select bank1
  2421     0761  1303               	bcf	3,6	;RP1=0, select bank1
  2422     0762  00C0               	movwf	main@voltage_bus_24V^(0+128)
  2423     0763                     l3507:
  2424                           
  2425                           ;main.c: 93:                 voltage_batt_12V_low = read_voltage();
  2426     0763  120A  118A  23BF  120A  118A  	fcall	_read_voltage
  2427     0768  1283               	bcf	3,5	;RP0=0, select bank0
  2428     0769  1303               	bcf	3,6	;RP1=0, select bank0
  2429     076A  0836               	movf	?_read_voltage+1,w
  2430     076B  1683               	bsf	3,5	;RP0=1, select bank1
  2431     076C  1303               	bcf	3,6	;RP1=0, select bank1
  2432     076D  00C5               	movwf	(main@voltage_batt_12V_low+1)^(0+128)
  2433     076E  1283               	bcf	3,5	;RP0=0, select bank0
  2434     076F  1303               	bcf	3,6	;RP1=0, select bank0
  2435     0770  0835               	movf	?_read_voltage,w
  2436     0771  1683               	bsf	3,5	;RP0=1, select bank1
  2437     0772  1303               	bcf	3,6	;RP1=0, select bank1
  2438     0773  00C4               	movwf	main@voltage_batt_12V_low^(0+128)
  2439     0774                     l3509:
  2440                           
  2441                           ;main.c: 94:                 voltage_batt_12V_high = voltage_bus_24V - voltage_batt_12V_
      +                          low;
  2442     0774  0844               	movf	main@voltage_batt_12V_low^(0+128),w
  2443     0775  0240               	subwf	main@voltage_bus_24V^(0+128),w
  2444     0776  00C2               	movwf	main@voltage_batt_12V_high^(0+128)
  2445     0777  0845               	movf	(main@voltage_batt_12V_low+1)^(0+128),w
  2446     0778  1C03               	skipc
  2447     0779  0A45               	incf	(main@voltage_batt_12V_low+1)^(0+128),w
  2448     077A  0241               	subwf	(main@voltage_bus_24V+1)^(0+128),w
  2449     077B  00C3               	movwf	(main@voltage_batt_12V_high+1)^(0+128)
  2450     077C                     l3511:
  2451                           
  2452                           ;main.c: 96:                  printf("24V:%u \r\n", voltage_batt_12V_high);
  2453     077C  300E               	movlw	low (STR_1| (0+32768))
  2454     077D  1283               	bcf	3,5	;RP0=0, select bank0
  2455     077E  1303               	bcf	3,6	;RP1=0, select bank0
  2456     077F  00B9               	movwf	printf@fmt
  2457     0780  3089               	movlw	high (STR_1| (0+32768))
  2458     0781  00BA               	movwf	printf@fmt+1
  2459     0782  1683               	bsf	3,5	;RP0=1, select bank1
  2460     0783  1303               	bcf	3,6	;RP1=0, select bank1
  2461     0784  0843               	movf	(main@voltage_batt_12V_high+1)^(0+128),w
  2462     0785  1283               	bcf	3,5	;RP0=0, select bank0
  2463     0786  1303               	bcf	3,6	;RP1=0, select bank0
  2464     0787  00BC               	movwf	?_printf+3
  2465     0788  1683               	bsf	3,5	;RP0=1, select bank1
  2466     0789  1303               	bcf	3,6	;RP1=0, select bank1
  2467     078A  0842               	movf	main@voltage_batt_12V_high^(0+128),w
  2468     078B  1283               	bcf	3,5	;RP0=0, select bank0
  2469     078C  1303               	bcf	3,6	;RP1=0, select bank0
  2470     078D  00BB               	movwf	?_printf+2
  2471     078E  120A  158A  221D  120A  118A  	fcall	_printf
  2472     0793                     l3513:
  2473                           
  2474                           ;main.c: 97:                  printf("12V:%u \r\n", voltage_batt_12V_low);
  2475     0793  3004               	movlw	low (STR_2| (0+32768))
  2476     0794  1283               	bcf	3,5	;RP0=0, select bank0
  2477     0795  1303               	bcf	3,6	;RP1=0, select bank0
  2478     0796  00B9               	movwf	printf@fmt
  2479     0797  3089               	movlw	high (STR_2| (0+32768))
  2480     0798  00BA               	movwf	printf@fmt+1
  2481     0799  1683               	bsf	3,5	;RP0=1, select bank1
  2482     079A  1303               	bcf	3,6	;RP1=0, select bank1
  2483     079B  0845               	movf	(main@voltage_batt_12V_low+1)^(0+128),w
  2484     079C  1283               	bcf	3,5	;RP0=0, select bank0
  2485     079D  1303               	bcf	3,6	;RP1=0, select bank0
  2486     079E  00BC               	movwf	?_printf+3
  2487     079F  1683               	bsf	3,5	;RP0=1, select bank1
  2488     07A0  1303               	bcf	3,6	;RP1=0, select bank1
  2489     07A1  0844               	movf	main@voltage_batt_12V_low^(0+128),w
  2490     07A2  1283               	bcf	3,5	;RP0=0, select bank0
  2491     07A3  1303               	bcf	3,6	;RP1=0, select bank0
  2492     07A4  00BB               	movwf	?_printf+2
  2493     07A5  120A  158A  221D  120A  118A  	fcall	_printf
  2494     07AA                     l3515:
  2495                           
  2496                           ;main.c: 98:                  printf("BUS:%u \r\n\r\n", voltage_bus_24V);
  2497     07AA  30F8               	movlw	low (STR_3| (0+32768))
  2498     07AB  1283               	bcf	3,5	;RP0=0, select bank0
  2499     07AC  1303               	bcf	3,6	;RP1=0, select bank0
  2500     07AD  00B9               	movwf	printf@fmt
  2501     07AE  3088               	movlw	high (STR_3| (0+32768))
  2502     07AF  00BA               	movwf	printf@fmt+1
  2503     07B0  1683               	bsf	3,5	;RP0=1, select bank1
  2504     07B1  1303               	bcf	3,6	;RP1=0, select bank1
  2505     07B2  0841               	movf	(main@voltage_bus_24V+1)^(0+128),w
  2506     07B3  1283               	bcf	3,5	;RP0=0, select bank0
  2507     07B4  1303               	bcf	3,6	;RP1=0, select bank0
  2508     07B5  00BC               	movwf	?_printf+3
  2509     07B6  1683               	bsf	3,5	;RP0=1, select bank1
  2510     07B7  1303               	bcf	3,6	;RP1=0, select bank1
  2511     07B8  0840               	movf	main@voltage_bus_24V^(0+128),w
  2512     07B9  1283               	bcf	3,5	;RP0=0, select bank0
  2513     07BA  1303               	bcf	3,6	;RP1=0, select bank0
  2514     07BB  00BB               	movwf	?_printf+2
  2515     07BC  120A  158A  221D  120A  118A  	fcall	_printf
  2516     07C1                     l3517:
  2517                           
  2518                           ;main.c: 101:                 if (voltage_batt_12V_high < (voltage_batt_12V_low + 5))
  2519     07C1  1683               	bsf	3,5	;RP0=1, select bank1
  2520     07C2  1303               	bcf	3,6	;RP1=0, select bank1
  2521     07C3  0844               	movf	main@voltage_batt_12V_low^(0+128),w
  2522     07C4  3E05               	addlw	5
  2523     07C5  1283               	bcf	3,5	;RP0=0, select bank0
  2524     07C6  1303               	bcf	3,6	;RP1=0, select bank0
  2525     07C7  00E3               	movwf	??_main
  2526     07C8  1683               	bsf	3,5	;RP0=1, select bank1
  2527     07C9  1303               	bcf	3,6	;RP1=0, select bank1
  2528     07CA  0845               	movf	(main@voltage_batt_12V_low+1)^(0+128),w
  2529     07CB  1803               	skipnc
  2530     07CC  3E01               	addlw	1
  2531     07CD  3E00               	addlw	0
  2532     07CE  1283               	bcf	3,5	;RP0=0, select bank0
  2533     07CF  1303               	bcf	3,6	;RP1=0, select bank0
  2534     07D0  00E4               	movwf	??_main+1
  2535     07D1  0864               	movf	??_main+1,w
  2536     07D2  1683               	bsf	3,5	;RP0=1, select bank1
  2537     07D3  1303               	bcf	3,6	;RP1=0, select bank1
  2538     07D4  0243               	subwf	(main@voltage_batt_12V_high+1)^(0+128),w
  2539     07D5  1D03               	skipz
  2540     07D6  2FDD               	goto	u2685
  2541     07D7  1283               	bcf	3,5	;RP0=0, select bank0
  2542     07D8  1303               	bcf	3,6	;RP1=0, select bank0
  2543     07D9  0863               	movf	??_main,w
  2544     07DA  1683               	bsf	3,5	;RP0=1, select bank1
  2545     07DB  1303               	bcf	3,6	;RP1=0, select bank1
  2546     07DC  0242               	subwf	main@voltage_batt_12V_high^(0+128),w
  2547     07DD                     u2685:
  2548     07DD  1803               	skipnc
  2549     07DE  2FE0               	goto	u2681
  2550     07DF  2FE1               	goto	u2680
  2551     07E0                     u2681:
  2552     07E0  2F2B               	goto	l48
  2553     07E1                     u2680:
  2554     07E1                     l3519:
  2555                           
  2556                           ;main.c: 102:                 {;main.c: 103:                      PORTBbits.RB4=1;
  2557     07E1  1283               	bcf	3,5	;RP0=0, select bank0
  2558     07E2  1303               	bcf	3,6	;RP1=0, select bank0
  2559     07E3  1606               	bsf	6,4	;volatile
  2560                           
  2561                           ;main.c: 104:                     break;
  2562     07E4  2DB9               	goto	l3465
  2563     07E5  120A  118A  280C   	ljmp	start
  2564     07E8                     __end_of_main:
  2565                           
  2566                           	psect	text1
  2567     03BF                     __ptext1:	
  2568 ;; *************** function _read_voltage *****************
  2569 ;; Defined at:
  2570 ;;		line 55 in file "adc.c"
  2571 ;; Parameters:    Size  Location     Type
  2572 ;;		None
  2573 ;; Auto vars:     Size  Location     Type
  2574 ;;  i               1   37[BANK0 ] unsigned char 
  2575 ;;  average         4   42[BANK0 ] unsigned long 
  2576 ;;  R1              4   38[BANK0 ] unsigned long 
  2577 ;;  sum             4   33[BANK0 ] unsigned long 
  2578 ;;  R2              4   27[BANK0 ] unsigned long 
  2579 ;;  sample          2   31[BANK0 ] unsigned short 
  2580 ;; Return value:  Size  Location     Type
  2581 ;;                  2   21[BANK0 ] unsigned int 
  2582 ;; Registers used:
  2583 ;;		wreg, status,2, status,0, pclath, cstack
  2584 ;; Tracked objects:
  2585 ;;		On entry : 0/0
  2586 ;;		On exit  : 0/0
  2587 ;;		Unchanged: 0/0
  2588 ;; Data sizes:     COMMON   BANK0   BANK1   BANK3   BANK2
  2589 ;;      Params:         0       2       0       0       0
  2590 ;;      Locals:         0      19       0       0       0
  2591 ;;      Temps:          0       4       0       0       0
  2592 ;;      Totals:         0      25       0       0       0
  2593 ;;Total ram usage:       25 bytes
  2594 ;; Hardware stack levels used: 1
  2595 ;; Hardware stack levels required when called: 2
  2596 ;; This function calls:
  2597 ;;		_ADC_Read_ADC_Result
  2598 ;;		___lldiv
  2599 ;;		___lmul
  2600 ;; This function is called by:
  2601 ;;		_main
  2602 ;; This function uses a non-reentrant model
  2603 ;;
  2604                           
  2605     03BF                     _read_voltage:	
  2606                           ;psect for function _read_voltage
  2607                           
  2608     03BF                     l3405:	
  2609                           ;incstack = 0
  2610                           ; Regs used in _read_voltage: [wreg+status,2+status,0+pclath+cstack]
  2611                           
  2612                           
  2613                           ;adc.c: 57:     uint32_t sum = 0;
  2614     03BF  3000               	movlw	0
  2615     03C0  1283               	bcf	3,5	;RP0=0, select bank0
  2616     03C1  1303               	bcf	3,6	;RP1=0, select bank0
  2617     03C2  00C4               	movwf	read_voltage@sum+3
  2618     03C3  3000               	movlw	0
  2619     03C4  00C3               	movwf	read_voltage@sum+2
  2620     03C5  3000               	movlw	0
  2621     03C6  00C2               	movwf	read_voltage@sum+1
  2622     03C7  3000               	movlw	0
  2623     03C8  00C1               	movwf	read_voltage@sum
  2624                           
  2625                           ;adc.c: 58:     uint16_t sample;;adc.c: 60:     uint32_t R1 = 6860;
  2626     03C9  3000               	movlw	0
  2627     03CA  00C9               	movwf	read_voltage@R1+3
  2628     03CB  3000               	movlw	0
  2629     03CC  00C8               	movwf	read_voltage@R1+2
  2630     03CD  301A               	movlw	26
  2631     03CE  00C7               	movwf	read_voltage@R1+1
  2632     03CF  30CC               	movlw	204
  2633     03D0  00C6               	movwf	read_voltage@R1
  2634                           
  2635                           ;adc.c: 61:     uint32_t R2 = 1000;
  2636     03D1  3000               	movlw	0
  2637     03D2  00BE               	movwf	read_voltage@R2+3
  2638     03D3  3000               	movlw	0
  2639     03D4  00BD               	movwf	read_voltage@R2+2
  2640     03D5  3003               	movlw	3
  2641     03D6  00BC               	movwf	read_voltage@R2+1
  2642     03D7  30E8               	movlw	232
  2643     03D8  00BB               	movwf	read_voltage@R2
  2644     03D9                     l3407:
  2645                           
  2646                           ;adc.c: 64:     const unsigned long vref = 2500;;adc.c: 66:     const uint8_t num_sample
      +                          s = 50;;adc.c: 68:     for (uint8_t i = 0; i < num_samples; i++)
  2647     03D9  01C5               	clrf	read_voltage@i
  2648     03DA                     l3413:
  2649                           
  2650                           ;adc.c: 69:     {;adc.c: 70:         sample = ADC_Read_ADC_Result();
  2651     03DA  120A  158A  222E  120A  118A  	fcall	_ADC_Read_ADC_Result
  2652     03DF  0874               	movf	?_ADC_Read_ADC_Result+1,w
  2653     03E0  1283               	bcf	3,5	;RP0=0, select bank0
  2654     03E1  1303               	bcf	3,6	;RP1=0, select bank0
  2655     03E2  00C0               	movwf	read_voltage@sample+1
  2656     03E3  0873               	movf	?_ADC_Read_ADC_Result,w
  2657     03E4  00BF               	movwf	read_voltage@sample
  2658     03E5                     l3415:
  2659                           
  2660                           ;adc.c: 71:         sum += sample;
  2661     03E5  083F               	movf	read_voltage@sample,w
  2662     03E6  00B7               	movwf	??_read_voltage
  2663     03E7  0840               	movf	read_voltage@sample+1,w
  2664     03E8  00B8               	movwf	??_read_voltage+1
  2665     03E9  01B9               	clrf	??_read_voltage+2
  2666     03EA  01BA               	clrf	??_read_voltage+3
  2667     03EB  0837               	movf	??_read_voltage,w
  2668     03EC  07C1               	addwf	read_voltage@sum,f
  2669     03ED  0838               	movf	??_read_voltage+1,w
  2670     03EE  1103               	clrz
  2671     03EF  1803               	skipnc
  2672     03F0  3E01               	addlw	1
  2673     03F1  1903               	skipnz
  2674     03F2  2BF4               	goto	u2621
  2675     03F3  07C2               	addwf	read_voltage@sum+1,f
  2676     03F4                     u2621:
  2677     03F4  0839               	movf	??_read_voltage+2,w
  2678     03F5  1103               	clrz
  2679     03F6  1803               	skipnc
  2680     03F7  3E01               	addlw	1
  2681     03F8  1903               	skipnz
  2682     03F9  2BFB               	goto	u2622
  2683     03FA  07C3               	addwf	read_voltage@sum+2,f
  2684     03FB                     u2622:
  2685     03FB  083A               	movf	??_read_voltage+3,w
  2686     03FC  1103               	clrz
  2687     03FD  1803               	skipnc
  2688     03FE  3E01               	addlw	1
  2689     03FF  1903               	skipnz
  2690     0400  2C02               	goto	u2623
  2691     0401  07C4               	addwf	read_voltage@sum+3,f
  2692     0402                     u2623:
  2693     0402                     l3417:
  2694                           
  2695                           ;adc.c: 73:         _delay((unsigned long)((1)*(8000000/4000.0)));
  2696     0402  3003               	movlw	3
  2697     0403  1283               	bcf	3,5	;RP0=0, select bank0
  2698     0404  1303               	bcf	3,6	;RP1=0, select bank0
  2699     0405  00B8               	movwf	??_read_voltage+1
  2700     0406  3097               	movlw	151
  2701     0407  00B7               	movwf	??_read_voltage
  2702     0408                     u2867:
  2703     0408  0BB7               	decfsz	??_read_voltage,f
  2704     0409  2C08               	goto	u2867
  2705     040A  0BB8               	decfsz	??_read_voltage+1,f
  2706     040B  2C08               	goto	u2867
  2707     040C                     l3419:
  2708                           
  2709                           ;adc.c: 74:     }
  2710     040C  3001               	movlw	1
  2711     040D  1283               	bcf	3,5	;RP0=0, select bank0
  2712     040E  1303               	bcf	3,6	;RP1=0, select bank0
  2713     040F  07C5               	addwf	read_voltage@i,f
  2714     0410                     l3421:
  2715     0410  3032               	movlw	50
  2716     0411  0245               	subwf	read_voltage@i,w
  2717     0412  1C03               	skipc
  2718     0413  2C15               	goto	u2631
  2719     0414  2C16               	goto	u2630
  2720     0415                     u2631:
  2721     0415  2BDA               	goto	l3413
  2722     0416                     u2630:
  2723     0416                     l3423:
  2724                           
  2725                           ;adc.c: 76:     uint32_t average = (uint16_t) (sum / num_samples);
  2726     0416  3000               	movlw	0
  2727     0417  00AB               	movwf	___lldiv@divisor+3
  2728     0418  3000               	movlw	0
  2729     0419  00AA               	movwf	___lldiv@divisor+2
  2730     041A  3000               	movlw	0
  2731     041B  00A9               	movwf	___lldiv@divisor+1
  2732     041C  3032               	movlw	50
  2733     041D  00A8               	movwf	___lldiv@divisor
  2734     041E  0844               	movf	read_voltage@sum+3,w
  2735     041F  00AF               	movwf	___lldiv@dividend+3
  2736     0420  0843               	movf	read_voltage@sum+2,w
  2737     0421  00AE               	movwf	___lldiv@dividend+2
  2738     0422  0842               	movf	read_voltage@sum+1,w
  2739     0423  00AD               	movwf	___lldiv@dividend+1
  2740     0424  0841               	movf	read_voltage@sum,w
  2741     0425  00AC               	movwf	___lldiv@dividend
  2742     0426  120A  118A  2014  120A  118A  	fcall	___lldiv
  2743     042B  1283               	bcf	3,5	;RP0=0, select bank0
  2744     042C  1303               	bcf	3,6	;RP1=0, select bank0
  2745     042D  0828               	movf	?___lldiv,w
  2746     042E  00CA               	movwf	read_voltage@average
  2747     042F  0829               	movf	?___lldiv+1,w
  2748     0430  00CB               	movwf	read_voltage@average+1
  2749     0431  01CC               	clrf	read_voltage@average+2
  2750     0432  01CD               	clrf	read_voltage@average+3
  2751                           
  2752                           ;adc.c: 78:     average = average * 10000;
  2753     0433  084D               	movf	read_voltage@average+3,w
  2754     0434  00A3               	movwf	___lmul@multiplier+3
  2755     0435  084C               	movf	read_voltage@average+2,w
  2756     0436  00A2               	movwf	___lmul@multiplier+2
  2757     0437  084B               	movf	read_voltage@average+1,w
  2758     0438  00A1               	movwf	___lmul@multiplier+1
  2759     0439  084A               	movf	read_voltage@average,w
  2760     043A  00A0               	movwf	___lmul@multiplier
  2761     043B  3000               	movlw	0
  2762     043C  00A7               	movwf	___lmul@multiplicand+3
  2763     043D  3000               	movlw	0
  2764     043E  00A6               	movwf	___lmul@multiplicand+2
  2765     043F  3027               	movlw	39
  2766     0440  00A5               	movwf	___lmul@multiplicand+1
  2767     0441  3010               	movlw	16
  2768     0442  00A4               	movwf	___lmul@multiplicand
  2769     0443  120A  158A  2402  120A  118A  	fcall	___lmul
  2770     0448  1283               	bcf	3,5	;RP0=0, select bank0
  2771     0449  1303               	bcf	3,6	;RP1=0, select bank0
  2772     044A  0823               	movf	?___lmul+3,w
  2773     044B  00CD               	movwf	read_voltage@average+3
  2774     044C  0822               	movf	?___lmul+2,w
  2775     044D  00CC               	movwf	read_voltage@average+2
  2776     044E  0821               	movf	?___lmul+1,w
  2777     044F  00CB               	movwf	read_voltage@average+1
  2778     0450  0820               	movf	?___lmul,w
  2779     0451  00CA               	movwf	read_voltage@average
  2780                           
  2781                           ;adc.c: 79:     average = average / 1023;
  2782     0452  3000               	movlw	0
  2783     0453  00AB               	movwf	___lldiv@divisor+3
  2784     0454  3000               	movlw	0
  2785     0455  00AA               	movwf	___lldiv@divisor+2
  2786     0456  3003               	movlw	3
  2787     0457  00A9               	movwf	___lldiv@divisor+1
  2788     0458  30FF               	movlw	255
  2789     0459  00A8               	movwf	___lldiv@divisor
  2790     045A  084D               	movf	read_voltage@average+3,w
  2791     045B  00AF               	movwf	___lldiv@dividend+3
  2792     045C  084C               	movf	read_voltage@average+2,w
  2793     045D  00AE               	movwf	___lldiv@dividend+2
  2794     045E  084B               	movf	read_voltage@average+1,w
  2795     045F  00AD               	movwf	___lldiv@dividend+1
  2796     0460  084A               	movf	read_voltage@average,w
  2797     0461  00AC               	movwf	___lldiv@dividend
  2798     0462  120A  118A  2014  120A  118A  	fcall	___lldiv
  2799     0467  1283               	bcf	3,5	;RP0=0, select bank0
  2800     0468  1303               	bcf	3,6	;RP1=0, select bank0
  2801     0469  082B               	movf	?___lldiv+3,w
  2802     046A  00CD               	movwf	read_voltage@average+3
  2803     046B  082A               	movf	?___lldiv+2,w
  2804     046C  00CC               	movwf	read_voltage@average+2
  2805     046D  0829               	movf	?___lldiv+1,w
  2806     046E  00CB               	movwf	read_voltage@average+1
  2807     046F  0828               	movf	?___lldiv,w
  2808     0470  00CA               	movwf	read_voltage@average
  2809                           
  2810                           ;adc.c: 80:     average = average * vref;
  2811     0471  084D               	movf	read_voltage@average+3,w
  2812     0472  00A3               	movwf	___lmul@multiplier+3
  2813     0473  084C               	movf	read_voltage@average+2,w
  2814     0474  00A2               	movwf	___lmul@multiplier+2
  2815     0475  084B               	movf	read_voltage@average+1,w
  2816     0476  00A1               	movwf	___lmul@multiplier+1
  2817     0477  084A               	movf	read_voltage@average,w
  2818     0478  00A0               	movwf	___lmul@multiplier
  2819     0479  3000               	movlw	0
  2820     047A  00A7               	movwf	___lmul@multiplicand+3
  2821     047B  3000               	movlw	0
  2822     047C  00A6               	movwf	___lmul@multiplicand+2
  2823     047D  3009               	movlw	9
  2824     047E  00A5               	movwf	___lmul@multiplicand+1
  2825     047F  30C4               	movlw	196
  2826     0480  00A4               	movwf	___lmul@multiplicand
  2827     0481  120A  158A  2402  120A  118A  	fcall	___lmul
  2828     0486  1283               	bcf	3,5	;RP0=0, select bank0
  2829     0487  1303               	bcf	3,6	;RP1=0, select bank0
  2830     0488  0823               	movf	?___lmul+3,w
  2831     0489  00CD               	movwf	read_voltage@average+3
  2832     048A  0822               	movf	?___lmul+2,w
  2833     048B  00CC               	movwf	read_voltage@average+2
  2834     048C  0821               	movf	?___lmul+1,w
  2835     048D  00CB               	movwf	read_voltage@average+1
  2836     048E  0820               	movf	?___lmul,w
  2837     048F  00CA               	movwf	read_voltage@average
  2838                           
  2839                           ;adc.c: 81:     average = average / 10000;
  2840     0490  3000               	movlw	0
  2841     0491  00AB               	movwf	___lldiv@divisor+3
  2842     0492  3000               	movlw	0
  2843     0493  00AA               	movwf	___lldiv@divisor+2
  2844     0494  3027               	movlw	39
  2845     0495  00A9               	movwf	___lldiv@divisor+1
  2846     0496  3010               	movlw	16
  2847     0497  00A8               	movwf	___lldiv@divisor
  2848     0498  084D               	movf	read_voltage@average+3,w
  2849     0499  00AF               	movwf	___lldiv@dividend+3
  2850     049A  084C               	movf	read_voltage@average+2,w
  2851     049B  00AE               	movwf	___lldiv@dividend+2
  2852     049C  084B               	movf	read_voltage@average+1,w
  2853     049D  00AD               	movwf	___lldiv@dividend+1
  2854     049E  084A               	movf	read_voltage@average,w
  2855     049F  00AC               	movwf	___lldiv@dividend
  2856     04A0  120A  118A  2014  120A  118A  	fcall	___lldiv
  2857     04A5  1283               	bcf	3,5	;RP0=0, select bank0
  2858     04A6  1303               	bcf	3,6	;RP1=0, select bank0
  2859     04A7  082B               	movf	?___lldiv+3,w
  2860     04A8  00CD               	movwf	read_voltage@average+3
  2861     04A9  082A               	movf	?___lldiv+2,w
  2862     04AA  00CC               	movwf	read_voltage@average+2
  2863     04AB  0829               	movf	?___lldiv+1,w
  2864     04AC  00CB               	movwf	read_voltage@average+1
  2865     04AD  0828               	movf	?___lldiv,w
  2866     04AE  00CA               	movwf	read_voltage@average
  2867                           
  2868                           ;adc.c: 85:     R1 = R1 * 1000;
  2869     04AF  0849               	movf	read_voltage@R1+3,w
  2870     04B0  00A3               	movwf	___lmul@multiplier+3
  2871     04B1  0848               	movf	read_voltage@R1+2,w
  2872     04B2  00A2               	movwf	___lmul@multiplier+2
  2873     04B3  0847               	movf	read_voltage@R1+1,w
  2874     04B4  00A1               	movwf	___lmul@multiplier+1
  2875     04B5  0846               	movf	read_voltage@R1,w
  2876     04B6  00A0               	movwf	___lmul@multiplier
  2877     04B7  3000               	movlw	0
  2878     04B8  00A7               	movwf	___lmul@multiplicand+3
  2879     04B9  3000               	movlw	0
  2880     04BA  00A6               	movwf	___lmul@multiplicand+2
  2881     04BB  3003               	movlw	3
  2882     04BC  00A5               	movwf	___lmul@multiplicand+1
  2883     04BD  30E8               	movlw	232
  2884     04BE  00A4               	movwf	___lmul@multiplicand
  2885     04BF  120A  158A  2402  120A  118A  	fcall	___lmul
  2886     04C4  1283               	bcf	3,5	;RP0=0, select bank0
  2887     04C5  1303               	bcf	3,6	;RP1=0, select bank0
  2888     04C6  0823               	movf	?___lmul+3,w
  2889     04C7  00C9               	movwf	read_voltage@R1+3
  2890     04C8  0822               	movf	?___lmul+2,w
  2891     04C9  00C8               	movwf	read_voltage@R1+2
  2892     04CA  0821               	movf	?___lmul+1,w
  2893     04CB  00C7               	movwf	read_voltage@R1+1
  2894     04CC  0820               	movf	?___lmul,w
  2895     04CD  00C6               	movwf	read_voltage@R1
  2896     04CE                     l3425:
  2897                           
  2898                           ;adc.c: 86:     R1 = 1000000 + R1;
  2899     04CE  3040               	movlw	64
  2900     04CF  00B7               	movwf	??_read_voltage
  2901     04D0  3042               	movlw	66
  2902     04D1  00B8               	movwf	??_read_voltage+1
  2903     04D2  300F               	movlw	15
  2904     04D3  00B9               	movwf	??_read_voltage+2
  2905     04D4  3000               	movlw	0
  2906     04D5  00BA               	movwf	??_read_voltage+3
  2907     04D6  0846               	movf	read_voltage@R1,w
  2908     04D7  07B7               	addwf	??_read_voltage,f
  2909     04D8  0847               	movf	read_voltage@R1+1,w
  2910     04D9  1803               	skipnc
  2911     04DA  0F47               	incfsz	read_voltage@R1+1,w
  2912     04DB  2CDD               	goto	u2640
  2913     04DC  2CDE               	goto	u2641
  2914     04DD                     u2640:
  2915     04DD  07B8               	addwf	??_read_voltage+1,f
  2916     04DE                     u2641:
  2917     04DE  0848               	movf	read_voltage@R1+2,w
  2918     04DF  1803               	skipnc
  2919     04E0  0F48               	incfsz	read_voltage@R1+2,w
  2920     04E1  2CE3               	goto	u2642
  2921     04E2  2CE4               	goto	u2643
  2922     04E3                     u2642:
  2923     04E3  07B9               	addwf	??_read_voltage+2,f
  2924     04E4                     u2643:
  2925     04E4  0849               	movf	read_voltage@R1+3,w
  2926     04E5  1803               	skipnc
  2927     04E6  0A49               	incf	read_voltage@R1+3,w
  2928     04E7  07BA               	addwf	??_read_voltage+3,f
  2929     04E8  083A               	movf	??_read_voltage+3,w
  2930     04E9  00C9               	movwf	read_voltage@R1+3
  2931     04EA  0839               	movf	??_read_voltage+2,w
  2932     04EB  00C8               	movwf	read_voltage@R1+2
  2933     04EC  0838               	movf	??_read_voltage+1,w
  2934     04ED  00C7               	movwf	read_voltage@R1+1
  2935     04EE  0837               	movf	??_read_voltage,w
  2936     04EF  00C6               	movwf	read_voltage@R1
  2937     04F0                     l3427:
  2938                           
  2939                           ;adc.c: 87:     R1 = R1 / R2;
  2940     04F0  083E               	movf	read_voltage@R2+3,w
  2941     04F1  00AB               	movwf	___lldiv@divisor+3
  2942     04F2  083D               	movf	read_voltage@R2+2,w
  2943     04F3  00AA               	movwf	___lldiv@divisor+2
  2944     04F4  083C               	movf	read_voltage@R2+1,w
  2945     04F5  00A9               	movwf	___lldiv@divisor+1
  2946     04F6  083B               	movf	read_voltage@R2,w
  2947     04F7  00A8               	movwf	___lldiv@divisor
  2948     04F8  0849               	movf	read_voltage@R1+3,w
  2949     04F9  00AF               	movwf	___lldiv@dividend+3
  2950     04FA  0848               	movf	read_voltage@R1+2,w
  2951     04FB  00AE               	movwf	___lldiv@dividend+2
  2952     04FC  0847               	movf	read_voltage@R1+1,w
  2953     04FD  00AD               	movwf	___lldiv@dividend+1
  2954     04FE  0846               	movf	read_voltage@R1,w
  2955     04FF  00AC               	movwf	___lldiv@dividend
  2956     0500  120A  118A  2014  120A  118A  	fcall	___lldiv
  2957     0505  1283               	bcf	3,5	;RP0=0, select bank0
  2958     0506  1303               	bcf	3,6	;RP1=0, select bank0
  2959     0507  082B               	movf	?___lldiv+3,w
  2960     0508  00C9               	movwf	read_voltage@R1+3
  2961     0509  082A               	movf	?___lldiv+2,w
  2962     050A  00C8               	movwf	read_voltage@R1+2
  2963     050B  0829               	movf	?___lldiv+1,w
  2964     050C  00C7               	movwf	read_voltage@R1+1
  2965     050D  0828               	movf	?___lldiv,w
  2966     050E  00C6               	movwf	read_voltage@R1
  2967     050F                     l3429:
  2968                           
  2969                           ;adc.c: 89:     average = average * R1;
  2970     050F  084D               	movf	read_voltage@average+3,w
  2971     0510  00A3               	movwf	___lmul@multiplier+3
  2972     0511  084C               	movf	read_voltage@average+2,w
  2973     0512  00A2               	movwf	___lmul@multiplier+2
  2974     0513  084B               	movf	read_voltage@average+1,w
  2975     0514  00A1               	movwf	___lmul@multiplier+1
  2976     0515  084A               	movf	read_voltage@average,w
  2977     0516  00A0               	movwf	___lmul@multiplier
  2978     0517  0849               	movf	read_voltage@R1+3,w
  2979     0518  00A7               	movwf	___lmul@multiplicand+3
  2980     0519  0848               	movf	read_voltage@R1+2,w
  2981     051A  00A6               	movwf	___lmul@multiplicand+2
  2982     051B  0847               	movf	read_voltage@R1+1,w
  2983     051C  00A5               	movwf	___lmul@multiplicand+1
  2984     051D  0846               	movf	read_voltage@R1,w
  2985     051E  00A4               	movwf	___lmul@multiplicand
  2986     051F  120A  158A  2402  120A  118A  	fcall	___lmul
  2987     0524  1283               	bcf	3,5	;RP0=0, select bank0
  2988     0525  1303               	bcf	3,6	;RP1=0, select bank0
  2989     0526  0823               	movf	?___lmul+3,w
  2990     0527  00CD               	movwf	read_voltage@average+3
  2991     0528  0822               	movf	?___lmul+2,w
  2992     0529  00CC               	movwf	read_voltage@average+2
  2993     052A  0821               	movf	?___lmul+1,w
  2994     052B  00CB               	movwf	read_voltage@average+1
  2995     052C  0820               	movf	?___lmul,w
  2996     052D  00CA               	movwf	read_voltage@average
  2997     052E                     l3431:
  2998                           
  2999                           ;adc.c: 90:     average = average / 10000;
  3000     052E  3000               	movlw	0
  3001     052F  00AB               	movwf	___lldiv@divisor+3
  3002     0530  3000               	movlw	0
  3003     0531  00AA               	movwf	___lldiv@divisor+2
  3004     0532  3027               	movlw	39
  3005     0533  00A9               	movwf	___lldiv@divisor+1
  3006     0534  3010               	movlw	16
  3007     0535  00A8               	movwf	___lldiv@divisor
  3008     0536  084D               	movf	read_voltage@average+3,w
  3009     0537  00AF               	movwf	___lldiv@dividend+3
  3010     0538  084C               	movf	read_voltage@average+2,w
  3011     0539  00AE               	movwf	___lldiv@dividend+2
  3012     053A  084B               	movf	read_voltage@average+1,w
  3013     053B  00AD               	movwf	___lldiv@dividend+1
  3014     053C  084A               	movf	read_voltage@average,w
  3015     053D  00AC               	movwf	___lldiv@dividend
  3016     053E  120A  118A  2014  120A  118A  	fcall	___lldiv
  3017     0543  1283               	bcf	3,5	;RP0=0, select bank0
  3018     0544  1303               	bcf	3,6	;RP1=0, select bank0
  3019     0545  082B               	movf	?___lldiv+3,w
  3020     0546  00CD               	movwf	read_voltage@average+3
  3021     0547  082A               	movf	?___lldiv+2,w
  3022     0548  00CC               	movwf	read_voltage@average+2
  3023     0549  0829               	movf	?___lldiv+1,w
  3024     054A  00CB               	movwf	read_voltage@average+1
  3025     054B  0828               	movf	?___lldiv,w
  3026     054C  00CA               	movwf	read_voltage@average
  3027                           
  3028                           ;adc.c: 94:     return (unsigned int)average;
  3029     054D  084B               	movf	read_voltage@average+1,w
  3030     054E  00B6               	movwf	?_read_voltage+1
  3031     054F  084A               	movf	read_voltage@average,w
  3032     0550  00B5               	movwf	?_read_voltage
  3033     0551                     l470:
  3034     0551  0008               	return
  3035     0552                     __end_of_read_voltage:
  3036                           
  3037                           	psect	text2
  3038     0A2E                     __ptext2:	
  3039 ;; *************** function _ADC_Read_ADC_Result *****************
  3040 ;; Defined at:
  3041 ;;		line 34 in file "adc.c"
  3042 ;; Parameters:    Size  Location     Type
  3043 ;;		None
  3044 ;; Auto vars:     Size  Location     Type
  3045 ;;  adcResult       2    4[COMMON] unsigned int 
  3046 ;; Return value:  Size  Location     Type
  3047 ;;                  2    2[COMMON] unsigned int 
  3048 ;; Registers used:
  3049 ;;		wreg
  3050 ;; Tracked objects:
  3051 ;;		On entry : 0/0
  3052 ;;		On exit  : 0/0
  3053 ;;		Unchanged: 0/0
  3054 ;; Data sizes:     COMMON   BANK0   BANK1   BANK3   BANK2
  3055 ;;      Params:         2       0       0       0       0
  3056 ;;      Locals:         2       0       0       0       0
  3057 ;;      Temps:          0       0       0       0       0
  3058 ;;      Totals:         4       0       0       0       0
  3059 ;;Total ram usage:        4 bytes
  3060 ;; Hardware stack levels used: 1
  3061 ;; Hardware stack levels required when called: 1
  3062 ;; This function calls:
  3063 ;;		Nothing
  3064 ;; This function is called by:
  3065 ;;		_read_voltage
  3066 ;; This function uses a non-reentrant model
  3067 ;;
  3068                           
  3069     0A2E                     _ADC_Read_ADC_Result:	
  3070                           ;psect for function _ADC_Read_ADC_Result
  3071                           
  3072     0A2E                     l2331:	
  3073                           ;incstack = 0
  3074                           ; Regs used in _ADC_Read_ADC_Result: [wreg]
  3075                           
  3076                           
  3077                           ;adc.c: 36:     unsigned int adcResult;;adc.c: 40:     ADCON0bits.GO_nDONE = 1;
  3078     0A2E  1283               	bcf	3,5	;RP0=0, select bank0
  3079     0A2F  1303               	bcf	3,6	;RP1=0, select bank0
  3080     0A30  149F               	bsf	31,1	;volatile
  3081     0A31                     l458:	
  3082                           ;adc.c: 43:     while (ADCON0bits.GO_nDONE);
  3083                           
  3084     0A31  189F               	btfsc	31,1	;volatile
  3085     0A32  2A34               	goto	u1501
  3086     0A33  2A35               	goto	u1500
  3087     0A34                     u1501:
  3088     0A34  2A31               	goto	l458
  3089     0A35                     u1500:
  3090     0A35                     l2333:
  3091                           
  3092                           ;adc.c: 46:     adcResult = ((unsigned int)ADRESH << 8) + (unsigned int)ADRESL;
  3093     0A35  081E               	movf	30,w	;volatile
  3094     0A36  00F6               	movwf	ADC_Read_ADC_Result@adcResult+1
  3095     0A37  1683               	bsf	3,5	;RP0=1, select bank1
  3096     0A38  1303               	bcf	3,6	;RP1=0, select bank1
  3097     0A39  081E               	movf	30,w	;volatile
  3098     0A3A  00F5               	movwf	ADC_Read_ADC_Result@adcResult
  3099                           
  3100                           ;adc.c: 52:     return (unsigned int) adcResult;
  3101     0A3B  0876               	movf	ADC_Read_ADC_Result@adcResult+1,w
  3102     0A3C  00F4               	movwf	?_ADC_Read_ADC_Result+1
  3103     0A3D  0875               	movf	ADC_Read_ADC_Result@adcResult,w
  3104     0A3E  00F3               	movwf	?_ADC_Read_ADC_Result
  3105     0A3F                     l461:
  3106     0A3F  0008               	return
  3107     0A40                     __end_of_ADC_Read_ADC_Result:
  3108                           
  3109                           	psect	text3
  3110     0A1D                     __ptext3:	
  3111 ;; *************** function _printf *****************
  3112 ;; Defined at:
  3113 ;;		line 5 in file "C:\Program Files\Microchip\xc8\v2.50\pic\sources\c99\common\printf.c"
  3114 ;; Parameters:    Size  Location     Type
  3115 ;;  fmt             2   25[BANK0 ] PTR const unsigned char 
  3116 ;;		 -> STR_9(12), STR_8(10), STR_7(10), STR_6(12), 
  3117 ;;		 -> STR_5(10), STR_4(10), STR_3(12), STR_2(10), 
  3118 ;;		 -> STR_1(10), 
  3119 ;; Auto vars:     Size  Location     Type
  3120 ;;  ret             2    0        int 
  3121 ;;  ap              1   29[BANK0 ] PTR void [1]
  3122 ;;		 -> ?_printf(2), 
  3123 ;; Return value:  Size  Location     Type
  3124 ;;                  2   25[BANK0 ] int 
  3125 ;; Registers used:
  3126 ;;		wreg, fsr0l, fsr0h, status,2, status,0, btemp+1, pclath, cstack
  3127 ;; Tracked objects:
  3128 ;;		On entry : 0/0
  3129 ;;		On exit  : 0/0
  3130 ;;		Unchanged: 0/0
  3131 ;; Data sizes:     COMMON   BANK0   BANK1   BANK3   BANK2
  3132 ;;      Params:         0       4       0       0       0
  3133 ;;      Locals:         0       1       0       0       0
  3134 ;;      Temps:          0       0       0       0       0
  3135 ;;      Totals:         0       5       0       0       0
  3136 ;;Total ram usage:        5 bytes
  3137 ;; Hardware stack levels used: 1
  3138 ;; Hardware stack levels required when called: 6
  3139 ;; This function calls:
  3140 ;;		_vfprintf
  3141 ;; This function is called by:
  3142 ;;		_main
  3143 ;; This function uses a non-reentrant model
  3144 ;;
  3145                           
  3146     0A1D                     _printf:	
  3147                           ;psect for function _printf
  3148                           
  3149     0A1D                     l3435:	
  3150                           ;incstack = 0
  3151                           ; Regs used in _printf: [wreg-fsr0h+status,2+status,0+btemp+1+pclath+cstack]
  3152                           
  3153     0A1D  303B               	movlw	(low ((?_printf| 0+2)))& (0+255)
  3154     0A1E  1283               	bcf	3,5	;RP0=0, select bank0
  3155     0A1F  1303               	bcf	3,6	;RP1=0, select bank0
  3156     0A20  00BD               	movwf	printf@ap
  3157     0A21                     l3437:
  3158     0A21  01B3               	clrf	vfprintf@fp
  3159     0A22  0839               	movf	printf@fmt,w
  3160     0A23  00B4               	movwf	vfprintf@fmt
  3161     0A24  083A               	movf	printf@fmt+1,w
  3162     0A25  00B5               	movwf	vfprintf@fmt+1
  3163     0A26  303D               	movlw	(low (printf@ap| 0))& (0+255)
  3164     0A27  00B6               	movwf	vfprintf@ap
  3165     0A28  120A  158A  2279  120A  158A  	fcall	_vfprintf
  3166     0A2D                     l1019:
  3167     0A2D  0008               	return
  3168     0A2E                     __end_of_printf:
  3169                           
  3170                           	psect	text4
  3171     0A79                     __ptext4:	
  3172 ;; *************** function _vfprintf *****************
  3173 ;; Defined at:
  3174 ;;		line 1817 in file "C:\Program Files\Microchip\xc8\v2.50\pic\sources\c99\common\doprnt.c"
  3175 ;; Parameters:    Size  Location     Type
  3176 ;;  fp              1   19[BANK0 ] PTR struct _IO_FILE
  3177 ;;		 -> NULL(0), 
  3178 ;;  fmt             2   20[BANK0 ] PTR const unsigned char 
  3179 ;;		 -> STR_9(12), STR_8(10), STR_7(10), STR_6(12), 
  3180 ;;		 -> STR_5(10), STR_4(10), STR_3(12), STR_2(10), 
  3181 ;;		 -> STR_1(10), 
  3182 ;;  ap              1   22[BANK0 ] PTR PTR void 
  3183 ;;		 -> printf@ap(1), 
  3184 ;; Auto vars:     Size  Location     Type
  3185 ;;  cfmt            2   23[BANK0 ] PTR unsigned char 
  3186 ;;		 -> STR_9(12), STR_8(10), STR_7(10), STR_6(12), 
  3187 ;;		 -> STR_5(10), STR_4(10), STR_3(12), STR_2(10), 
  3188 ;;		 -> STR_1(10), 
  3189 ;; Return value:  Size  Location     Type
  3190 ;;                  2   19[BANK0 ] int 
  3191 ;; Registers used:
  3192 ;;		wreg, fsr0l, fsr0h, status,2, status,0, btemp+1, pclath, cstack
  3193 ;; Tracked objects:
  3194 ;;		On entry : 0/0
  3195 ;;		On exit  : 0/0
  3196 ;;		Unchanged: 0/0
  3197 ;; Data sizes:     COMMON   BANK0   BANK1   BANK3   BANK2
  3198 ;;      Params:         0       4       0       0       0
  3199 ;;      Locals:         0       2       0       0       0
  3200 ;;      Temps:          0       0       0       0       0
  3201 ;;      Totals:         0       6       0       0       0
  3202 ;;Total ram usage:        6 bytes
  3203 ;; Hardware stack levels used: 1
  3204 ;; Hardware stack levels required when called: 5
  3205 ;; This function calls:
  3206 ;;		_vfpfcnvrt
  3207 ;; This function is called by:
  3208 ;;		_printf
  3209 ;; This function uses a non-reentrant model
  3210 ;;
  3211                           
  3212     0A79                     _vfprintf:	
  3213                           ;psect for function _vfprintf
  3214                           
  3215     0A79                     l3199:	
  3216                           ;incstack = 0
  3217                           ; Regs used in _vfprintf: [wreg-fsr0h+status,2+status,0+btemp+1+pclath+cstack]
  3218                           
  3219                           
  3220                           ;C:\Program Files\Microchip\xc8\v2.50\pic\sources\c99\common\doprnt.c: 1817: int vfprint
      +                          f(FILE *fp, const char *fmt, va_list ap);C:\Program Files\Microchip\xc8\v2.50\pic\source
      +                          s\c99\common\doprnt.c: 1818: {;C:\Program Files\Microchip\xc8\v2.50\pic\sources\c99\comm
      +                          on\doprnt.c: 1820:     char *cfmt;;C:\Program Files\Microchip\xc8\v2.50\pic\sources\c99\
      +                          common\doprnt.c: 1822:     cfmt = (char *)fmt;
  3221     0A79  1283               	bcf	3,5	;RP0=0, select bank0
  3222     0A7A  1303               	bcf	3,6	;RP1=0, select bank0
  3223     0A7B  0834               	movf	vfprintf@fmt,w
  3224     0A7C  00B7               	movwf	vfprintf@cfmt
  3225     0A7D  0835               	movf	vfprintf@fmt+1,w
  3226     0A7E  00B8               	movwf	vfprintf@cfmt+1
  3227                           
  3228                           ;C:\Program Files\Microchip\xc8\v2.50\pic\sources\c99\common\doprnt.c: 1826:     while (
      +                          *cfmt) {
  3229     0A7F  2A8B               	goto	l3203
  3230     0A80                     l3201:
  3231                           
  3232                           ;C:\Program Files\Microchip\xc8\v2.50\pic\sources\c99\common\doprnt.c: 1830:    vfpfcnvr
      +                          t(fp, &cfmt, ap);
  3233     0A80  0833               	movf	vfprintf@fp,w
  3234     0A81  00A5               	movwf	vfpfcnvrt@fp
  3235     0A82  3037               	movlw	(low (vfprintf@cfmt| 0))& (0+255)
  3236     0A83  00A6               	movwf	vfpfcnvrt@fmt
  3237     0A84  0836               	movf	vfprintf@ap,w
  3238     0A85  00A7               	movwf	vfpfcnvrt@ap
  3239     0A86  120A  118A  207A  120A  158A  	fcall	_vfpfcnvrt
  3240     0A8B                     l3203:
  3241                           
  3242                           ;C:\Program Files\Microchip\xc8\v2.50\pic\sources\c99\common\doprnt.c: 1826:     while (
      +                          *cfmt) {
  3243     0A8B  1283               	bcf	3,5	;RP0=0, select bank0
  3244     0A8C  1303               	bcf	3,6	;RP1=0, select bank0
  3245     0A8D  0838               	movf	vfprintf@cfmt+1,w
  3246     0A8E  00FF               	movwf	btemp+1
  3247     0A8F  0837               	movf	vfprintf@cfmt,w
  3248     0A90  0084               	movwf	4
  3249     0A91  120A  158A  2000  120A  158A  	fcall	stringtab
  3250     0A96  3A00               	xorlw	0
  3251     0A97  1D03               	skipz
  3252     0A98  2A9A               	goto	u2401
  3253     0A99  2A9B               	goto	u2400
  3254     0A9A                     u2401:
  3255     0A9A  2A80               	goto	l3201
  3256     0A9B                     u2400:
  3257     0A9B                     l3205:
  3258                           
  3259                           ;C:\Program Files\Microchip\xc8\v2.50\pic\sources\c99\common\doprnt.c: 1835:  return 0;
  3260     0A9B  01B3               	clrf	?_vfprintf
  3261     0A9C  01B4               	clrf	?_vfprintf+1
  3262     0A9D                     l1063:
  3263     0A9D  0008               	return
  3264     0A9E                     __end_of_vfprintf:
  3265                           
  3266                           	psect	text5
  3267     007A                     __ptext5:	
  3268 ;; *************** function _vfpfcnvrt *****************
  3269 ;; Defined at:
  3270 ;;		line 1177 in file "C:\Program Files\Microchip\xc8\v2.50\pic\sources\c99\common\doprnt.c"
  3271 ;; Parameters:    Size  Location     Type
  3272 ;;  fp              1    5[BANK0 ] PTR struct _IO_FILE
  3273 ;;		 -> NULL(0), 
  3274 ;;  fmt             1    6[BANK0 ] PTR PTR unsigned char 
  3275 ;;		 -> vfprintf@cfmt(2), 
  3276 ;;  ap              1    7[BANK0 ] PTR PTR void 
  3277 ;;		 -> printf@ap(1), 
  3278 ;; Auto vars:     Size  Location     Type
  3279 ;;  convarg         4   14[BANK0 ] struct .
  3280 ;;  cp              2   12[BANK0 ] PTR unsigned char 
  3281 ;;		 -> STR_9(12), STR_8(10), STR_7(10), STR_6(12), 
  3282 ;;		 -> STR_5(10), STR_4(10), STR_3(12), STR_2(10), 
  3283 ;;		 -> STR_1(10), 
  3284 ;;  c               1   18[BANK0 ] unsigned char 
  3285 ;;  done            1    0        _Bool 
  3286 ;; Return value:  Size  Location     Type
  3287 ;;                  1    wreg      void 
  3288 ;; Registers used:
  3289 ;;		wreg, fsr0l, fsr0h, status,2, status,0, btemp+1, pclath, cstack
  3290 ;; Tracked objects:
  3291 ;;		On entry : 0/0
  3292 ;;		On exit  : 0/0
  3293 ;;		Unchanged: 0/0
  3294 ;; Data sizes:     COMMON   BANK0   BANK1   BANK3   BANK2
  3295 ;;      Params:         0       3       0       0       0
  3296 ;;      Locals:         0       7       0       0       0
  3297 ;;      Temps:          0       4       0       0       0
  3298 ;;      Totals:         0      14       0       0       0
  3299 ;;Total ram usage:       14 bytes
  3300 ;; Hardware stack levels used: 1
  3301 ;; Hardware stack levels required when called: 4
  3302 ;; This function calls:
  3303 ;;		___lwdiv
  3304 ;;		___lwmod
  3305 ;;		_fputc
  3306 ;; This function is called by:
  3307 ;;		_vfprintf
  3308 ;; This function uses a non-reentrant model
  3309 ;;
  3310                           
  3311     007A                     _vfpfcnvrt:	
  3312                           ;psect for function _vfpfcnvrt
  3313                           
  3314     007A                     l3117:	
  3315                           ;incstack = 0
  3316                           ; Regs used in _vfpfcnvrt: [wreg-fsr0h+status,2+status,0+btemp+1+pclath+cstack]
  3317                           
  3318                           
  3319                           ;C:\Program Files\Microchip\xc8\v2.50\pic\sources\c99\common\doprnt.c: 1177: vfpfcnvrt(F
      +                          ILE *fp, char *fmt[], va_list ap);C:\Program Files\Microchip\xc8\v2.50\pic\sources\c99\c
      +                          ommon\doprnt.c: 1178: {;C:\Program Files\Microchip\xc8\v2.50\pic\sources\c99\common\dopr
      +                          nt.c: 1179:     char c, *cp;;C:\Program Files\Microchip\xc8\v2.50\pic\sources\c99\common
      +                          \doprnt.c: 1180:     _Bool done;;C:\Program Files\Microchip\xc8\v2.50\pic\sources\c99\co
      +                          mmon\doprnt.c: 1188:  } convarg;;C:\Program Files\Microchip\xc8\v2.50\pic\sources\c99\co
      +                          mmon\doprnt.c: 1201:     if ((*fmt)[0] == '%') {
  3320     007A  1283               	bcf	3,5	;RP0=0, select bank0
  3321     007B  1303               	bcf	3,6	;RP1=0, select bank0
  3322     007C  0826               	movf	vfpfcnvrt@fmt,w
  3323     007D  0084               	movwf	4
  3324     007E  1383               	bcf	3,7	;select IRP bank0
  3325     007F  0800               	movf	0,w
  3326     0080  00A8               	movwf	??_vfpfcnvrt
  3327     0081  0A84               	incf	4,f
  3328     0082  0800               	movf	0,w
  3329     0083  00A9               	movwf	??_vfpfcnvrt+1
  3330     0084  0829               	movf	??_vfpfcnvrt+1,w
  3331     0085  00FF               	movwf	btemp+1
  3332     0086  0828               	movf	??_vfpfcnvrt,w
  3333     0087  0084               	movwf	4
  3334     0088  120A  158A  2000  120A  118A  	fcall	stringtab
  3335     008D  3A25               	xorlw	37
  3336     008E  1D03               	skipz
  3337     008F  2891               	goto	u2321
  3338     0090  2892               	goto	u2320
  3339     0091                     u2321:
  3340     0091  294A               	goto	l3155
  3341     0092                     u2320:
  3342     0092                     l3119:
  3343                           
  3344                           ;C:\Program Files\Microchip\xc8\v2.50\pic\sources\c99\common\doprnt.c: 1202:         ++*
      +                          fmt;
  3345     0092  0826               	movf	vfpfcnvrt@fmt,w
  3346     0093  0084               	movwf	4
  3347     0094  3001               	movlw	1
  3348     0095  1383               	bcf	3,7	;select IRP bank0
  3349     0096  0780               	addwf	0,f
  3350     0097  0A84               	incf	4,f
  3351     0098  1803               	skipnc
  3352     0099  0A80               	incf	0,f
  3353     009A                     l3121:
  3354                           
  3355                           ;C:\Program Files\Microchip\xc8\v2.50\pic\sources\c99\common\doprnt.c: 1204:         fla
      +                          gs = width = 0;
  3356     009A  01E6               	clrf	_width
  3357     009B  01E7               	clrf	_width+1
  3358     009C  3000               	movlw	0
  3359     009D  00EC               	movwf	_flags
  3360     009E                     l3123:
  3361                           
  3362                           ;C:\Program Files\Microchip\xc8\v2.50\pic\sources\c99\common\doprnt.c: 1205:         pre
      +                          c = -1;
  3363     009E  30FF               	movlw	255
  3364     009F  00E8               	movwf	_prec
  3365     00A0  30FF               	movlw	255
  3366     00A1  00E9               	movwf	_prec+1
  3367     00A2                     l3125:
  3368                           
  3369                           ;C:\Program Files\Microchip\xc8\v2.50\pic\sources\c99\common\doprnt.c: 1439:   if (0
  3370     00A2  0826               	movf	vfpfcnvrt@fmt,w
  3371     00A3  0084               	movwf	4
  3372     00A4  0800               	movf	0,w
  3373     00A5  00AC               	movwf	vfpfcnvrt@cp
  3374     00A6  0A84               	incf	4,f
  3375     00A7  0800               	movf	0,w
  3376     00A8  0384               	decf	4,f
  3377     00A9  00AD               	movwf	vfpfcnvrt@cp+1
  3378     00AA                     l3127:
  3379     00AA  082D               	movf	vfpfcnvrt@cp+1,w
  3380     00AB  00FF               	movwf	btemp+1
  3381     00AC  082C               	movf	vfpfcnvrt@cp,w
  3382     00AD  0084               	movwf	4
  3383     00AE  120A  158A  2000  120A  118A  	fcall	stringtab
  3384     00B3  3A75               	xorlw	117
  3385     00B4  1D03               	skipz
  3386     00B5  28B7               	goto	u2331
  3387     00B6  28B8               	goto	u2330
  3388     00B7                     u2331:
  3389     00B7  293F               	goto	l3151
  3390     00B8                     u2330:
  3391     00B8                     l3129:
  3392                           
  3393                           ;C:\Program Files\Microchip\xc8\v2.50\pic\sources\c99\common\doprnt.c: 1452:     ) {;C:\
      +                          Program Files\Microchip\xc8\v2.50\pic\sources\c99\common\doprnt.c: 1495:    convarg.uint
      +                           = (vfpf_uint_t)(unsigned int)(*(unsigned int *)__va_arg(*(unsigned int **)ap, (unsigned
      +                           int)0));
  3394     00B8  0827               	movf	vfpfcnvrt@ap,w
  3395     00B9  0084               	movwf	4
  3396     00BA  1383               	bcf	3,7	;select IRP bank0
  3397     00BB  0800               	movf	0,w
  3398     00BC  00FF               	movwf	btemp+1
  3399     00BD  3002               	movlw	2
  3400     00BE  0780               	addwf	0,f
  3401     00BF  087F               	movf	btemp+1,w
  3402     00C0  0084               	movwf	4
  3403     00C1  0800               	movf	0,w
  3404     00C2  00AE               	movwf	vfpfcnvrt@convarg
  3405     00C3  0A84               	incf	4,f
  3406     00C4  0800               	movf	0,w
  3407     00C5  00AF               	movwf	vfpfcnvrt@convarg+1
  3408     00C6                     l3131:
  3409                           
  3410                           ;C:\Program Files\Microchip\xc8\v2.50\pic\sources\c99\common\doprnt.c: 1497:    *fmt = c
      +                          p+1;
  3411     00C6  3001               	movlw	1
  3412     00C7  00A8               	movwf	??_vfpfcnvrt
  3413     00C8  0828               	movf	??_vfpfcnvrt,w
  3414     00C9  072C               	addwf	vfpfcnvrt@cp,w
  3415     00CA  00AA               	movwf	??_vfpfcnvrt+2
  3416     00CB  082D               	movf	vfpfcnvrt@cp+1,w
  3417     00CC  00A9               	movwf	??_vfpfcnvrt+1
  3418     00CD  1803               	skipnc
  3419     00CE  0AA9               	incf	??_vfpfcnvrt+1,f
  3420     00CF  1BA8               	btfsc	??_vfpfcnvrt,7
  3421     00D0  03A9               	decf	??_vfpfcnvrt+1,f
  3422     00D1  0829               	movf	??_vfpfcnvrt+1,w
  3423     00D2  00AB               	movwf	??_vfpfcnvrt+3
  3424     00D3  0826               	movf	vfpfcnvrt@fmt,w
  3425     00D4  0084               	movwf	4
  3426     00D5  082A               	movf	??_vfpfcnvrt+2,w
  3427     00D6  0080               	movwf	0
  3428     00D7  082B               	movf	??_vfpfcnvrt+3,w
  3429     00D8  0A84               	incf	4,f
  3430     00D9  0080               	movwf	0
  3431     00DA  0384               	decf	4,f
  3432                           
  3433                           ;C:\Program Files\Microchip\xc8\v2.50\pic\sources\c99\common\doprnt.c: 1498:    switch (
      +                          *cp) {
  3434     00DB  2932               	goto	l3149
  3435     00DC                     l1048:	
  3436                           ;C:\Program Files\Microchip\xc8\v2.50\pic\sources\c99\common\doprnt.c: 1523:     case 'u
      +                          ':
  3437                           
  3438                           
  3439                           ;C:\Program Files\Microchip\xc8\v2.50\pic\sources\c99\common\doprnt.c: 1525:      c = si
      +                          zeof(dbuf);
  3440     00DC  3020               	movlw	32
  3441     00DD  00B2               	movwf	vfpfcnvrt@c
  3442     00DE                     l3133:
  3443                           
  3444                           ;C:\Program Files\Microchip\xc8\v2.50\pic\sources\c99\common\doprnt.c: 1527:       dbuf[
      +                          --c] = (convarg.uint % 10) + '0';
  3445     00DE  3001               	movlw	1
  3446     00DF  02B2               	subwf	vfpfcnvrt@c,f
  3447     00E0  0832               	movf	vfpfcnvrt@c,w
  3448     00E1  3EA0               	addlw	(low (_dbuf| 0))& (0+255)
  3449     00E2  0084               	movwf	4
  3450     00E3  300A               	movlw	10
  3451     00E4  00F3               	movwf	___lwmod@divisor
  3452     00E5  3000               	movlw	0
  3453     00E6  00F4               	movwf	___lwmod@divisor+1
  3454     00E7  082F               	movf	vfpfcnvrt@convarg+1,w
  3455     00E8  00F6               	movwf	___lwmod@dividend+1
  3456     00E9  082E               	movf	vfpfcnvrt@convarg,w
  3457     00EA  00F5               	movwf	___lwmod@dividend
  3458     00EB  120A  158A  234D  120A  118A  	fcall	___lwmod
  3459     00F0  0873               	movf	?___lwmod,w
  3460     00F1  3E30               	addlw	48
  3461     00F2  1383               	bcf	3,7	;select IRP bank1
  3462     00F3  0080               	movwf	0
  3463     00F4                     l3135:
  3464                           
  3465                           ;C:\Program Files\Microchip\xc8\v2.50\pic\sources\c99\common\doprnt.c: 1528:       conva
      +                          rg.uint /= 10;
  3466     00F4  300A               	movlw	10
  3467     00F5  00F3               	movwf	___lwdiv@divisor
  3468     00F6  3000               	movlw	0
  3469     00F7  00F4               	movwf	___lwdiv@divisor+1
  3470     00F8  1283               	bcf	3,5	;RP0=0, select bank0
  3471     00F9  1303               	bcf	3,6	;RP1=0, select bank0
  3472     00FA  082F               	movf	vfpfcnvrt@convarg+1,w
  3473     00FB  00F6               	movwf	___lwdiv@dividend+1
  3474     00FC  082E               	movf	vfpfcnvrt@convarg,w
  3475     00FD  00F5               	movwf	___lwdiv@dividend
  3476     00FE  120A  158A  23C0  120A  118A  	fcall	___lwdiv
  3477     0103  0874               	movf	?___lwdiv+1,w
  3478     0104  1283               	bcf	3,5	;RP0=0, select bank0
  3479     0105  1303               	bcf	3,6	;RP1=0, select bank0
  3480     0106  00AF               	movwf	vfpfcnvrt@convarg+1
  3481     0107  0873               	movf	?___lwdiv,w
  3482     0108  00AE               	movwf	vfpfcnvrt@convarg
  3483     0109                     l3137:
  3484                           
  3485                           ;C:\Program Files\Microchip\xc8\v2.50\pic\sources\c99\common\doprnt.c: 1532:      } whil
      +                          e (convarg.uint != 0 && c != 0);
  3486     0109  082E               	movf	vfpfcnvrt@convarg,w
  3487     010A  042F               	iorwf	vfpfcnvrt@convarg+1,w
  3488     010B  1903               	btfsc	3,2
  3489     010C  290E               	goto	u2341
  3490     010D  290F               	goto	u2340
  3491     010E                     u2341:
  3492     010E  292B               	goto	l3145
  3493     010F                     u2340:
  3494     010F                     l3139:
  3495     010F  0832               	movf	vfpfcnvrt@c,w
  3496     0110  1D03               	btfss	3,2
  3497     0111  2913               	goto	u2351
  3498     0112  2914               	goto	u2350
  3499     0113                     u2351:
  3500     0113  28DE               	goto	l3133
  3501     0114                     u2350:
  3502     0114  292B               	goto	l3145
  3503     0115                     l3141:
  3504                           
  3505                           ;C:\Program Files\Microchip\xc8\v2.50\pic\sources\c99\common\doprnt.c: 1534:       fputc
      +                          (dbuf[c++], fp);
  3506     0115  0832               	movf	vfpfcnvrt@c,w
  3507     0116  3EA0               	addlw	(low (_dbuf| 0))& (0+255)
  3508     0117  0084               	movwf	4
  3509     0118  1383               	bcf	3,7	;select IRP bank1
  3510     0119  0800               	movf	0,w
  3511     011A  00A8               	movwf	??_vfpfcnvrt
  3512     011B  01A9               	clrf	??_vfpfcnvrt+1
  3513     011C  0828               	movf	??_vfpfcnvrt,w
  3514     011D  00F7               	movwf	fputc@c
  3515     011E  0829               	movf	??_vfpfcnvrt+1,w
  3516     011F  00F8               	movwf	fputc@c+1
  3517     0120  0825               	movf	vfpfcnvrt@fp,w
  3518     0121  00F9               	movwf	fputc@fp
  3519     0122  120A  158A  2498  120A  118A  	fcall	_fputc
  3520     0127                     l3143:
  3521     0127  3001               	movlw	1
  3522     0128  1283               	bcf	3,5	;RP0=0, select bank0
  3523     0129  1303               	bcf	3,6	;RP1=0, select bank0
  3524     012A  07B2               	addwf	vfpfcnvrt@c,f
  3525     012B                     l3145:
  3526                           
  3527                           ;C:\Program Files\Microchip\xc8\v2.50\pic\sources\c99\common\doprnt.c: 1533:      while 
      +                          (c != sizeof(dbuf)) {
  3528     012B  3020               	movlw	32
  3529     012C  0632               	xorwf	vfpfcnvrt@c,w
  3530     012D  1D03               	btfss	3,2
  3531     012E  2930               	goto	u2361
  3532     012F  2931               	goto	u2360
  3533     0130                     u2361:
  3534     0130  2915               	goto	l3141
  3535     0131                     u2360:
  3536     0131  2969               	goto	l1056
  3537     0132                     l3149:
  3538     0132  082D               	movf	vfpfcnvrt@cp+1,w
  3539     0133  00FF               	movwf	btemp+1
  3540     0134  082C               	movf	vfpfcnvrt@cp,w
  3541     0135  0084               	movwf	4
  3542     0136  120A  158A  2000  120A  118A  	fcall	stringtab
  3543                           
  3544                           ; Switch size 1, requested type "simple"
  3545                           ; Number of cases is 1, Range of values is 117 to 117
  3546                           ; switch strategies available:
  3547                           ; Name         Instructions Cycles
  3548                           ; simple_byte            4     3 (average)
  3549                           ; direct_byte           14    11 (fixed)
  3550                           ; jumptable            263     9 (fixed)
  3551                           ;	Chosen strategy is simple_byte
  3552     013B  3A75               	xorlw	117	; case 117
  3553     013C  1903               	skipnz
  3554     013D  28DC               	goto	l1048
  3555     013E  293F               	goto	l3151
  3556     013F                     l3151:
  3557                           
  3558                           ;C:\Program Files\Microchip\xc8\v2.50\pic\sources\c99\common\doprnt.c: 1806:         ++*
      +                          fmt;
  3559     013F  1283               	bcf	3,5	;RP0=0, select bank0
  3560     0140  1303               	bcf	3,6	;RP1=0, select bank0
  3561     0141  0826               	movf	vfpfcnvrt@fmt,w
  3562     0142  0084               	movwf	4
  3563     0143  3001               	movlw	1
  3564     0144  1383               	bcf	3,7	;select IRP bank0
  3565     0145  0780               	addwf	0,f
  3566     0146  0A84               	incf	4,f
  3567     0147  1803               	skipnc
  3568     0148  0A80               	incf	0,f
  3569     0149  2969               	goto	l1056
  3570     014A                     l3155:
  3571                           
  3572                           ;C:\Program Files\Microchip\xc8\v2.50\pic\sources\c99\common\doprnt.c: 1811:     fputc((
      +                          int)(*fmt)[0], fp);
  3573     014A  0826               	movf	vfpfcnvrt@fmt,w
  3574     014B  0084               	movwf	4
  3575     014C  1383               	bcf	3,7	;select IRP bank0
  3576     014D  0800               	movf	0,w
  3577     014E  00A8               	movwf	??_vfpfcnvrt
  3578     014F  0A84               	incf	4,f
  3579     0150  0800               	movf	0,w
  3580     0151  00A9               	movwf	??_vfpfcnvrt+1
  3581     0152  0829               	movf	??_vfpfcnvrt+1,w
  3582     0153  00FF               	movwf	btemp+1
  3583     0154  0828               	movf	??_vfpfcnvrt,w
  3584     0155  0084               	movwf	4
  3585     0156  120A  158A  2000  120A  118A  	fcall	stringtab
  3586     015B  00AA               	movwf	??_vfpfcnvrt+2
  3587     015C  01AB               	clrf	??_vfpfcnvrt+3
  3588     015D  082A               	movf	??_vfpfcnvrt+2,w
  3589     015E  00F7               	movwf	fputc@c
  3590     015F  082B               	movf	??_vfpfcnvrt+3,w
  3591     0160  00F8               	movwf	fputc@c+1
  3592     0161  0825               	movf	vfpfcnvrt@fp,w
  3593     0162  00F9               	movwf	fputc@fp
  3594     0163  120A  158A  2498  120A  118A  	fcall	_fputc
  3595     0168  293F               	goto	l3151
  3596     0169                     l1056:
  3597     0169  0008               	return
  3598     016A                     __end_of_vfpfcnvrt:
  3599                           
  3600                           	psect	text6
  3601     0C98                     __ptext6:	
  3602 ;; *************** function _fputc *****************
  3603 ;; Defined at:
  3604 ;;		line 8 in file "C:\Program Files\Microchip\xc8\v2.50\pic\sources\c99\common\nf_fputc.c"
  3605 ;; Parameters:    Size  Location     Type
  3606 ;;  c               2    6[COMMON] int 
  3607 ;;  fp              1    8[COMMON] PTR struct _IO_FILE
  3608 ;;		 -> NULL(0), 
  3609 ;; Auto vars:     Size  Location     Type
  3610 ;;		None
  3611 ;; Return value:  Size  Location     Type
  3612 ;;                  2    6[COMMON] int 
  3613 ;; Registers used:
  3614 ;;		wreg, fsr0l, fsr0h, status,2, status,0, pclath, cstack
  3615 ;; Tracked objects:
  3616 ;;		On entry : 0/0
  3617 ;;		On exit  : 0/0
  3618 ;;		Unchanged: 0/0
  3619 ;; Data sizes:     COMMON   BANK0   BANK1   BANK3   BANK2
  3620 ;;      Params:         3       0       0       0       0
  3621 ;;      Locals:         0       0       0       0       0
  3622 ;;      Temps:          0       5       0       0       0
  3623 ;;      Totals:         3       5       0       0       0
  3624 ;;Total ram usage:        8 bytes
  3625 ;; Hardware stack levels used: 1
  3626 ;; Hardware stack levels required when called: 3
  3627 ;; This function calls:
  3628 ;;		_putch
  3629 ;; This function is called by:
  3630 ;;		_vfpfcnvrt
  3631 ;; This function uses a non-reentrant model
  3632 ;;
  3633                           
  3634     0C98                     _fputc:	
  3635                           ;psect for function _fputc
  3636                           
  3637     0C98                     l3065:	
  3638                           ;incstack = 0
  3639                           ; Regs used in _fputc: [wreg-fsr0h+status,2+status,0+pclath+cstack]
  3640                           
  3641     0C98  0879               	movf	fputc@fp,w
  3642     0C99  1903               	btfsc	3,2
  3643     0C9A  2C9C               	goto	u2161
  3644     0C9B  2C9D               	goto	u2160
  3645     0C9C                     u2161:
  3646     0C9C  2CA2               	goto	l3069
  3647     0C9D                     u2160:
  3648     0C9D                     l3067:
  3649     0C9D  0879               	movf	fputc@fp,w
  3650     0C9E  1D03               	btfss	3,2
  3651     0C9F  2CA1               	goto	u2171
  3652     0CA0  2CA2               	goto	u2170
  3653     0CA1                     u2171:
  3654     0CA1  2CA9               	goto	l3071
  3655     0CA2                     u2170:
  3656     0CA2                     l3069:
  3657     0CA2  0877               	movf	fputc@c,w
  3658     0CA3  120A  158A  21D3  120A  158A  	fcall	_putch
  3659     0CA8  2CEE               	goto	l1075
  3660     0CA9                     l3071:
  3661     0CA9  0879               	movf	fputc@fp,w
  3662     0CAA  3E08               	addlw	8
  3663     0CAB  0084               	movwf	4
  3664     0CAC  1383               	bcf	3,7	;select IRP bank0
  3665     0CAD  0800               	movf	0,w
  3666     0CAE  1283               	bcf	3,5	;RP0=0, select bank0
  3667     0CAF  1303               	bcf	3,6	;RP1=0, select bank0
  3668     0CB0  00A0               	movwf	??_fputc
  3669     0CB1  0A84               	incf	4,f
  3670     0CB2  0800               	movf	0,w
  3671     0CB3  00A1               	movwf	??_fputc+1
  3672     0CB4  0820               	movf	??_fputc,w
  3673     0CB5  0421               	iorwf	??_fputc+1,w
  3674     0CB6  1903               	btfsc	3,2
  3675     0CB7  2CB9               	goto	u2181
  3676     0CB8  2CBA               	goto	u2180
  3677     0CB9                     u2181:
  3678     0CB9  2CD7               	goto	l3075
  3679     0CBA                     u2180:
  3680     0CBA                     l3073:
  3681     0CBA  0879               	movf	fputc@fp,w
  3682     0CBB  3E08               	addlw	8
  3683     0CBC  0084               	movwf	4
  3684     0CBD  0800               	movf	0,w
  3685     0CBE  00A0               	movwf	??_fputc
  3686     0CBF  0A84               	incf	4,f
  3687     0CC0  0800               	movf	0,w
  3688     0CC1  00A1               	movwf	??_fputc+1
  3689     0CC2  0A79               	incf	fputc@fp,w
  3690     0CC3  0084               	movwf	4
  3691     0CC4  0800               	movf	0,w
  3692     0CC5  00A2               	movwf	??_fputc+2
  3693     0CC6  0A84               	incf	4,f
  3694     0CC7  0800               	movf	0,w
  3695     0CC8  00A3               	movwf	??_fputc+3
  3696     0CC9  0823               	movf	??_fputc+3,w
  3697     0CCA  3A80               	xorlw	128
  3698     0CCB  00A4               	movwf	??_fputc+4
  3699     0CCC  0821               	movf	??_fputc+1,w
  3700     0CCD  3A80               	xorlw	128
  3701     0CCE  0224               	subwf	??_fputc+4,w
  3702     0CCF  1D03               	skipz
  3703     0CD0  2CD3               	goto	u2195
  3704     0CD1  0820               	movf	??_fputc,w
  3705     0CD2  0222               	subwf	??_fputc+2,w
  3706     0CD3                     u2195:
  3707     0CD3  1803               	skipnc
  3708     0CD4  2CD6               	goto	u2191
  3709     0CD5  2CD7               	goto	u2190
  3710     0CD6                     u2191:
  3711     0CD6  2CEE               	goto	l1075
  3712     0CD7                     u2190:
  3713     0CD7                     l3075:
  3714     0CD7  0A79               	incf	fputc@fp,w
  3715     0CD8  0084               	movwf	4
  3716     0CD9  1383               	bcf	3,7	;select IRP bank0
  3717     0CDA  0800               	movf	0,w
  3718     0CDB  1283               	bcf	3,5	;RP0=0, select bank0
  3719     0CDC  1303               	bcf	3,6	;RP1=0, select bank0
  3720     0CDD  00A0               	movwf	??_fputc
  3721     0CDE  0879               	movf	fputc@fp,w
  3722     0CDF  0084               	movwf	4
  3723     0CE0  0800               	movf	0,w
  3724     0CE1  0720               	addwf	??_fputc,w
  3725     0CE2  00A1               	movwf	??_fputc+1
  3726     0CE3  0821               	movf	??_fputc+1,w
  3727     0CE4  0084               	movwf	4
  3728     0CE5  0877               	movf	fputc@c,w
  3729     0CE6  0080               	movwf	0
  3730     0CE7  0A79               	incf	fputc@fp,w
  3731     0CE8  0084               	movwf	4
  3732     0CE9  3001               	movlw	1
  3733     0CEA  0780               	addwf	0,f
  3734     0CEB  0A84               	incf	4,f
  3735     0CEC  1803               	skipnc
  3736     0CED  0A80               	incf	0,f
  3737     0CEE                     l1075:
  3738     0CEE  0008               	return
  3739     0CEF                     __end_of_fputc:
  3740                           
  3741                           	psect	text7
  3742     09D3                     __ptext7:	
  3743 ;; *************** function _putch *****************
  3744 ;; Defined at:
  3745 ;;		line 43 in file "sw_uart.c"
  3746 ;; Parameters:    Size  Location     Type
  3747 ;;  txData          1    wreg     unsigned char 
  3748 ;; Auto vars:     Size  Location     Type
  3749 ;;  txData          1    5[COMMON] unsigned char 
  3750 ;; Return value:  Size  Location     Type
  3751 ;;                  1    wreg      void 
  3752 ;; Registers used:
  3753 ;;		wreg, status,2, status,0, pclath, cstack
  3754 ;; Tracked objects:
  3755 ;;		On entry : 0/0
  3756 ;;		On exit  : 0/0
  3757 ;;		Unchanged: 0/0
  3758 ;; Data sizes:     COMMON   BANK0   BANK1   BANK3   BANK2
  3759 ;;      Params:         0       0       0       0       0
  3760 ;;      Locals:         1       0       0       0       0
  3761 ;;      Temps:          0       0       0       0       0
  3762 ;;      Totals:         1       0       0       0       0
  3763 ;;Total ram usage:        1 bytes
  3764 ;; Hardware stack levels used: 1
  3765 ;; Hardware stack levels required when called: 2
  3766 ;; This function calls:
  3767 ;;		_SendUART_debug
  3768 ;; This function is called by:
  3769 ;;		_fputc
  3770 ;; This function uses a non-reentrant model
  3771 ;;
  3772                           
  3773     09D3                     _putch:	
  3774                           ;psect for function _putch
  3775                           
  3776                           
  3777                           ;incstack = 0
  3778                           ; Regs used in _putch: [wreg+status,2+status,0+pclath+cstack]
  3779                           ;putch@txData stored from wreg
  3780     09D3  00F6               	movwf	putch@txData
  3781     09D4                     l3015:
  3782                           
  3783                           ;sw_uart.c: 43: void putch(char txData);sw_uart.c: 44: {;sw_uart.c: 45:      SendUART_de
      +                          bug(txData);
  3784     09D4  0876               	movf	putch@txData,w
  3785     09D5  120A  158A  2385  120A  158A  	fcall	_SendUART_debug
  3786     09DA                     l215:
  3787     09DA  0008               	return
  3788     09DB                     __end_of_putch:
  3789                           
  3790                           	psect	text8
  3791     0B4D                     __ptext8:	
  3792 ;; *************** function ___lwmod *****************
  3793 ;; Defined at:
  3794 ;;		line 5 in file "C:\Program Files\Microchip\xc8\v2.50\pic\sources\c99\common\lwmod.c"
  3795 ;; Parameters:    Size  Location     Type
  3796 ;;  divisor         2    2[COMMON] unsigned int 
  3797 ;;  dividend        2    4[COMMON] unsigned int 
  3798 ;; Auto vars:     Size  Location     Type
  3799 ;;  counter         1    6[COMMON] unsigned char 
  3800 ;; Return value:  Size  Location     Type
  3801 ;;                  2    2[COMMON] unsigned int 
  3802 ;; Registers used:
  3803 ;;		wreg, status,2, status,0
  3804 ;; Tracked objects:
  3805 ;;		On entry : 0/0
  3806 ;;		On exit  : 0/0
  3807 ;;		Unchanged: 0/0
  3808 ;; Data sizes:     COMMON   BANK0   BANK1   BANK3   BANK2
  3809 ;;      Params:         4       0       0       0       0
  3810 ;;      Locals:         1       0       0       0       0
  3811 ;;      Temps:          0       0       0       0       0
  3812 ;;      Totals:         5       0       0       0       0
  3813 ;;Total ram usage:        5 bytes
  3814 ;; Hardware stack levels used: 1
  3815 ;; Hardware stack levels required when called: 1
  3816 ;; This function calls:
  3817 ;;		Nothing
  3818 ;; This function is called by:
  3819 ;;		_vfpfcnvrt
  3820 ;; This function uses a non-reentrant model
  3821 ;;
  3822                           
  3823     0B4D                     ___lwmod:	
  3824                           ;psect for function ___lwmod
  3825                           
  3826     0B4D                     l3043:	
  3827                           ;incstack = 0
  3828                           ; Regs used in ___lwmod: [wreg+status,2+status,0]
  3829                           
  3830     0B4D  0873               	movf	___lwmod@divisor,w
  3831     0B4E  0474               	iorwf	___lwmod@divisor+1,w
  3832     0B4F  1903               	btfsc	3,2
  3833     0B50  2B52               	goto	u2101
  3834     0B51  2B53               	goto	u2100
  3835     0B52                     u2101:
  3836     0B52  2B80               	goto	l3061
  3837     0B53                     u2100:
  3838     0B53                     l3045:
  3839     0B53  3001               	movlw	1
  3840     0B54  00F7               	movwf	___lwmod@counter
  3841     0B55  2B5F               	goto	l3051
  3842     0B56                     l3047:
  3843     0B56  3001               	movlw	1
  3844     0B57                     u2115:
  3845     0B57  1003               	clrc
  3846     0B58  0DF3               	rlf	___lwmod@divisor,f
  3847     0B59  0DF4               	rlf	___lwmod@divisor+1,f
  3848     0B5A  3EFF               	addlw	-1
  3849     0B5B  1D03               	skipz
  3850     0B5C  2B57               	goto	u2115
  3851     0B5D                     l3049:
  3852     0B5D  3001               	movlw	1
  3853     0B5E  07F7               	addwf	___lwmod@counter,f
  3854     0B5F                     l3051:
  3855     0B5F  1FF4               	btfss	___lwmod@divisor+1,7
  3856     0B60  2B62               	goto	u2121
  3857     0B61  2B63               	goto	u2120
  3858     0B62                     u2121:
  3859     0B62  2B56               	goto	l3047
  3860     0B63                     u2120:
  3861     0B63                     l3053:
  3862     0B63  0874               	movf	___lwmod@divisor+1,w
  3863     0B64  0276               	subwf	___lwmod@dividend+1,w
  3864     0B65  1D03               	skipz
  3865     0B66  2B69               	goto	u2135
  3866     0B67  0873               	movf	___lwmod@divisor,w
  3867     0B68  0275               	subwf	___lwmod@dividend,w
  3868     0B69                     u2135:
  3869     0B69  1C03               	skipc
  3870     0B6A  2B6C               	goto	u2131
  3871     0B6B  2B6D               	goto	u2130
  3872     0B6C                     u2131:
  3873     0B6C  2B73               	goto	l3057
  3874     0B6D                     u2130:
  3875     0B6D                     l3055:
  3876     0B6D  0873               	movf	___lwmod@divisor,w
  3877     0B6E  02F5               	subwf	___lwmod@dividend,f
  3878     0B6F  0874               	movf	___lwmod@divisor+1,w
  3879     0B70  1C03               	skipc
  3880     0B71  03F6               	decf	___lwmod@dividend+1,f
  3881     0B72  02F6               	subwf	___lwmod@dividend+1,f
  3882     0B73                     l3057:
  3883     0B73  3001               	movlw	1
  3884     0B74                     u2145:
  3885     0B74  1003               	clrc
  3886     0B75  0CF4               	rrf	___lwmod@divisor+1,f
  3887     0B76  0CF3               	rrf	___lwmod@divisor,f
  3888     0B77  3EFF               	addlw	-1
  3889     0B78  1D03               	skipz
  3890     0B79  2B74               	goto	u2145
  3891     0B7A                     l3059:
  3892     0B7A  3001               	movlw	1
  3893     0B7B  02F7               	subwf	___lwmod@counter,f
  3894     0B7C  1D03               	btfss	3,2
  3895     0B7D  2B7F               	goto	u2151
  3896     0B7E  2B80               	goto	u2150
  3897     0B7F                     u2151:
  3898     0B7F  2B63               	goto	l3053
  3899     0B80                     u2150:
  3900     0B80                     l3061:
  3901     0B80  0876               	movf	___lwmod@dividend+1,w
  3902     0B81  00F4               	movwf	?___lwmod+1
  3903     0B82  0875               	movf	___lwmod@dividend,w
  3904     0B83  00F3               	movwf	?___lwmod
  3905     0B84                     l846:
  3906     0B84  0008               	return
  3907     0B85                     __end_of___lwmod:
  3908                           
  3909                           	psect	text9
  3910     0BC0                     __ptext9:	
  3911 ;; *************** function ___lwdiv *****************
  3912 ;; Defined at:
  3913 ;;		line 5 in file "C:\Program Files\Microchip\xc8\v2.50\pic\sources\c99\common\lwdiv.c"
  3914 ;; Parameters:    Size  Location     Type
  3915 ;;  divisor         2    2[COMMON] unsigned int 
  3916 ;;  dividend        2    4[COMMON] unsigned int 
  3917 ;; Auto vars:     Size  Location     Type
  3918 ;;  quotient        2    7[COMMON] unsigned int 
  3919 ;;  counter         1    6[COMMON] unsigned char 
  3920 ;; Return value:  Size  Location     Type
  3921 ;;                  2    2[COMMON] unsigned int 
  3922 ;; Registers used:
  3923 ;;		wreg, status,2, status,0
  3924 ;; Tracked objects:
  3925 ;;		On entry : 0/0
  3926 ;;		On exit  : 0/0
  3927 ;;		Unchanged: 0/0
  3928 ;; Data sizes:     COMMON   BANK0   BANK1   BANK3   BANK2
  3929 ;;      Params:         4       0       0       0       0
  3930 ;;      Locals:         3       0       0       0       0
  3931 ;;      Temps:          0       0       0       0       0
  3932 ;;      Totals:         7       0       0       0       0
  3933 ;;Total ram usage:        7 bytes
  3934 ;; Hardware stack levels used: 1
  3935 ;; Hardware stack levels required when called: 1
  3936 ;; This function calls:
  3937 ;;		Nothing
  3938 ;; This function is called by:
  3939 ;;		_vfpfcnvrt
  3940 ;; This function uses a non-reentrant model
  3941 ;;
  3942                           
  3943     0BC0                     ___lwdiv:	
  3944                           ;psect for function ___lwdiv
  3945                           
  3946     0BC0                     l3017:	
  3947                           ;incstack = 0
  3948                           ; Regs used in ___lwdiv: [wreg+status,2+status,0]
  3949                           
  3950     0BC0  01F8               	clrf	___lwdiv@quotient
  3951     0BC1  01F9               	clrf	___lwdiv@quotient+1
  3952     0BC2                     l3019:
  3953     0BC2  0873               	movf	___lwdiv@divisor,w
  3954     0BC3  0474               	iorwf	___lwdiv@divisor+1,w
  3955     0BC4  1903               	btfsc	3,2
  3956     0BC5  2BC7               	goto	u2031
  3957     0BC6  2BC8               	goto	u2030
  3958     0BC7                     u2031:
  3959     0BC7  2BFD               	goto	l3039
  3960     0BC8                     u2030:
  3961     0BC8                     l3021:
  3962     0BC8  3001               	movlw	1
  3963     0BC9  00F7               	movwf	___lwdiv@counter
  3964     0BCA  2BD4               	goto	l3027
  3965     0BCB                     l3023:
  3966     0BCB  3001               	movlw	1
  3967     0BCC                     u2045:
  3968     0BCC  1003               	clrc
  3969     0BCD  0DF3               	rlf	___lwdiv@divisor,f
  3970     0BCE  0DF4               	rlf	___lwdiv@divisor+1,f
  3971     0BCF  3EFF               	addlw	-1
  3972     0BD0  1D03               	skipz
  3973     0BD1  2BCC               	goto	u2045
  3974     0BD2                     l3025:
  3975     0BD2  3001               	movlw	1
  3976     0BD3  07F7               	addwf	___lwdiv@counter,f
  3977     0BD4                     l3027:
  3978     0BD4  1FF4               	btfss	___lwdiv@divisor+1,7
  3979     0BD5  2BD7               	goto	u2051
  3980     0BD6  2BD8               	goto	u2050
  3981     0BD7                     u2051:
  3982     0BD7  2BCB               	goto	l3023
  3983     0BD8                     u2050:
  3984     0BD8                     l3029:
  3985     0BD8  3001               	movlw	1
  3986     0BD9                     u2065:
  3987     0BD9  1003               	clrc
  3988     0BDA  0DF8               	rlf	___lwdiv@quotient,f
  3989     0BDB  0DF9               	rlf	___lwdiv@quotient+1,f
  3990     0BDC  3EFF               	addlw	-1
  3991     0BDD  1D03               	skipz
  3992     0BDE  2BD9               	goto	u2065
  3993     0BDF  0874               	movf	___lwdiv@divisor+1,w
  3994     0BE0  0276               	subwf	___lwdiv@dividend+1,w
  3995     0BE1  1D03               	skipz
  3996     0BE2  2BE5               	goto	u2075
  3997     0BE3  0873               	movf	___lwdiv@divisor,w
  3998     0BE4  0275               	subwf	___lwdiv@dividend,w
  3999     0BE5                     u2075:
  4000     0BE5  1C03               	skipc
  4001     0BE6  2BE8               	goto	u2071
  4002     0BE7  2BE9               	goto	u2070
  4003     0BE8                     u2071:
  4004     0BE8  2BF0               	goto	l3035
  4005     0BE9                     u2070:
  4006     0BE9                     l3031:
  4007     0BE9  0873               	movf	___lwdiv@divisor,w
  4008     0BEA  02F5               	subwf	___lwdiv@dividend,f
  4009     0BEB  0874               	movf	___lwdiv@divisor+1,w
  4010     0BEC  1C03               	skipc
  4011     0BED  03F6               	decf	___lwdiv@dividend+1,f
  4012     0BEE  02F6               	subwf	___lwdiv@dividend+1,f
  4013     0BEF                     l3033:
  4014     0BEF  1478               	bsf	___lwdiv@quotient,0
  4015     0BF0                     l3035:
  4016     0BF0  3001               	movlw	1
  4017     0BF1                     u2085:
  4018     0BF1  1003               	clrc
  4019     0BF2  0CF4               	rrf	___lwdiv@divisor+1,f
  4020     0BF3  0CF3               	rrf	___lwdiv@divisor,f
  4021     0BF4  3EFF               	addlw	-1
  4022     0BF5  1D03               	skipz
  4023     0BF6  2BF1               	goto	u2085
  4024     0BF7                     l3037:
  4025     0BF7  3001               	movlw	1
  4026     0BF8  02F7               	subwf	___lwdiv@counter,f
  4027     0BF9  1D03               	btfss	3,2
  4028     0BFA  2BFC               	goto	u2091
  4029     0BFB  2BFD               	goto	u2090
  4030     0BFC                     u2091:
  4031     0BFC  2BD8               	goto	l3029
  4032     0BFD                     u2090:
  4033     0BFD                     l3039:
  4034     0BFD  0879               	movf	___lwdiv@quotient+1,w
  4035     0BFE  00F4               	movwf	?___lwdiv+1
  4036     0BFF  0878               	movf	___lwdiv@quotient,w
  4037     0C00  00F3               	movwf	?___lwdiv
  4038     0C01                     l836:
  4039     0C01  0008               	return
  4040     0C02                     __end_of___lwdiv:
  4041                           
  4042                           	psect	text10
  4043     0DA7                     __ptext10:	
  4044 ;; *************** function _SendErrorStatus *****************
  4045 ;; Defined at:
  4046 ;;		line 450 in file "ina226.c"
  4047 ;; Parameters:    Size  Location     Type
  4048 ;;  err             1    wreg     enum E1803
  4049 ;; Auto vars:     Size  Location     Type
  4050 ;;  err             1    0[BANK0 ] enum E1803
  4051 ;;  errorMsg        2    1[BANK0 ] PTR unsigned char 
  4052 ;;		 -> STR_19(17), STR_18(23), STR_17(19), STR_16(17), 
  4053 ;;		 -> STR_15(26), STR_14(16), STR_13(26), STR_12(25), 
  4054 ;;		 -> STR_11(8), STR_10(6), 
  4055 ;; Return value:  Size  Location     Type
  4056 ;;                  1    wreg      void 
  4057 ;; Registers used:
  4058 ;;		wreg, fsr0l, fsr0h, status,2, status,0, btemp+1, pclath, cstack
  4059 ;; Tracked objects:
  4060 ;;		On entry : 0/0
  4061 ;;		On exit  : 0/0
  4062 ;;		Unchanged: 0/0
  4063 ;; Data sizes:     COMMON   BANK0   BANK1   BANK3   BANK2
  4064 ;;      Params:         0       0       0       0       0
  4065 ;;      Locals:         0       3       0       0       0
  4066 ;;      Temps:          2       0       0       0       0
  4067 ;;      Totals:         2       3       0       0       0
  4068 ;;Total ram usage:        5 bytes
  4069 ;; Hardware stack levels used: 1
  4070 ;; Hardware stack levels required when called: 2
  4071 ;; This function calls:
  4072 ;;		_SendUART_debug
  4073 ;; This function is called by:
  4074 ;;		_main
  4075 ;; This function uses a non-reentrant model
  4076 ;;
  4077                           
  4078     0DA7                     _SendErrorStatus:	
  4079                           ;psect for function _SendErrorStatus
  4080                           
  4081                           
  4082                           ;incstack = 0
  4083                           ; Regs used in _SendErrorStatus: [wreg-fsr0h+status,2+status,0+btemp+1+pclath+cstack]
  4084                           ;SendErrorStatus@err stored from wreg
  4085     0DA7  1283               	bcf	3,5	;RP0=0, select bank0
  4086     0DA8  1303               	bcf	3,6	;RP1=0, select bank0
  4087     0DA9  00A0               	movwf	SendErrorStatus@err
  4088     0DAA                     l3295:
  4089                           
  4090                           ;ina226.c: 450: void SendErrorStatus(status err);ina226.c: 451: {;ina226.c: 452:     uns
      +                          igned char *errorMsg;;ina226.c: 455:     switch(err)
  4091     0DAA  2DDD               	goto	l3319
  4092     0DAB                     l3297:
  4093                           
  4094                           ;ina226.c: 458:             errorMsg = (unsigned char*)"OK \r\n";
  4095     0DAB  3020               	movlw	low (STR_10| (0+32768))
  4096     0DAC  00A1               	movwf	SendErrorStatus@errorMsg
  4097     0DAD  3089               	movlw	high (STR_10| (0+32768))
  4098     0DAE  00A2               	movwf	SendErrorStatus@errorMsg+1
  4099                           
  4100                           ;ina226.c: 459:             break;
  4101     0DAF  2E1F               	goto	l3325
  4102     0DB0                     l3299:
  4103                           
  4104                           ;ina226.c: 461:             errorMsg = (unsigned char*)"FAIL \r\n";
  4105     0DB0  3018               	movlw	low (STR_11| (0+32768))
  4106     0DB1  00A1               	movwf	SendErrorStatus@errorMsg
  4107     0DB2  3089               	movlw	high (STR_11| (0+32768))
  4108     0DB3  00A2               	movwf	SendErrorStatus@errorMsg+1
  4109                           
  4110                           ;ina226.c: 462:             break;
  4111     0DB4  2E1F               	goto	l3325
  4112     0DB5                     l3301:
  4113                           
  4114                           ;ina226.c: 464:             errorMsg = (unsigned char*)"INA226_TI_ID_MISMATCH \r\n";
  4115     0DB5  3083               	movlw	low (STR_12| (0+32768))
  4116     0DB6  00A1               	movwf	SendErrorStatus@errorMsg
  4117     0DB7  3088               	movlw	high (STR_12| (0+32768))
  4118     0DB8  00A2               	movwf	SendErrorStatus@errorMsg+1
  4119                           
  4120                           ;ina226.c: 465:             break;
  4121     0DB9  2E1F               	goto	l3325
  4122     0DBA                     l3303:
  4123                           
  4124                           ;ina226.c: 467:             errorMsg = (unsigned char*)"INA226_DIE_ID_MISMATCH \r\n";
  4125     0DBA  304F               	movlw	low (STR_13| (0+32768))
  4126     0DBB  00A1               	movwf	SendErrorStatus@errorMsg
  4127     0DBC  3088               	movlw	high (STR_13| (0+32768))
  4128     0DBD  00A2               	movwf	SendErrorStatus@errorMsg+1
  4129                           
  4130                           ;ina226.c: 468:             break;
  4131     0DBE  2E1F               	goto	l3325
  4132     0DBF                     l3305:
  4133                           
  4134                           ;ina226.c: 470:             errorMsg = (unsigned char*)"CONFIG_ERROR \r\n";
  4135     0DBF  30E8               	movlw	low (STR_14| (0+32768))
  4136     0DC0  00A1               	movwf	SendErrorStatus@errorMsg
  4137     0DC1  3088               	movlw	high (STR_14| (0+32768))
  4138     0DC2  00A2               	movwf	SendErrorStatus@errorMsg+1
  4139                           
  4140                           ;ina226.c: 471:             break;
  4141     0DC3  2E1F               	goto	l3325
  4142     0DC4                     l3307:
  4143                           
  4144                           ;ina226.c: 473:             errorMsg = (unsigned char*)"I2C_TRANSMISSION_ERROR \r\n";
  4145     0DC4  3069               	movlw	low (STR_15| (0+32768))
  4146     0DC5  00A1               	movwf	SendErrorStatus@errorMsg
  4147     0DC6  3088               	movlw	high (STR_15| (0+32768))
  4148     0DC7  00A2               	movwf	SendErrorStatus@errorMsg+1
  4149                           
  4150                           ;ina226.c: 474:             break;
  4151     0DC8  2E1F               	goto	l3325
  4152     0DC9                     l3309:
  4153                           
  4154                           ;ina226.c: 476:             errorMsg = (unsigned char*)"BAD_PARAMETER \r\n";
  4155     0DC9  30C6               	movlw	low (STR_16| (0+32768))
  4156     0DCA  00A1               	movwf	SendErrorStatus@errorMsg
  4157     0DCB  3088               	movlw	high (STR_16| (0+32768))
  4158     0DCC  00A2               	movwf	SendErrorStatus@errorMsg+1
  4159                           
  4160                           ;ina226.c: 477:             break;
  4161     0DCD  2E1F               	goto	l3325
  4162     0DCE                     l3311:
  4163                           
  4164                           ;ina226.c: 479:             errorMsg = (unsigned char*)"NOT_INITIALIZED \r\n";
  4165     0DCE  30B3               	movlw	low (STR_17| (0+32768))
  4166     0DCF  00A1               	movwf	SendErrorStatus@errorMsg
  4167     0DD0  3088               	movlw	high (STR_17| (0+32768))
  4168     0DD1  00A2               	movwf	SendErrorStatus@errorMsg+1
  4169                           
  4170                           ;ina226.c: 480:             break;
  4171     0DD2  2E1F               	goto	l3325
  4172     0DD3                     l3313:
  4173                           
  4174                           ;ina226.c: 482:             errorMsg = (unsigned char*)"INVALID_I2C_ADDRESS \r\n";
  4175     0DD3  309C               	movlw	low (STR_18| (0+32768))
  4176     0DD4  00A1               	movwf	SendErrorStatus@errorMsg
  4177     0DD5  3088               	movlw	high (STR_18| (0+32768))
  4178     0DD6  00A2               	movwf	SendErrorStatus@errorMsg+1
  4179                           
  4180                           ;ina226.c: 483:             break;
  4181     0DD7  2E1F               	goto	l3325
  4182     0DD8                     l3315:
  4183                           
  4184                           ;ina226.c: 485:             errorMsg = (unsigned char*)"UNKNOWN_ERROR \r\n";
  4185     0DD8  30D7               	movlw	low (STR_19| (0+32768))
  4186     0DD9  00A1               	movwf	SendErrorStatus@errorMsg
  4187     0DDA  3088               	movlw	high (STR_19| (0+32768))
  4188     0DDB  00A2               	movwf	SendErrorStatus@errorMsg+1
  4189                           
  4190                           ;ina226.c: 486:             break;
  4191     0DDC  2E1F               	goto	l3325
  4192     0DDD                     l3319:
  4193     0DDD  0820               	movf	SendErrorStatus@err,w
  4194     0DDE  00F6               	movwf	??_SendErrorStatus
  4195     0DDF  01F7               	clrf	??_SendErrorStatus+1
  4196     0DE0  1BF6               	btfsc	??_SendErrorStatus,7
  4197     0DE1  03F7               	decf	??_SendErrorStatus+1,f
  4198                           
  4199                           ; Switch on 2 bytes has been partitioned into a top level switch of size 1, and 2 sub-sw
      +                          itches
  4200                           ; Switch size 1, requested type "simple"
  4201                           ; Number of cases is 2, Range of values is 0 to 255
  4202                           ; switch strategies available:
  4203                           ; Name         Instructions Cycles
  4204                           ; simple_byte            7     4 (average)
  4205                           ; jumptable            260     6 (fixed)
  4206                           ;	Chosen strategy is simple_byte
  4207     0DE2  0877               	movf	??_SendErrorStatus+1,w
  4208     0DE3  3A00               	xorlw	0	; case 0
  4209     0DE4  1903               	skipnz
  4210     0DE5  2DEA               	goto	l3733
  4211     0DE6  3AFF               	xorlw	255	; case 255
  4212     0DE7  1903               	skipnz
  4213     0DE8  2DEF               	goto	l3735
  4214     0DE9  2DD8               	goto	l3315
  4215     0DEA                     l3733:
  4216                           
  4217                           ; Switch size 1, requested type "simple"
  4218                           ; Number of cases is 1, Range of values is 0 to 0
  4219                           ; switch strategies available:
  4220                           ; Name         Instructions Cycles
  4221                           ; simple_byte            4     3 (average)
  4222                           ; direct_byte           11     8 (fixed)
  4223                           ; jumptable            260     6 (fixed)
  4224                           ;	Chosen strategy is simple_byte
  4225     0DEA  0876               	movf	??_SendErrorStatus,w
  4226     0DEB  3A00               	xorlw	0	; case 0
  4227     0DEC  1903               	skipnz
  4228     0DED  2DAB               	goto	l3297
  4229     0DEE  2DD8               	goto	l3315
  4230     0DEF                     l3735:
  4231                           
  4232                           ; Switch size 1, requested type "simple"
  4233                           ; Number of cases is 8, Range of values is 248 to 255
  4234                           ; switch strategies available:
  4235                           ; Name         Instructions Cycles
  4236                           ; simple_byte           25    13 (average)
  4237                           ; direct_byte           31     7 (fixed)
  4238                           ; jumptable            263     9 (fixed)
  4239                           ;	Chosen strategy is simple_byte
  4240     0DEF  0876               	movf	??_SendErrorStatus,w
  4241     0DF0  3AF8               	xorlw	248	; case 248
  4242     0DF1  1903               	skipnz
  4243     0DF2  2DD3               	goto	l3313
  4244     0DF3  3A01               	xorlw	1	; case 249
  4245     0DF4  1903               	skipnz
  4246     0DF5  2DCE               	goto	l3311
  4247     0DF6  3A03               	xorlw	3	; case 250
  4248     0DF7  1903               	skipnz
  4249     0DF8  2DC9               	goto	l3309
  4250     0DF9  3A01               	xorlw	1	; case 251
  4251     0DFA  1903               	skipnz
  4252     0DFB  2DC4               	goto	l3307
  4253     0DFC  3A07               	xorlw	7	; case 252
  4254     0DFD  1903               	skipnz
  4255     0DFE  2DBF               	goto	l3305
  4256     0DFF  3A01               	xorlw	1	; case 253
  4257     0E00  1903               	skipnz
  4258     0E01  2DBA               	goto	l3303
  4259     0E02  3A03               	xorlw	3	; case 254
  4260     0E03  1903               	skipnz
  4261     0E04  2DB5               	goto	l3301
  4262     0E05  3A01               	xorlw	1	; case 255
  4263     0E06  1903               	skipnz
  4264     0E07  2DB0               	goto	l3299
  4265     0E08  2DD8               	goto	l3315
  4266     0E09                     l3321:
  4267                           
  4268                           ;ina226.c: 491:     {;ina226.c: 492:         SendUART_debug(*errorMsg);
  4269     0E09  0822               	movf	SendErrorStatus@errorMsg+1,w
  4270     0E0A  00FF               	movwf	btemp+1
  4271     0E0B  0821               	movf	SendErrorStatus@errorMsg,w
  4272     0E0C  0084               	movwf	4
  4273     0E0D  120A  158A  2000  120A  158A  	fcall	stringtab
  4274     0E12  120A  158A  2385  120A  158A  	fcall	_SendUART_debug
  4275     0E17                     l3323:
  4276                           
  4277                           ;ina226.c: 493:         errorMsg++;
  4278     0E17  3001               	movlw	1
  4279     0E18  1283               	bcf	3,5	;RP0=0, select bank0
  4280     0E19  1303               	bcf	3,6	;RP1=0, select bank0
  4281     0E1A  07A1               	addwf	SendErrorStatus@errorMsg,f
  4282     0E1B  1803               	skipnc
  4283     0E1C  0AA2               	incf	SendErrorStatus@errorMsg+1,f
  4284     0E1D  3000               	movlw	0
  4285     0E1E  07A2               	addwf	SendErrorStatus@errorMsg+1,f
  4286     0E1F                     l3325:
  4287                           
  4288                           ;ina226.c: 490:     while (*errorMsg)
  4289     0E1F  0822               	movf	SendErrorStatus@errorMsg+1,w
  4290     0E20  00FF               	movwf	btemp+1
  4291     0E21  0821               	movf	SendErrorStatus@errorMsg,w
  4292     0E22  0084               	movwf	4
  4293     0E23  120A  158A  2000  120A  158A  	fcall	stringtab
  4294     0E28  3A00               	xorlw	0
  4295     0E29  1D03               	skipz
  4296     0E2A  2E2C               	goto	u2511
  4297     0E2B  2E2D               	goto	u2510
  4298     0E2C                     u2511:
  4299     0E2C  2E09               	goto	l3321
  4300     0E2D                     u2510:
  4301     0E2D                     l442:
  4302     0E2D  0008               	return
  4303     0E2E                     __end_of_SendErrorStatus:
  4304                           
  4305                           	psect	text11
  4306     0A0D                     __ptext11:	
  4307 ;; *************** function _Interrupt_Init *****************
  4308 ;; Defined at:
  4309 ;;		line 7 in file "interrupts.c"
  4310 ;; Parameters:    Size  Location     Type
  4311 ;;		None
  4312 ;; Auto vars:     Size  Location     Type
  4313 ;;		None
  4314 ;; Return value:  Size  Location     Type
  4315 ;;                  1    wreg      void 
  4316 ;; Registers used:
  4317 ;;		wreg, status,2, status,0
  4318 ;; Tracked objects:
  4319 ;;		On entry : 0/0
  4320 ;;		On exit  : 0/0
  4321 ;;		Unchanged: 0/0
  4322 ;; Data sizes:     COMMON   BANK0   BANK1   BANK3   BANK2
  4323 ;;      Params:         0       0       0       0       0
  4324 ;;      Locals:         0       0       0       0       0
  4325 ;;      Temps:          0       0       0       0       0
  4326 ;;      Totals:         0       0       0       0       0
  4327 ;;Total ram usage:        0 bytes
  4328 ;; Hardware stack levels used: 1
  4329 ;; Hardware stack levels required when called: 1
  4330 ;; This function calls:
  4331 ;;		Nothing
  4332 ;; This function is called by:
  4333 ;;		_main
  4334 ;; This function uses a non-reentrant model
  4335 ;;
  4336                           
  4337     0A0D                     _Interrupt_Init:	
  4338                           ;psect for function _Interrupt_Init
  4339                           
  4340     0A0D                     l2421:	
  4341                           ;incstack = 0
  4342                           ; Regs used in _Interrupt_Init: [wreg+status,2+status,0]
  4343                           
  4344                           
  4345                           ;interrupts.c: 10:     OPTION_REGbits.T0CS=0;
  4346     0A0D  1683               	bsf	3,5	;RP0=1, select bank1
  4347     0A0E  1303               	bcf	3,6	;RP1=0, select bank1
  4348     0A0F  1281               	bcf	1,5	;volatile
  4349                           
  4350                           ;interrupts.c: 11:     OPTION_REGbits.PSA=0;
  4351     0A10  1181               	bcf	1,3	;volatile
  4352     0A11                     l2423:
  4353                           
  4354                           ;interrupts.c: 12:     OPTION_REGbits.PS=0b000;
  4355     0A11  30F8               	movlw	-8
  4356     0A12  0581               	andwf	1,f	;volatile
  4357     0A13                     l2425:
  4358                           
  4359                           ;interrupts.c: 13:     INTCONbits.T0IE=0;
  4360     0A13  128B               	bcf	11,5	;volatile
  4361     0A14                     l2427:
  4362                           
  4363                           ;interrupts.c: 16:     T1CONbits.TMR1ON=0;
  4364     0A14  1283               	bcf	3,5	;RP0=0, select bank0
  4365     0A15  1303               	bcf	3,6	;RP1=0, select bank0
  4366     0A16  1010               	bcf	16,0	;volatile
  4367     0A17                     l2429:
  4368                           
  4369                           ;interrupts.c: 17:     T1CONbits.TMR1CS=0;
  4370     0A17  1090               	bcf	16,1	;volatile
  4371                           
  4372                           ;interrupts.c: 18:     T1CONbits.T1CKPS=0b00;
  4373     0A18  30CF               	movlw	-49
  4374     0A19  0590               	andwf	16,f	;volatile
  4375     0A1A                     l2431:
  4376                           
  4377                           ;interrupts.c: 21:     INTCONbits.GIE=1;
  4378     0A1A  178B               	bsf	11,7	;volatile
  4379     0A1B                     l2433:
  4380                           
  4381                           ;interrupts.c: 22:     INTCONbits.PEIE=1;
  4382     0A1B  170B               	bsf	11,6	;volatile
  4383     0A1C                     l128:
  4384     0A1C  0008               	return
  4385     0A1D                     __end_of_Interrupt_Init:
  4386                           
  4387                           	psect	text12
  4388     09FF                     __ptext12:	
  4389 ;; *************** function _I2C_Init *****************
  4390 ;; Defined at:
  4391 ;;		line 18 in file "hw_i2c.c"
  4392 ;; Parameters:    Size  Location     Type
  4393 ;;		None
  4394 ;; Auto vars:     Size  Location     Type
  4395 ;;		None
  4396 ;; Return value:  Size  Location     Type
  4397 ;;                  1    wreg      void 
  4398 ;; Registers used:
  4399 ;;		wreg, status,2, status,0
  4400 ;; Tracked objects:
  4401 ;;		On entry : 0/0
  4402 ;;		On exit  : 0/0
  4403 ;;		Unchanged: 0/0
  4404 ;; Data sizes:     COMMON   BANK0   BANK1   BANK3   BANK2
  4405 ;;      Params:         0       0       0       0       0
  4406 ;;      Locals:         0       0       0       0       0
  4407 ;;      Temps:          0       0       0       0       0
  4408 ;;      Totals:         0       0       0       0       0
  4409 ;;Total ram usage:        0 bytes
  4410 ;; Hardware stack levels used: 1
  4411 ;; Hardware stack levels required when called: 1
  4412 ;; This function calls:
  4413 ;;		Nothing
  4414 ;; This function is called by:
  4415 ;;		_main
  4416 ;; This function uses a non-reentrant model
  4417 ;;
  4418                           
  4419     09FF                     _I2C_Init:	
  4420                           ;psect for function _I2C_Init
  4421                           
  4422     09FF                     l2435:	
  4423                           ;incstack = 0
  4424                           ; Regs used in _I2C_Init: [wreg+status,2+status,0]
  4425                           
  4426                           
  4427                           ;hw_i2c.c: 21:     SSPCONbits.SSPEN=1;
  4428     09FF  1283               	bcf	3,5	;RP0=0, select bank0
  4429     0A00  1303               	bcf	3,6	;RP1=0, select bank0
  4430     0A01  1694               	bsf	20,5	;volatile
  4431     0A02                     l2437:
  4432                           
  4433                           ;hw_i2c.c: 22:     SSPCONbits.SSPM=0b1000;
  4434     0A02  0814               	movf	20,w	;volatile
  4435     0A03  39F0               	andlw	-16
  4436     0A04  3808               	iorlw	8
  4437     0A05  0094               	movwf	20	;volatile
  4438     0A06                     l2439:
  4439                           
  4440                           ;hw_i2c.c: 23:     SSPADD=19;
  4441     0A06  3013               	movlw	19
  4442     0A07  1683               	bsf	3,5	;RP0=1, select bank1
  4443     0A08  1303               	bcf	3,6	;RP1=0, select bank1
  4444     0A09  0093               	movwf	19	;volatile
  4445     0A0A                     l2441:
  4446                           
  4447                           ;hw_i2c.c: 49:     SSPCON2=0;
  4448     0A0A  0191               	clrf	17	;volatile
  4449     0A0B                     l2443:
  4450                           
  4451                           ;hw_i2c.c: 51:     SSPSTATbits.SMP=1;
  4452     0A0B  1794               	bsf	20,7	;volatile
  4453     0A0C                     l162:
  4454     0A0C  0008               	return
  4455     0A0D                     __end_of_I2C_Init:
  4456                           
  4457                           	psect	text13
  4458     0AEF                     __ptext13:	
  4459 ;; *************** function _Global_Init *****************
  4460 ;; Defined at:
  4461 ;;		line 5 in file "inits.c"
  4462 ;; Parameters:    Size  Location     Type
  4463 ;;		None
  4464 ;; Auto vars:     Size  Location     Type
  4465 ;;		None
  4466 ;; Return value:  Size  Location     Type
  4467 ;;                  1    wreg      void 
  4468 ;; Registers used:
  4469 ;;		wreg, status,2, status,0
  4470 ;; Tracked objects:
  4471 ;;		On entry : 0/0
  4472 ;;		On exit  : 0/0
  4473 ;;		Unchanged: 0/0
  4474 ;; Data sizes:     COMMON   BANK0   BANK1   BANK3   BANK2
  4475 ;;      Params:         0       0       0       0       0
  4476 ;;      Locals:         0       0       0       0       0
  4477 ;;      Temps:          0       0       0       0       0
  4478 ;;      Totals:         0       0       0       0       0
  4479 ;;Total ram usage:        0 bytes
  4480 ;; Hardware stack levels used: 1
  4481 ;; Hardware stack levels required when called: 1
  4482 ;; This function calls:
  4483 ;;		Nothing
  4484 ;; This function is called by:
  4485 ;;		_main
  4486 ;; This function uses a non-reentrant model
  4487 ;;
  4488                           
  4489     0AEF                     _Global_Init:	
  4490                           ;psect for function _Global_Init
  4491                           
  4492     0AEF                     l2359:	
  4493                           ;incstack = 0
  4494                           ; Regs used in _Global_Init: [wreg+status,2+status,0]
  4495                           
  4496                           
  4497                           ;inits.c: 8:     OSCCONbits.IRCF=0b111;
  4498     0AEF  3070               	movlw	112
  4499     0AF0  1683               	bsf	3,5	;RP0=1, select bank1
  4500     0AF1  1303               	bcf	3,6	;RP1=0, select bank1
  4501     0AF2  048F               	iorwf	15,f	;volatile
  4502     0AF3                     l2361:
  4503                           
  4504                           ;inits.c: 9:     OSCCONbits.OSTS=0;
  4505     0AF3  118F               	bcf	15,3	;volatile
  4506     0AF4                     l2363:
  4507                           
  4508                           ;inits.c: 10:     OSCCONbits.SCS=1;
  4509     0AF4  140F               	bsf	15,0	;volatile
  4510     0AF5                     l2365:
  4511                           
  4512                           ;inits.c: 17:     ANSEL=0b10101111;
  4513     0AF5  30AF               	movlw	175
  4514     0AF6  1683               	bsf	3,5	;RP0=1, select bank3
  4515     0AF7  1703               	bsf	3,6	;RP1=1, select bank3
  4516     0AF8  0088               	movwf	8	;volatile
  4517     0AF9                     l2367:
  4518                           
  4519                           ;inits.c: 18:     ANSELH=0x00;
  4520     0AF9  0189               	clrf	9	;volatile
  4521     0AFA                     l2369:
  4522                           
  4523                           ;inits.c: 20:     TRISC0=0;
  4524     0AFA  1683               	bsf	3,5	;RP0=1, select bank1
  4525     0AFB  1303               	bcf	3,6	;RP1=0, select bank1
  4526     0AFC  1007               	bcf	7,0	;volatile
  4527     0AFD                     l2371:
  4528                           
  4529                           ;inits.c: 21:     TRISC1=0;
  4530     0AFD  1087               	bcf	7,1	;volatile
  4531     0AFE                     l2373:
  4532                           
  4533                           ;inits.c: 22:     TRISC2=0;
  4534     0AFE  1107               	bcf	7,2	;volatile
  4535     0AFF                     l2375:
  4536                           
  4537                           ;inits.c: 23:     TRISC3=1;
  4538     0AFF  1587               	bsf	7,3	;volatile
  4539     0B00                     l2377:
  4540                           
  4541                           ;inits.c: 24:     TRISC4=1;
  4542     0B00  1607               	bsf	7,4	;volatile
  4543     0B01                     l2379:
  4544                           
  4545                           ;inits.c: 25:     TRISC5=0;
  4546     0B01  1287               	bcf	7,5	;volatile
  4547     0B02                     l2381:
  4548                           
  4549                           ;inits.c: 26:     TRISC6=0;
  4550     0B02  1307               	bcf	7,6	;volatile
  4551     0B03                     l2383:
  4552                           
  4553                           ;inits.c: 27:     TRISC7=1;
  4554     0B03  1787               	bsf	7,7	;volatile
  4555     0B04                     l2385:
  4556                           
  4557                           ;inits.c: 29:     TRISA0=1;
  4558     0B04  1405               	bsf	5,0	;volatile
  4559     0B05                     l2387:
  4560                           
  4561                           ;inits.c: 30:     TRISA1=1;
  4562     0B05  1485               	bsf	5,1	;volatile
  4563     0B06                     l2389:
  4564                           
  4565                           ;inits.c: 31:     TRISA2=1;
  4566     0B06  1505               	bsf	5,2	;volatile
  4567     0B07                     l2391:
  4568                           
  4569                           ;inits.c: 32:     TRISA3=1;
  4570     0B07  1585               	bsf	5,3	;volatile
  4571     0B08                     l2393:
  4572                           
  4573                           ;inits.c: 33:     TRISA4=0;
  4574     0B08  1205               	bcf	5,4	;volatile
  4575     0B09                     l2395:
  4576                           
  4577                           ;inits.c: 34:     TRISA5=1;
  4578     0B09  1685               	bsf	5,5	;volatile
  4579     0B0A                     l2397:
  4580                           
  4581                           ;inits.c: 35:     TRISA6=0;
  4582     0B0A  1305               	bcf	5,6	;volatile
  4583     0B0B                     l2399:
  4584                           
  4585                           ;inits.c: 36:     TRISA7=1;
  4586     0B0B  1785               	bsf	5,7	;volatile
  4587     0B0C                     l2401:
  4588                           
  4589                           ;inits.c: 38:     TRISB0=0;
  4590     0B0C  1006               	bcf	6,0	;volatile
  4591     0B0D                     l2403:
  4592                           
  4593                           ;inits.c: 39:     TRISB1=0;
  4594     0B0D  1086               	bcf	6,1	;volatile
  4595     0B0E                     l2405:
  4596                           
  4597                           ;inits.c: 40:     TRISB2=0;
  4598     0B0E  1106               	bcf	6,2	;volatile
  4599     0B0F                     l2407:
  4600                           
  4601                           ;inits.c: 41:     TRISB3=0;
  4602     0B0F  1186               	bcf	6,3	;volatile
  4603     0B10                     l2409:
  4604                           
  4605                           ;inits.c: 42:     TRISB4=0;
  4606     0B10  1206               	bcf	6,4	;volatile
  4607     0B11                     l2411:
  4608                           
  4609                           ;inits.c: 43:     TRISB5=0;
  4610     0B11  1286               	bcf	6,5	;volatile
  4611     0B12                     l2413:
  4612                           
  4613                           ;inits.c: 44:     TRISB6=0;
  4614     0B12  1306               	bcf	6,6	;volatile
  4615     0B13                     l2415:
  4616                           
  4617                           ;inits.c: 45:     TRISB7=0;
  4618     0B13  1386               	bcf	6,7	;volatile
  4619     0B14                     l2417:
  4620                           
  4621                           ;inits.c: 47:     PORTBbits.RB5=1;
  4622     0B14  1283               	bcf	3,5	;RP0=0, select bank0
  4623     0B15  1303               	bcf	3,6	;RP1=0, select bank0
  4624     0B16  1686               	bsf	6,5	;volatile
  4625     0B17                     l2419:
  4626                           
  4627                           ;inits.c: 48:     PORTBbits.RB4=1;
  4628     0B17  1606               	bsf	6,4	;volatile
  4629     0B18                     l113:
  4630     0B18  0008               	return
  4631     0B19                     __end_of_Global_Init:
  4632                           
  4633                           	psect	text14
  4634     016A                     __ptext14:	
  4635 ;; *************** function _AutoFox_INA226_Init *****************
  4636 ;; Defined at:
  4637 ;;		line 108 in file "ina226.c"
  4638 ;; Parameters:    Size  Location     Type
  4639 ;;  this            2   45[BANK0 ] PTR struct AutoFox_INA22
  4640 ;;		 -> main@ina226(14), 
  4641 ;;  aI2C_Address    1   47[BANK0 ] unsigned char 
  4642 ;;  aShuntResist    2   48[BANK0 ] unsigned short 
  4643 ;;  aMaxCurrent_    4   50[BANK0 ] unsigned long 
  4644 ;; Auto vars:     Size  Location     Type
  4645 ;;  s               1   64[BANK0 ] enum E1803
  4646 ;;  s               1   63[BANK0 ] enum E1803
  4647 ;;  s               1   62[BANK0 ] enum E1803
  4648 ;;  s               1   61[BANK0 ] enum E1803
  4649 ;;  s               1   60[BANK0 ] enum E1803
  4650 ;;  s               1   59[BANK0 ] enum E1803
  4651 ;;  s               1   58[BANK0 ] enum E1803
  4652 ;;  theINA226_ID    2   65[BANK0 ] unsigned short 
  4653 ;; Return value:  Size  Location     Type
  4654 ;;                  1    wreg      enum E1727
  4655 ;; Registers used:
  4656 ;;		wreg, fsr0l, fsr0h, status,2, status,0, btemp+1, pclath, cstack
  4657 ;; Tracked objects:
  4658 ;;		On entry : 0/0
  4659 ;;		On exit  : 0/0
  4660 ;;		Unchanged: 0/0
  4661 ;; Data sizes:     COMMON   BANK0   BANK1   BANK3   BANK2
  4662 ;;      Params:         0       9       0       0       0
  4663 ;;      Locals:         0       9       0       0       0
  4664 ;;      Temps:          0       4       0       0       0
  4665 ;;      Totals:         0      22       0       0       0
  4666 ;;Total ram usage:       22 bytes
  4667 ;; Hardware stack levels used: 1
  4668 ;; Hardware stack levels required when called: 5
  4669 ;; This function calls:
  4670 ;;		_AutoFox_INA226_CheckI2cAddress
  4671 ;;		_AutoFox_INA226_ReadRegister
  4672 ;;		_AutoFox_INA226_WriteRegister
  4673 ;;		_AutoFox_INA226_setupCalibration
  4674 ;;		_SendUART_debug
  4675 ;; This function is called by:
  4676 ;;		_main
  4677 ;; This function uses a non-reentrant model
  4678 ;;
  4679                           
  4680     016A                     _AutoFox_INA226_Init:	
  4681                           ;psect for function _AutoFox_INA226_Init
  4682                           
  4683     016A                     l3209:	
  4684                           ;incstack = 0
  4685                           ; Regs used in _AutoFox_INA226_Init: [wreg-fsr0h+status,2+status,0+btemp+1+pclath+cstack
      +                          ]
  4686                           
  4687                           
  4688                           ;ina226.c: 108: status AutoFox_INA226_Init(AutoFox_INA226* this, uint8_t aI2C_Address, u
      +                          int16_t aShuntResistor_mOhms, uint32_t aMaxCurrent_Amps);ina226.c: 109: {;ina226.c: 110:
      +                               this->mInitialized = 0;
  4689     016A  1283               	bcf	3,5	;RP0=0, select bank0
  4690     016B  1303               	bcf	3,6	;RP1=0, select bank0
  4691     016C  084D               	movf	AutoFox_INA226_Init@this,w
  4692     016D  0084               	movwf	4
  4693     016E  1783               	bsf	3,7
  4694     016F  1C4E               	btfss	AutoFox_INA226_Init@this+1,0
  4695     0170  1383               	bcf	3,7
  4696     0171  0180               	clrf	0
  4697     0172                     l3211:
  4698     0172  084F               	movf	AutoFox_INA226_Init@aI2C_Address,w
  4699     0173  120A  158A  229E  120A  118A  	fcall	_AutoFox_INA226_CheckI2cAddress
  4700     0178  1283               	bcf	3,5	;RP0=0, select bank0
  4701     0179  1303               	bcf	3,6	;RP1=0, select bank0
  4702     017A  00DA               	movwf	AutoFox_INA226_Init@s
  4703     017B                     l3213:
  4704     017B  085A               	movf	AutoFox_INA226_Init@s,w
  4705     017C  1903               	btfsc	3,2
  4706     017D  297F               	goto	u2411
  4707     017E  2980               	goto	u2410
  4708     017F                     u2411:
  4709     017F  2982               	goto	l3219
  4710     0180                     u2410:
  4711     0180                     l3215:
  4712     0180  085A               	movf	AutoFox_INA226_Init@s,w
  4713     0181  2A71               	goto	l303
  4714     0182                     l3219:
  4715                           
  4716                           ;ina226.c: 114: SendUART_debug('a');
  4717     0182  3061               	movlw	97
  4718     0183  120A  158A  2385  120A  118A  	fcall	_SendUART_debug
  4719     0188                     l3221:
  4720     0188  1283               	bcf	3,5	;RP0=0, select bank0
  4721     0189  1303               	bcf	3,6	;RP1=0, select bank0
  4722     018A  084D               	movf	AutoFox_INA226_Init@this,w
  4723     018B  00A0               	movwf	AutoFox_INA226_ReadRegister@this
  4724     018C  084E               	movf	AutoFox_INA226_Init@this+1,w
  4725     018D  00A1               	movwf	AutoFox_INA226_ReadRegister@this+1
  4726     018E  30FE               	movlw	254
  4727     018F  00A2               	movwf	AutoFox_INA226_ReadRegister@aRegister
  4728     0190  3061               	movlw	(low (AutoFox_INA226_Init@theINA226_ID| 0))& (0+255)
  4729     0191  00A3               	movwf	AutoFox_INA226_ReadRegister@aValue_p
  4730     0192  3000               	movlw	0
  4731     0193  00A4               	movwf	AutoFox_INA226_ReadRegister@aValue_p+1
  4732     0194  120A  158A  2757  120A  118A  	fcall	_AutoFox_INA226_ReadRegister
  4733     0199  1283               	bcf	3,5	;RP0=0, select bank0
  4734     019A  1303               	bcf	3,6	;RP1=0, select bank0
  4735     019B  00DB               	movwf	AutoFox_INA226_Init@s_868
  4736     019C                     l3223:
  4737     019C  085B               	movf	AutoFox_INA226_Init@s_868,w
  4738     019D  1903               	btfsc	3,2
  4739     019E  29A0               	goto	u2421
  4740     019F  29A1               	goto	u2420
  4741     01A0                     u2421:
  4742     01A0  29A3               	goto	l3229
  4743     01A1                     u2420:
  4744     01A1                     l3225:
  4745     01A1  085B               	movf	AutoFox_INA226_Init@s_868,w
  4746     01A2  2A71               	goto	l303
  4747     01A3                     l3229:
  4748                           
  4749                           ;ina226.c: 120:     if(theINA226_ID != INA226_MANUFACTURER_ID_K){
  4750     01A3  3049               	movlw	73
  4751     01A4  0661               	xorwf	AutoFox_INA226_Init@theINA226_ID,w
  4752     01A5  3054               	movlw	84
  4753     01A6  1903               	skipnz
  4754     01A7  0662               	xorwf	AutoFox_INA226_Init@theINA226_ID+1,w
  4755     01A8  1903               	btfsc	3,2
  4756     01A9  29AB               	goto	u2431
  4757     01AA  29AC               	goto	u2430
  4758     01AB                     u2431:
  4759     01AB  29AE               	goto	l3235
  4760     01AC                     u2430:
  4761     01AC                     l3231:
  4762                           
  4763                           ;ina226.c: 121:         return INA226_TI_ID_MISMATCH;
  4764     01AC  30FE               	movlw	254
  4765     01AD  2A71               	goto	l303
  4766     01AE                     l3235:
  4767     01AE  084D               	movf	AutoFox_INA226_Init@this,w
  4768     01AF  00A0               	movwf	AutoFox_INA226_ReadRegister@this
  4769     01B0  084E               	movf	AutoFox_INA226_Init@this+1,w
  4770     01B1  00A1               	movwf	AutoFox_INA226_ReadRegister@this+1
  4771     01B2  30FF               	movlw	255
  4772     01B3  00A2               	movwf	AutoFox_INA226_ReadRegister@aRegister
  4773     01B4  3061               	movlw	(low (AutoFox_INA226_Init@theINA226_ID| 0))& (0+255)
  4774     01B5  00A3               	movwf	AutoFox_INA226_ReadRegister@aValue_p
  4775     01B6  3000               	movlw	0
  4776     01B7  00A4               	movwf	AutoFox_INA226_ReadRegister@aValue_p+1
  4777     01B8  120A  158A  2757  120A  118A  	fcall	_AutoFox_INA226_ReadRegister
  4778     01BD  1283               	bcf	3,5	;RP0=0, select bank0
  4779     01BE  1303               	bcf	3,6	;RP1=0, select bank0
  4780     01BF  00DC               	movwf	AutoFox_INA226_Init@s_869
  4781     01C0                     l3237:
  4782     01C0  085C               	movf	AutoFox_INA226_Init@s_869,w
  4783     01C1  1903               	btfsc	3,2
  4784     01C2  29C4               	goto	u2441
  4785     01C3  29C5               	goto	u2440
  4786     01C4                     u2441:
  4787     01C4  29C7               	goto	l3243
  4788     01C5                     u2440:
  4789     01C5                     l3239:
  4790     01C5  085C               	movf	AutoFox_INA226_Init@s_869,w
  4791     01C6  2A71               	goto	l303
  4792     01C7                     l3243:
  4793                           
  4794                           ;ina226.c: 124:     if(theINA226_ID != INA226_DIE_ID_K){
  4795     01C7  3060               	movlw	96
  4796     01C8  0661               	xorwf	AutoFox_INA226_Init@theINA226_ID,w
  4797     01C9  3022               	movlw	34
  4798     01CA  1903               	skipnz
  4799     01CB  0662               	xorwf	AutoFox_INA226_Init@theINA226_ID+1,w
  4800     01CC  1903               	btfsc	3,2
  4801     01CD  29CF               	goto	u2451
  4802     01CE  29D0               	goto	u2450
  4803     01CF                     u2451:
  4804     01CF  29D2               	goto	l3249
  4805     01D0                     u2450:
  4806     01D0                     l3245:
  4807                           
  4808                           ;ina226.c: 125:         return INA226_DIE_ID_MISMATCH;
  4809     01D0  30FD               	movlw	253
  4810     01D1  2A71               	goto	l303
  4811     01D2                     l3249:
  4812                           
  4813                           ;ina226.c: 127:     this->mI2C_Address = aI2C_Address;
  4814     01D2  084D               	movf	AutoFox_INA226_Init@this,w
  4815     01D3  3E01               	addlw	1
  4816     01D4  00D6               	movwf	??_AutoFox_INA226_Init
  4817     01D5  084E               	movf	AutoFox_INA226_Init@this+1,w
  4818     01D6  1803               	skipnc
  4819     01D7  3E01               	addlw	1
  4820     01D8  3E00               	addlw	0
  4821     01D9  00D7               	movwf	??_AutoFox_INA226_Init+1
  4822     01DA  0856               	movf	??_AutoFox_INA226_Init,w
  4823     01DB  0084               	movwf	4
  4824     01DC  1783               	bsf	3,7
  4825     01DD  1C57               	btfss	??_AutoFox_INA226_Init+1,0
  4826     01DE  1383               	bcf	3,7
  4827     01DF  084F               	movf	AutoFox_INA226_Init@aI2C_Address,w
  4828     01E0  0080               	movwf	0
  4829     01E1                     l3251:
  4830     01E1  084D               	movf	AutoFox_INA226_Init@this,w
  4831     01E2  00F5               	movwf	AutoFox_INA226_WriteRegister@this
  4832     01E3  084E               	movf	AutoFox_INA226_Init@this+1,w
  4833     01E4  00F6               	movwf	AutoFox_INA226_WriteRegister@this+1
  4834     01E5  01F7               	clrf	AutoFox_INA226_WriteRegister@aRegister
  4835     01E6  3000               	movlw	0
  4836     01E7  00F8               	movwf	AutoFox_INA226_WriteRegister@aValue
  4837     01E8  3080               	movlw	128
  4838     01E9  00F9               	movwf	AutoFox_INA226_WriteRegister@aValue+1
  4839     01EA  120A  158A  24EF  120A  118A  	fcall	_AutoFox_INA226_WriteRegister
  4840     01EF  1283               	bcf	3,5	;RP0=0, select bank0
  4841     01F0  1303               	bcf	3,6	;RP1=0, select bank0
  4842     01F1  00DD               	movwf	AutoFox_INA226_Init@s_870
  4843     01F2                     l3253:
  4844     01F2  085D               	movf	AutoFox_INA226_Init@s_870,w
  4845     01F3  1903               	btfsc	3,2
  4846     01F4  29F6               	goto	u2461
  4847     01F5  29F7               	goto	u2460
  4848     01F6                     u2461:
  4849     01F6  29F9               	goto	l3259
  4850     01F7                     u2460:
  4851     01F7                     l3255:
  4852     01F7  085D               	movf	AutoFox_INA226_Init@s_870,w
  4853     01F8  2A71               	goto	l303
  4854     01F9                     l3259:
  4855     01F9  084D               	movf	AutoFox_INA226_Init@this,w
  4856     01FA  00F5               	movwf	AutoFox_INA226_WriteRegister@this
  4857     01FB  084E               	movf	AutoFox_INA226_Init@this+1,w
  4858     01FC  00F6               	movwf	AutoFox_INA226_WriteRegister@this+1
  4859     01FD  01F7               	clrf	AutoFox_INA226_WriteRegister@aRegister
  4860     01FE  3027               	movlw	39
  4861     01FF  00F8               	movwf	AutoFox_INA226_WriteRegister@aValue
  4862     0200  3045               	movlw	69
  4863     0201  00F9               	movwf	AutoFox_INA226_WriteRegister@aValue+1
  4864     0202  120A  158A  24EF  120A  118A  	fcall	_AutoFox_INA226_WriteRegister
  4865     0207  1283               	bcf	3,5	;RP0=0, select bank0
  4866     0208  1303               	bcf	3,6	;RP1=0, select bank0
  4867     0209  00DE               	movwf	AutoFox_INA226_Init@s_871
  4868     020A                     l3261:
  4869     020A  085E               	movf	AutoFox_INA226_Init@s_871,w
  4870     020B  1903               	btfsc	3,2
  4871     020C  2A0E               	goto	u2471
  4872     020D  2A0F               	goto	u2470
  4873     020E                     u2471:
  4874     020E  2A11               	goto	l3267
  4875     020F                     u2470:
  4876     020F                     l3263:
  4877     020F  085E               	movf	AutoFox_INA226_Init@s_871,w
  4878     0210  2A71               	goto	l303
  4879     0211                     l3267:
  4880     0211  084D               	movf	AutoFox_INA226_Init@this,w
  4881     0212  00A0               	movwf	AutoFox_INA226_ReadRegister@this
  4882     0213  084E               	movf	AutoFox_INA226_Init@this+1,w
  4883     0214  00A1               	movwf	AutoFox_INA226_ReadRegister@this+1
  4884     0215  01A2               	clrf	AutoFox_INA226_ReadRegister@aRegister
  4885     0216  084D               	movf	AutoFox_INA226_Init@this,w
  4886     0217  3E02               	addlw	2
  4887     0218  00A3               	movwf	AutoFox_INA226_ReadRegister@aValue_p
  4888     0219  084E               	movf	AutoFox_INA226_Init@this+1,w
  4889     021A  1803               	skipnc
  4890     021B  3E01               	addlw	1
  4891     021C  3E00               	addlw	0
  4892     021D  00A4               	movwf	AutoFox_INA226_ReadRegister@aValue_p+1
  4893     021E  120A  158A  2757  120A  118A  	fcall	_AutoFox_INA226_ReadRegister
  4894     0223  1283               	bcf	3,5	;RP0=0, select bank0
  4895     0224  1303               	bcf	3,6	;RP1=0, select bank0
  4896     0225  00DF               	movwf	AutoFox_INA226_Init@s_872
  4897     0226                     l3269:
  4898     0226  085F               	movf	AutoFox_INA226_Init@s_872,w
  4899     0227  1903               	btfsc	3,2
  4900     0228  2A2A               	goto	u2481
  4901     0229  2A2B               	goto	u2480
  4902     022A                     u2481:
  4903     022A  2A2D               	goto	l3275
  4904     022B                     u2480:
  4905     022B                     l3271:
  4906     022B  085F               	movf	AutoFox_INA226_Init@s_872,w
  4907     022C  2A71               	goto	l303
  4908     022D                     l3275:
  4909                           
  4910                           ;ina226.c: 135:     if(this->mConfigRegister != INA226_CONFIG_DEFAULT){
  4911     022D  084D               	movf	AutoFox_INA226_Init@this,w
  4912     022E  3E02               	addlw	2
  4913     022F  00D6               	movwf	??_AutoFox_INA226_Init
  4914     0230  084E               	movf	AutoFox_INA226_Init@this+1,w
  4915     0231  1803               	skipnc
  4916     0232  3E01               	addlw	1
  4917     0233  3E00               	addlw	0
  4918     0234  00D7               	movwf	??_AutoFox_INA226_Init+1
  4919     0235  0856               	movf	??_AutoFox_INA226_Init,w
  4920     0236  0084               	movwf	4
  4921     0237  1783               	bsf	3,7
  4922     0238  1C57               	btfss	??_AutoFox_INA226_Init+1,0
  4923     0239  1383               	bcf	3,7
  4924     023A  0800               	movf	0,w
  4925     023B  00D8               	movwf	??_AutoFox_INA226_Init+2
  4926     023C  0A84               	incf	4,f
  4927     023D  0800               	movf	0,w
  4928     023E  00D9               	movwf	??_AutoFox_INA226_Init+3
  4929     023F  3027               	movlw	39
  4930     0240  0658               	xorwf	??_AutoFox_INA226_Init+2,w
  4931     0241  3045               	movlw	69
  4932     0242  1903               	skipnz
  4933     0243  0659               	xorwf	??_AutoFox_INA226_Init+3,w
  4934     0244  1903               	btfsc	3,2
  4935     0245  2A47               	goto	u2491
  4936     0246  2A48               	goto	u2490
  4937     0247                     u2491:
  4938     0247  2A4A               	goto	l3281
  4939     0248                     u2490:
  4940     0248                     l3277:
  4941                           
  4942                           ;ina226.c: 136:         return CONFIG_ERROR;
  4943     0248  30FC               	movlw	252
  4944     0249  2A71               	goto	l303
  4945     024A                     l3281:
  4946     024A  084D               	movf	AutoFox_INA226_Init@this,w
  4947     024B  00B5               	movwf	AutoFox_INA226_setupCalibration@this
  4948     024C  084E               	movf	AutoFox_INA226_Init@this+1,w
  4949     024D  00B6               	movwf	AutoFox_INA226_setupCalibration@this+1
  4950     024E  0851               	movf	AutoFox_INA226_Init@aShuntResistor_mOhms+1,w
  4951     024F  00B8               	movwf	AutoFox_INA226_setupCalibration@aShuntResistor_mOhms+1
  4952     0250  0850               	movf	AutoFox_INA226_Init@aShuntResistor_mOhms,w
  4953     0251  00B7               	movwf	AutoFox_INA226_setupCalibration@aShuntResistor_mOhms
  4954     0252  0855               	movf	AutoFox_INA226_Init@aMaxCurrent_Amps+3,w
  4955     0253  00BC               	movwf	AutoFox_INA226_setupCalibration@aMaxCurrent_Amps+3
  4956     0254  0854               	movf	AutoFox_INA226_Init@aMaxCurrent_Amps+2,w
  4957     0255  00BB               	movwf	AutoFox_INA226_setupCalibration@aMaxCurrent_Amps+2
  4958     0256  0853               	movf	AutoFox_INA226_Init@aMaxCurrent_Amps+1,w
  4959     0257  00BA               	movwf	AutoFox_INA226_setupCalibration@aMaxCurrent_Amps+1
  4960     0258  0852               	movf	AutoFox_INA226_Init@aMaxCurrent_Amps,w
  4961     0259  00B9               	movwf	AutoFox_INA226_setupCalibration@aMaxCurrent_Amps
  4962     025A  120A  118A  2272  120A  118A  	fcall	_AutoFox_INA226_setupCalibration
  4963     025F  1283               	bcf	3,5	;RP0=0, select bank0
  4964     0260  1303               	bcf	3,6	;RP1=0, select bank0
  4965     0261  00E0               	movwf	AutoFox_INA226_Init@s_873
  4966     0262                     l3283:
  4967     0262  0860               	movf	AutoFox_INA226_Init@s_873,w
  4968     0263  1903               	btfsc	3,2
  4969     0264  2A66               	goto	u2501
  4970     0265  2A67               	goto	u2500
  4971     0266                     u2501:
  4972     0266  2A69               	goto	l3289
  4973     0267                     u2500:
  4974     0267                     l3285:
  4975     0267  0860               	movf	AutoFox_INA226_Init@s_873,w
  4976     0268  2A71               	goto	l303
  4977     0269                     l3289:
  4978                           
  4979                           ;ina226.c: 141:     this->mInitialized = 1;
  4980     0269  084D               	movf	AutoFox_INA226_Init@this,w
  4981     026A  0084               	movwf	4
  4982     026B  1783               	bsf	3,7
  4983     026C  1C4E               	btfss	AutoFox_INA226_Init@this+1,0
  4984     026D  1383               	bcf	3,7
  4985     026E  3001               	movlw	1
  4986     026F  0080               	movwf	0
  4987     0270                     l3291:
  4988                           
  4989                           ;ina226.c: 142:     return OK;
  4990     0270  3000               	movlw	0
  4991     0271                     l303:
  4992     0271  0008               	return
  4993     0272                     __end_of_AutoFox_INA226_Init:
  4994                           
  4995                           	psect	text15
  4996     0B85                     __ptext15:	
  4997 ;; *************** function _SendUART_debug *****************
  4998 ;; Defined at:
  4999 ;;		line 20 in file "sw_uart.c"
  5000 ;; Parameters:    Size  Location     Type
  5001 ;;  data            1    wreg     unsigned char 
  5002 ;; Auto vars:     Size  Location     Type
  5003 ;;  data            1    3[COMMON] unsigned char 
  5004 ;;  i               1    4[COMMON] unsigned char 
  5005 ;; Return value:  Size  Location     Type
  5006 ;;                  1    wreg      void 
  5007 ;; Registers used:
  5008 ;;		wreg, status,2, status,0
  5009 ;; Tracked objects:
  5010 ;;		On entry : 0/0
  5011 ;;		On exit  : 0/0
  5012 ;;		Unchanged: 0/0
  5013 ;; Data sizes:     COMMON   BANK0   BANK1   BANK3   BANK2
  5014 ;;      Params:         0       0       0       0       0
  5015 ;;      Locals:         2       0       0       0       0
  5016 ;;      Temps:          1       0       0       0       0
  5017 ;;      Totals:         3       0       0       0       0
  5018 ;;Total ram usage:        3 bytes
  5019 ;; Hardware stack levels used: 1
  5020 ;; Hardware stack levels required when called: 1
  5021 ;; This function calls:
  5022 ;;		Nothing
  5023 ;; This function is called by:
  5024 ;;		_putch
  5025 ;;		_AutoFox_INA226_Init
  5026 ;;		_SendErrorStatus
  5027 ;; This function uses a non-reentrant model
  5028 ;;
  5029                           
  5030     0B85                     _SendUART_debug:	
  5031                           ;psect for function _SendUART_debug
  5032                           
  5033                           
  5034                           ;incstack = 0
  5035                           ; Regs used in _SendUART_debug: [wreg+status,2+status,0]
  5036                           ;SendUART_debug@data stored from wreg
  5037     0B85  00F4               	movwf	SendUART_debug@data
  5038     0B86                     l2991:
  5039                           
  5040                           ;sw_uart.c: 20: void SendUART_debug(unsigned char data);sw_uart.c: 21: {;sw_uart.c: 22: 
      +                              INTCONbits.GIE=0;
  5041     0B86  138B               	bcf	11,7	;volatile
  5042                           
  5043                           ;sw_uart.c: 23:  PORTAbits.RA4=0;
  5044     0B87  1283               	bcf	3,5	;RP0=0, select bank0
  5045     0B88  1303               	bcf	3,6	;RP1=0, select bank0
  5046     0B89  1205               	bcf	5,4	;volatile
  5047     0B8A                     l2993:
  5048                           
  5049                           ;sw_uart.c: 24:  _delay((unsigned long)(((1000000 / 2400))*(8000000/4000000.0)));
  5050     0B8A  30A6               	movlw	166
  5051     0B8B  00F3               	movwf	??_SendUART_debug
  5052     0B8C                     u2877:
  5053     0B8C  2B8D               	nop2
  5054     0B8D  0BF3               	decfsz	??_SendUART_debug,f
  5055     0B8E  2B8C               	goto	u2877
  5056     0B8F  0000               	nop
  5057     0B90                     l2995:
  5058                           
  5059                           ;sw_uart.c: 26:  for(unsigned char i=0;i<8;i++)
  5060     0B90  01F5               	clrf	SendUART_debug@i
  5061     0B91                     l3001:
  5062                           
  5063                           ;sw_uart.c: 27:  {;sw_uart.c: 28:   if(data & (1 << i))
  5064     0B91  3001               	movlw	1
  5065     0B92  00F3               	movwf	??_SendUART_debug
  5066     0B93  0A75               	incf	SendUART_debug@i,w
  5067     0B94  2B97               	goto	u2004
  5068     0B95                     u2005:
  5069     0B95  1003               	clrc
  5070     0B96  0DF3               	rlf	??_SendUART_debug,f
  5071     0B97                     u2004:
  5072     0B97  3EFF               	addlw	-1
  5073     0B98  1D03               	skipz
  5074     0B99  2B95               	goto	u2005
  5075     0B9A  0873               	movf	??_SendUART_debug,w
  5076     0B9B  0574               	andwf	SendUART_debug@data,w
  5077     0B9C  1903               	btfsc	3,2
  5078     0B9D  2B9F               	goto	u2011
  5079     0B9E  2BA0               	goto	u2010
  5080     0B9F                     u2011:
  5081     0B9F  2BA4               	goto	l210
  5082     0BA0                     u2010:
  5083     0BA0                     l3003:
  5084                           
  5085                           ;sw_uart.c: 29:   {;sw_uart.c: 30:    PORTAbits.RA4=1;
  5086     0BA0  1283               	bcf	3,5	;RP0=0, select bank0
  5087     0BA1  1303               	bcf	3,6	;RP1=0, select bank0
  5088     0BA2  1605               	bsf	5,4	;volatile
  5089                           
  5090                           ;sw_uart.c: 31:   }else
  5091     0BA3  2BA7               	goto	l3005
  5092     0BA4                     l210:
  5093                           
  5094                           ;sw_uart.c: 32:   {;sw_uart.c: 33:    PORTAbits.RA4=0;
  5095     0BA4  1283               	bcf	3,5	;RP0=0, select bank0
  5096     0BA5  1303               	bcf	3,6	;RP1=0, select bank0
  5097     0BA6  1205               	bcf	5,4	;volatile
  5098     0BA7                     l3005:
  5099                           
  5100                           ;sw_uart.c: 35:   _delay((unsigned long)(((1000000 / 2400))*(8000000/4000000.0)));
  5101     0BA7  30A6               	movlw	166
  5102     0BA8  00F3               	movwf	??_SendUART_debug
  5103     0BA9                     u2887:
  5104     0BA9  2BAA               	nop2
  5105     0BAA  0BF3               	decfsz	??_SendUART_debug,f
  5106     0BAB  2BA9               	goto	u2887
  5107     0BAC  0000               	nop
  5108     0BAD                     l3007:
  5109                           
  5110                           ;sw_uart.c: 36:  }
  5111     0BAD  3001               	movlw	1
  5112     0BAE  07F5               	addwf	SendUART_debug@i,f
  5113     0BAF                     l3009:
  5114     0BAF  3008               	movlw	8
  5115     0BB0  0275               	subwf	SendUART_debug@i,w
  5116     0BB1  1C03               	skipc
  5117     0BB2  2BB4               	goto	u2021
  5118     0BB3  2BB5               	goto	u2020
  5119     0BB4                     u2021:
  5120     0BB4  2B91               	goto	l3001
  5121     0BB5                     u2020:
  5122     0BB5                     l209:
  5123                           
  5124                           ;sw_uart.c: 38:  PORTAbits.RA4=1;
  5125     0BB5  1283               	bcf	3,5	;RP0=0, select bank0
  5126     0BB6  1303               	bcf	3,6	;RP1=0, select bank0
  5127     0BB7  1605               	bsf	5,4	;volatile
  5128     0BB8                     l3011:
  5129                           
  5130                           ;sw_uart.c: 39:  _delay((unsigned long)(((1000000 / 2400))*(8000000/4000000.0)));
  5131     0BB8  30A6               	movlw	166
  5132     0BB9  00F3               	movwf	??_SendUART_debug
  5133     0BBA                     u2897:
  5134     0BBA  2BBB               	nop2
  5135     0BBB  0BF3               	decfsz	??_SendUART_debug,f
  5136     0BBC  2BBA               	goto	u2897
  5137     0BBD  0000               	nop
  5138     0BBE                     l3013:
  5139                           
  5140                           ;sw_uart.c: 40:     INTCONbits.GIE=1;
  5141     0BBE  178B               	bsf	11,7	;volatile
  5142     0BBF                     l212:
  5143     0BBF  0008               	return
  5144     0BC0                     __end_of_SendUART_debug:
  5145                           
  5146                           	psect	text16
  5147     0272                     __ptext16:	
  5148 ;; *************** function _AutoFox_INA226_setupCalibration *****************
  5149 ;; Defined at:
  5150 ;;		line 147 in file "ina226.c"
  5151 ;; Parameters:    Size  Location     Type
  5152 ;;  this            2   21[BANK0 ] PTR struct AutoFox_INA22
  5153 ;;		 -> main@ina226(14), 
  5154 ;;  aShuntResist    2   23[BANK0 ] unsigned short 
  5155 ;;  aMaxCurrent_    4   25[BANK0 ] unsigned long 
  5156 ;; Auto vars:     Size  Location     Type
  5157 ;;  theCurrentLS    4   41[BANK0 ] unsigned long 
  5158 ;;  theCal          4   37[BANK0 ] unsigned long 
  5159 ;; Return value:  Size  Location     Type
  5160 ;;                  1    wreg      enum E1803
  5161 ;; Registers used:
  5162 ;;		wreg, fsr0l, fsr0h, status,2, status,0, pclath, cstack
  5163 ;; Tracked objects:
  5164 ;;		On entry : 0/0
  5165 ;;		On exit  : 0/0
  5166 ;;		Unchanged: 0/0
  5167 ;; Data sizes:     COMMON   BANK0   BANK1   BANK3   BANK2
  5168 ;;      Params:         0       8       0       0       0
  5169 ;;      Locals:         0       8       0       0       0
  5170 ;;      Temps:          0       8       0       0       0
  5171 ;;      Totals:         0      24       0       0       0
  5172 ;;Total ram usage:       24 bytes
  5173 ;; Hardware stack levels used: 1
  5174 ;; Hardware stack levels required when called: 4
  5175 ;; This function calls:
  5176 ;;		_AutoFox_INA226_WriteRegister
  5177 ;;		___lldiv
  5178 ;;		___lmul
  5179 ;; This function is called by:
  5180 ;;		_AutoFox_INA226_Init
  5181 ;; This function uses a non-reentrant model
  5182 ;;
  5183                           
  5184     0272                     _AutoFox_INA226_setupCalibration:	
  5185                           ;psect for function _AutoFox_INA226_setupCalibration
  5186                           
  5187     0272                     l3187:	
  5188                           ;incstack = 0
  5189                           ; Regs used in _AutoFox_INA226_setupCalibration: [wreg-fsr0h+status,2+status,0+pclath+cs
      +                          tack]
  5190                           
  5191                           
  5192                           ;ina226.c: 147: status AutoFox_INA226_setupCalibration(AutoFox_INA226* this, uint16_t aS
      +                          huntResistor_mOhms, uint32_t aMaxCurrent_Amps);ina226.c: 148: {;ina226.c: 152:     uint3
      +                          2_t theCurrentLSB_uA = (aMaxCurrent_Amps * 1000000 + 32766) / 32767;
  5193     0272  3000               	movlw	0
  5194     0273  1283               	bcf	3,5	;RP0=0, select bank0
  5195     0274  1303               	bcf	3,6	;RP1=0, select bank0
  5196     0275  00AB               	movwf	___lldiv@divisor+3
  5197     0276  3000               	movlw	0
  5198     0277  00AA               	movwf	___lldiv@divisor+2
  5199     0278  307F               	movlw	127
  5200     0279  00A9               	movwf	___lldiv@divisor+1
  5201     027A  30FF               	movlw	255
  5202     027B  00A8               	movwf	___lldiv@divisor
  5203     027C  30FE               	movlw	254
  5204     027D  00BD               	movwf	??_AutoFox_INA226_setupCalibration
  5205     027E  307F               	movlw	127
  5206     027F  00BE               	movwf	??_AutoFox_INA226_setupCalibration+1
  5207     0280  3000               	movlw	0
  5208     0281  00BF               	movwf	??_AutoFox_INA226_setupCalibration+2
  5209     0282  3000               	movlw	0
  5210     0283  00C0               	movwf	??_AutoFox_INA226_setupCalibration+3
  5211     0284  083C               	movf	AutoFox_INA226_setupCalibration@aMaxCurrent_Amps+3,w
  5212     0285  00A3               	movwf	___lmul@multiplier+3
  5213     0286  083B               	movf	AutoFox_INA226_setupCalibration@aMaxCurrent_Amps+2,w
  5214     0287  00A2               	movwf	___lmul@multiplier+2
  5215     0288  083A               	movf	AutoFox_INA226_setupCalibration@aMaxCurrent_Amps+1,w
  5216     0289  00A1               	movwf	___lmul@multiplier+1
  5217     028A  0839               	movf	AutoFox_INA226_setupCalibration@aMaxCurrent_Amps,w
  5218     028B  00A0               	movwf	___lmul@multiplier
  5219     028C  3000               	movlw	0
  5220     028D  00A7               	movwf	___lmul@multiplicand+3
  5221     028E  300F               	movlw	15
  5222     028F  00A6               	movwf	___lmul@multiplicand+2
  5223     0290  3042               	movlw	66
  5224     0291  00A5               	movwf	___lmul@multiplicand+1
  5225     0292  3040               	movlw	64
  5226     0293  00A4               	movwf	___lmul@multiplicand
  5227     0294  120A  158A  2402  120A  118A  	fcall	___lmul
  5228     0299  1283               	bcf	3,5	;RP0=0, select bank0
  5229     029A  1303               	bcf	3,6	;RP1=0, select bank0
  5230     029B  0820               	movf	?___lmul,w
  5231     029C  07BD               	addwf	??_AutoFox_INA226_setupCalibration,f
  5232     029D  0821               	movf	?___lmul+1,w
  5233     029E  1803               	skipnc
  5234     029F  0F21               	incfsz	?___lmul+1,w
  5235     02A0  2AA2               	goto	u2370
  5236     02A1  2AA3               	goto	u2371
  5237     02A2                     u2370:
  5238     02A2  07BE               	addwf	??_AutoFox_INA226_setupCalibration+1,f
  5239     02A3                     u2371:
  5240     02A3  0822               	movf	?___lmul+2,w
  5241     02A4  1803               	skipnc
  5242     02A5  0F22               	incfsz	?___lmul+2,w
  5243     02A6  2AA8               	goto	u2372
  5244     02A7  2AA9               	goto	u2373
  5245     02A8                     u2372:
  5246     02A8  07BF               	addwf	??_AutoFox_INA226_setupCalibration+2,f
  5247     02A9                     u2373:
  5248     02A9  0823               	movf	?___lmul+3,w
  5249     02AA  1803               	skipnc
  5250     02AB  0A23               	incf	?___lmul+3,w
  5251     02AC  07C0               	addwf	??_AutoFox_INA226_setupCalibration+3,f
  5252     02AD  0840               	movf	??_AutoFox_INA226_setupCalibration+3,w
  5253     02AE  00AF               	movwf	___lldiv@dividend+3
  5254     02AF  083F               	movf	??_AutoFox_INA226_setupCalibration+2,w
  5255     02B0  00AE               	movwf	___lldiv@dividend+2
  5256     02B1  083E               	movf	??_AutoFox_INA226_setupCalibration+1,w
  5257     02B2  00AD               	movwf	___lldiv@dividend+1
  5258     02B3  083D               	movf	??_AutoFox_INA226_setupCalibration,w
  5259     02B4  00AC               	movwf	___lldiv@dividend
  5260     02B5  120A  118A  2014  120A  118A  	fcall	___lldiv
  5261     02BA  1283               	bcf	3,5	;RP0=0, select bank0
  5262     02BB  1303               	bcf	3,6	;RP1=0, select bank0
  5263     02BC  082B               	movf	?___lldiv+3,w
  5264     02BD  00CC               	movwf	AutoFox_INA226_setupCalibration@theCurrentLSB_uA+3
  5265     02BE  082A               	movf	?___lldiv+2,w
  5266     02BF  00CB               	movwf	AutoFox_INA226_setupCalibration@theCurrentLSB_uA+2
  5267     02C0  0829               	movf	?___lldiv+1,w
  5268     02C1  00CA               	movwf	AutoFox_INA226_setupCalibration@theCurrentLSB_uA+1
  5269     02C2  0828               	movf	?___lldiv,w
  5270     02C3  00C9               	movwf	AutoFox_INA226_setupCalibration@theCurrentLSB_uA
  5271                           
  5272                           ;ina226.c: 157:     uint32_t theCal = (5120000 + (aShuntResistor_mOhms * theCurrentLSB_u
      +                          A) / 2) /
  5273     02C4  0837               	movf	AutoFox_INA226_setupCalibration@aShuntResistor_mOhms,w
  5274     02C5  00A0               	movwf	___lmul@multiplier
  5275     02C6  0838               	movf	AutoFox_INA226_setupCalibration@aShuntResistor_mOhms+1,w
  5276     02C7  00A1               	movwf	___lmul@multiplier+1
  5277     02C8  01A2               	clrf	___lmul@multiplier+2
  5278     02C9  01A3               	clrf	___lmul@multiplier+3
  5279     02CA  084C               	movf	AutoFox_INA226_setupCalibration@theCurrentLSB_uA+3,w
  5280     02CB  00A7               	movwf	___lmul@multiplicand+3
  5281     02CC  084B               	movf	AutoFox_INA226_setupCalibration@theCurrentLSB_uA+2,w
  5282     02CD  00A6               	movwf	___lmul@multiplicand+2
  5283     02CE  084A               	movf	AutoFox_INA226_setupCalibration@theCurrentLSB_uA+1,w
  5284     02CF  00A5               	movwf	___lmul@multiplicand+1
  5285     02D0  0849               	movf	AutoFox_INA226_setupCalibration@theCurrentLSB_uA,w
  5286     02D1  00A4               	movwf	___lmul@multiplicand
  5287     02D2  120A  158A  2402  120A  118A  	fcall	___lmul
  5288     02D7  1283               	bcf	3,5	;RP0=0, select bank0
  5289     02D8  1303               	bcf	3,6	;RP1=0, select bank0
  5290     02D9  0823               	movf	?___lmul+3,w
  5291     02DA  00AB               	movwf	___lldiv@divisor+3
  5292     02DB  0822               	movf	?___lmul+2,w
  5293     02DC  00AA               	movwf	___lldiv@divisor+2
  5294     02DD  0821               	movf	?___lmul+1,w
  5295     02DE  00A9               	movwf	___lldiv@divisor+1
  5296     02DF  0820               	movf	?___lmul,w
  5297     02E0  00A8               	movwf	___lldiv@divisor
  5298     02E1  3000               	movlw	0
  5299     02E2  00BD               	movwf	??_AutoFox_INA226_setupCalibration
  5300     02E3  3020               	movlw	32
  5301     02E4  00BE               	movwf	??_AutoFox_INA226_setupCalibration+1
  5302     02E5  304E               	movlw	78
  5303     02E6  00BF               	movwf	??_AutoFox_INA226_setupCalibration+2
  5304     02E7  3000               	movlw	0
  5305     02E8  00C0               	movwf	??_AutoFox_INA226_setupCalibration+3
  5306     02E9  0837               	movf	AutoFox_INA226_setupCalibration@aShuntResistor_mOhms,w
  5307     02EA  00A0               	movwf	___lmul@multiplier
  5308     02EB  0838               	movf	AutoFox_INA226_setupCalibration@aShuntResistor_mOhms+1,w
  5309     02EC  00A1               	movwf	___lmul@multiplier+1
  5310     02ED  01A2               	clrf	___lmul@multiplier+2
  5311     02EE  01A3               	clrf	___lmul@multiplier+3
  5312     02EF  084C               	movf	AutoFox_INA226_setupCalibration@theCurrentLSB_uA+3,w
  5313     02F0  00A7               	movwf	___lmul@multiplicand+3
  5314     02F1  084B               	movf	AutoFox_INA226_setupCalibration@theCurrentLSB_uA+2,w
  5315     02F2  00A6               	movwf	___lmul@multiplicand+2
  5316     02F3  084A               	movf	AutoFox_INA226_setupCalibration@theCurrentLSB_uA+1,w
  5317     02F4  00A5               	movwf	___lmul@multiplicand+1
  5318     02F5  0849               	movf	AutoFox_INA226_setupCalibration@theCurrentLSB_uA,w
  5319     02F6  00A4               	movwf	___lmul@multiplicand
  5320     02F7  120A  158A  2402  120A  118A  	fcall	___lmul
  5321     02FC  1283               	bcf	3,5	;RP0=0, select bank0
  5322     02FD  1303               	bcf	3,6	;RP1=0, select bank0
  5323     02FE  0820               	movf	?___lmul,w
  5324     02FF  00C1               	movwf	??_AutoFox_INA226_setupCalibration+4
  5325     0300  0821               	movf	?___lmul+1,w
  5326     0301  00C2               	movwf	??_AutoFox_INA226_setupCalibration+5
  5327     0302  0822               	movf	?___lmul+2,w
  5328     0303  00C3               	movwf	??_AutoFox_INA226_setupCalibration+6
  5329     0304  0823               	movf	?___lmul+3,w
  5330     0305  00C4               	movwf	??_AutoFox_INA226_setupCalibration+7
  5331     0306  3001               	movlw	1
  5332     0307                     u2385:
  5333     0307  1003               	clrc
  5334     0308  0CC4               	rrf	??_AutoFox_INA226_setupCalibration+7,f
  5335     0309  0CC3               	rrf	??_AutoFox_INA226_setupCalibration+6,f
  5336     030A  0CC2               	rrf	??_AutoFox_INA226_setupCalibration+5,f
  5337     030B  0CC1               	rrf	??_AutoFox_INA226_setupCalibration+4,f
  5338     030C                     u2380:
  5339     030C  3EFF               	addlw	-1
  5340     030D  1D03               	skipz
  5341     030E  2B07               	goto	u2385
  5342     030F  0841               	movf	??_AutoFox_INA226_setupCalibration+4,w
  5343     0310  07BD               	addwf	??_AutoFox_INA226_setupCalibration,f
  5344     0311  0842               	movf	??_AutoFox_INA226_setupCalibration+5,w
  5345     0312  1803               	skipnc
  5346     0313  0F42               	incfsz	??_AutoFox_INA226_setupCalibration+5,w
  5347     0314  2B16               	goto	u2390
  5348     0315  2B17               	goto	u2391
  5349     0316                     u2390:
  5350     0316  07BE               	addwf	??_AutoFox_INA226_setupCalibration+1,f
  5351     0317                     u2391:
  5352     0317  0843               	movf	??_AutoFox_INA226_setupCalibration+6,w
  5353     0318  1803               	skipnc
  5354     0319  0F43               	incfsz	??_AutoFox_INA226_setupCalibration+6,w
  5355     031A  2B1C               	goto	u2392
  5356     031B  2B1D               	goto	u2393
  5357     031C                     u2392:
  5358     031C  07BF               	addwf	??_AutoFox_INA226_setupCalibration+2,f
  5359     031D                     u2393:
  5360     031D  0844               	movf	??_AutoFox_INA226_setupCalibration+7,w
  5361     031E  1803               	skipnc
  5362     031F  0A44               	incf	??_AutoFox_INA226_setupCalibration+7,w
  5363     0320  07C0               	addwf	??_AutoFox_INA226_setupCalibration+3,f
  5364     0321  0840               	movf	??_AutoFox_INA226_setupCalibration+3,w
  5365     0322  00AF               	movwf	___lldiv@dividend+3
  5366     0323  083F               	movf	??_AutoFox_INA226_setupCalibration+2,w
  5367     0324  00AE               	movwf	___lldiv@dividend+2
  5368     0325  083E               	movf	??_AutoFox_INA226_setupCalibration+1,w
  5369     0326  00AD               	movwf	___lldiv@dividend+1
  5370     0327  083D               	movf	??_AutoFox_INA226_setupCalibration,w
  5371     0328  00AC               	movwf	___lldiv@dividend
  5372     0329  120A  118A  2014  120A  118A  	fcall	___lldiv
  5373     032E  1283               	bcf	3,5	;RP0=0, select bank0
  5374     032F  1303               	bcf	3,6	;RP1=0, select bank0
  5375     0330  082B               	movf	?___lldiv+3,w
  5376     0331  00C8               	movwf	AutoFox_INA226_setupCalibration@theCal+3
  5377     0332  082A               	movf	?___lldiv+2,w
  5378     0333  00C7               	movwf	AutoFox_INA226_setupCalibration@theCal+2
  5379     0334  0829               	movf	?___lldiv+1,w
  5380     0335  00C6               	movwf	AutoFox_INA226_setupCalibration@theCal+1
  5381     0336  0828               	movf	?___lldiv,w
  5382     0337  00C5               	movwf	AutoFox_INA226_setupCalibration@theCal
  5383     0338                     l3189:
  5384                           
  5385                           ;ina226.c: 161:     this->mCurrentMicroAmpsPerBit = (int32_t)theCurrentLSB_uA;
  5386     0338  0835               	movf	AutoFox_INA226_setupCalibration@this,w
  5387     0339  3E06               	addlw	6
  5388     033A  00BD               	movwf	??_AutoFox_INA226_setupCalibration
  5389     033B  0836               	movf	AutoFox_INA226_setupCalibration@this+1,w
  5390     033C  1803               	skipnc
  5391     033D  3E01               	addlw	1
  5392     033E  3E00               	addlw	0
  5393     033F  00BE               	movwf	??_AutoFox_INA226_setupCalibration+1
  5394     0340  083D               	movf	??_AutoFox_INA226_setupCalibration,w
  5395     0341  0084               	movwf	4
  5396     0342  1783               	bsf	3,7
  5397     0343  1C3E               	btfss	??_AutoFox_INA226_setupCalibration+1,0
  5398     0344  1383               	bcf	3,7
  5399     0345  0849               	movf	AutoFox_INA226_setupCalibration@theCurrentLSB_uA,w
  5400     0346  0080               	movwf	0
  5401     0347  0A84               	incf	4,f
  5402     0348  084A               	movf	AutoFox_INA226_setupCalibration@theCurrentLSB_uA+1,w
  5403     0349  0080               	movwf	0
  5404     034A  0A84               	incf	4,f
  5405     034B  084B               	movf	AutoFox_INA226_setupCalibration@theCurrentLSB_uA+2,w
  5406     034C  0080               	movwf	0
  5407     034D  0A84               	incf	4,f
  5408     034E  084C               	movf	AutoFox_INA226_setupCalibration@theCurrentLSB_uA+3,w
  5409     034F  0080               	movwf	0
  5410     0350                     l3191:
  5411                           
  5412                           ;ina226.c: 162:     this->mCalibrationValue = (uint16_t)theCal;
  5413     0350  0835               	movf	AutoFox_INA226_setupCalibration@this,w
  5414     0351  3E04               	addlw	4
  5415     0352  00BD               	movwf	??_AutoFox_INA226_setupCalibration
  5416     0353  0836               	movf	AutoFox_INA226_setupCalibration@this+1,w
  5417     0354  1803               	skipnc
  5418     0355  3E01               	addlw	1
  5419     0356  3E00               	addlw	0
  5420     0357  00BE               	movwf	??_AutoFox_INA226_setupCalibration+1
  5421     0358  083D               	movf	??_AutoFox_INA226_setupCalibration,w
  5422     0359  0084               	movwf	4
  5423     035A  1783               	bsf	3,7
  5424     035B  1C3E               	btfss	??_AutoFox_INA226_setupCalibration+1,0
  5425     035C  1383               	bcf	3,7
  5426     035D  0845               	movf	AutoFox_INA226_setupCalibration@theCal,w
  5427     035E  0080               	movwf	0
  5428     035F  0A84               	incf	4,f
  5429     0360  0846               	movf	AutoFox_INA226_setupCalibration@theCal+1,w
  5430     0361  0080               	movwf	0
  5431     0362                     l3193:
  5432                           
  5433                           ;ina226.c: 163:     this->mPowerMicroWattPerBit = this->mCurrentMicroAmpsPerBit * INA226
      +                          _POWER_LSB_FACTOR;
  5434     0362  0835               	movf	AutoFox_INA226_setupCalibration@this,w
  5435     0363  3E06               	addlw	6
  5436     0364  00BD               	movwf	??_AutoFox_INA226_setupCalibration
  5437     0365  0836               	movf	AutoFox_INA226_setupCalibration@this+1,w
  5438     0366  1803               	skipnc
  5439     0367  3E01               	addlw	1
  5440     0368  3E00               	addlw	0
  5441     0369  00BE               	movwf	??_AutoFox_INA226_setupCalibration+1
  5442     036A  083D               	movf	??_AutoFox_INA226_setupCalibration,w
  5443     036B  0084               	movwf	4
  5444     036C  1783               	bsf	3,7
  5445     036D  1C3E               	btfss	??_AutoFox_INA226_setupCalibration+1,0
  5446     036E  1383               	bcf	3,7
  5447     036F  0800               	movf	0,w
  5448     0370  00A0               	movwf	___lmul@multiplier
  5449     0371  0A84               	incf	4,f
  5450     0372  0800               	movf	0,w
  5451     0373  00A1               	movwf	___lmul@multiplier+1
  5452     0374  0A84               	incf	4,f
  5453     0375  0800               	movf	0,w
  5454     0376  00A2               	movwf	___lmul@multiplier+2
  5455     0377  0A84               	incf	4,f
  5456     0378  0800               	movf	0,w
  5457     0379  00A3               	movwf	___lmul@multiplier+3
  5458     037A  3000               	movlw	0
  5459     037B  00A7               	movwf	___lmul@multiplicand+3
  5460     037C  3000               	movlw	0
  5461     037D  00A6               	movwf	___lmul@multiplicand+2
  5462     037E  3000               	movlw	0
  5463     037F  00A5               	movwf	___lmul@multiplicand+1
  5464     0380  3019               	movlw	25
  5465     0381  00A4               	movwf	___lmul@multiplicand
  5466     0382  120A  158A  2402  120A  118A  	fcall	___lmul
  5467     0387  1283               	bcf	3,5	;RP0=0, select bank0
  5468     0388  1303               	bcf	3,6	;RP1=0, select bank0
  5469     0389  0835               	movf	AutoFox_INA226_setupCalibration@this,w
  5470     038A  3E0A               	addlw	10
  5471     038B  00BF               	movwf	??_AutoFox_INA226_setupCalibration+2
  5472     038C  0836               	movf	AutoFox_INA226_setupCalibration@this+1,w
  5473     038D  1803               	skipnc
  5474     038E  3E01               	addlw	1
  5475     038F  3E00               	addlw	0
  5476     0390  00C0               	movwf	??_AutoFox_INA226_setupCalibration+3
  5477     0391  083F               	movf	??_AutoFox_INA226_setupCalibration+2,w
  5478     0392  0084               	movwf	4
  5479     0393  1783               	bsf	3,7
  5480     0394  1C40               	btfss	??_AutoFox_INA226_setupCalibration+3,0
  5481     0395  1383               	bcf	3,7
  5482     0396  0820               	movf	?___lmul,w
  5483     0397  0080               	movwf	0
  5484     0398  0A84               	incf	4,f
  5485     0399  0821               	movf	?___lmul+1,w
  5486     039A  0080               	movwf	0
  5487     039B  0A84               	incf	4,f
  5488     039C  0822               	movf	?___lmul+2,w
  5489     039D  0080               	movwf	0
  5490     039E  0A84               	incf	4,f
  5491     039F  0823               	movf	?___lmul+3,w
  5492     03A0  0080               	movwf	0
  5493     03A1                     l3195:
  5494                           
  5495                           ;ina226.c: 166:     return AutoFox_INA226_WriteRegister(this, INA226_CALIBRATION, this->
      +                          mCalibrationValue);
  5496     03A1  0835               	movf	AutoFox_INA226_setupCalibration@this,w
  5497     03A2  00F5               	movwf	AutoFox_INA226_WriteRegister@this
  5498     03A3  0836               	movf	AutoFox_INA226_setupCalibration@this+1,w
  5499     03A4  00F6               	movwf	AutoFox_INA226_WriteRegister@this+1
  5500     03A5  3005               	movlw	5
  5501     03A6  00F7               	movwf	AutoFox_INA226_WriteRegister@aRegister
  5502     03A7  0835               	movf	AutoFox_INA226_setupCalibration@this,w
  5503     03A8  3E04               	addlw	4
  5504     03A9  00BD               	movwf	??_AutoFox_INA226_setupCalibration
  5505     03AA  0836               	movf	AutoFox_INA226_setupCalibration@this+1,w
  5506     03AB  1803               	skipnc
  5507     03AC  3E01               	addlw	1
  5508     03AD  3E00               	addlw	0
  5509     03AE  00BE               	movwf	??_AutoFox_INA226_setupCalibration+1
  5510     03AF  083D               	movf	??_AutoFox_INA226_setupCalibration,w
  5511     03B0  0084               	movwf	4
  5512     03B1  1783               	bsf	3,7
  5513     03B2  1C3E               	btfss	??_AutoFox_INA226_setupCalibration+1,0
  5514     03B3  1383               	bcf	3,7
  5515     03B4  0800               	movf	0,w
  5516     03B5  00F8               	movwf	AutoFox_INA226_WriteRegister@aValue
  5517     03B6  0A84               	incf	4,f
  5518     03B7  0800               	movf	0,w
  5519     03B8  00F9               	movwf	AutoFox_INA226_WriteRegister@aValue+1
  5520     03B9  120A  158A  24EF  120A  118A  	fcall	_AutoFox_INA226_WriteRegister
  5521     03BE                     l328:
  5522     03BE  0008               	return
  5523     03BF                     __end_of_AutoFox_INA226_setupCalibration:
  5524                           
  5525                           	psect	text17
  5526     0A9E                     __ptext17:	
  5527 ;; *************** function _AutoFox_INA226_CheckI2cAddress *****************
  5528 ;; Defined at:
  5529 ;;		line 172 in file "ina226.c"
  5530 ;; Parameters:    Size  Location     Type
  5531 ;;  aI2C_Address    1    wreg     unsigned char 
  5532 ;; Auto vars:     Size  Location     Type
  5533 ;;  aI2C_Address    1    6[COMMON] unsigned char 
  5534 ;; Return value:  Size  Location     Type
  5535 ;;                  1    wreg      enum E1803
  5536 ;; Registers used:
  5537 ;;		wreg, status,2, status,0, pclath, cstack
  5538 ;; Tracked objects:
  5539 ;;		On entry : 0/0
  5540 ;;		On exit  : 0/0
  5541 ;;		Unchanged: 0/0
  5542 ;; Data sizes:     COMMON   BANK0   BANK1   BANK3   BANK2
  5543 ;;      Params:         0       0       0       0       0
  5544 ;;      Locals:         1       0       0       0       0
  5545 ;;      Temps:          2       0       0       0       0
  5546 ;;      Totals:         3       0       0       0       0
  5547 ;;Total ram usage:        3 bytes
  5548 ;; Hardware stack levels used: 1
  5549 ;; Hardware stack levels required when called: 3
  5550 ;; This function calls:
  5551 ;;		_I2C_Master_Start
  5552 ;;		_I2C_Master_Stop
  5553 ;;		_I2C_Master_Write
  5554 ;; This function is called by:
  5555 ;;		_AutoFox_INA226_Init
  5556 ;; This function uses a non-reentrant model
  5557 ;;
  5558                           
  5559     0A9E                     _AutoFox_INA226_CheckI2cAddress:	
  5560                           ;psect for function _AutoFox_INA226_CheckI2cAddress
  5561                           
  5562                           
  5563                           ;incstack = 0
  5564                           ; Regs used in _AutoFox_INA226_CheckI2cAddress: [wreg+status,2+status,0+pclath+cstack]
  5565                           ;AutoFox_INA226_CheckI2cAddress@aI2C_Address stored from wreg
  5566     0A9E  00F7               	movwf	AutoFox_INA226_CheckI2cAddress@aI2C_Address
  5567     0A9F                     l2273:
  5568                           
  5569                           ;ina226.c: 172: status AutoFox_INA226_CheckI2cAddress(uint8_t aI2C_Address);ina226.c: 17
      +                          3: {;ina226.c: 174:     I2C_Master_Start();
  5570     0A9F  120A  158A  21E3  120A  158A  	fcall	_I2C_Master_Start
  5571     0AA4                     l2275:
  5572                           
  5573                           ;ina226.c: 177:     I2C_Master_Write((aI2C_Address << 1) | 0);
  5574     0AA4  0877               	movf	AutoFox_INA226_CheckI2cAddress@aI2C_Address,w
  5575     0AA5  00F5               	movwf	??_AutoFox_INA226_CheckI2cAddress
  5576     0AA6  01F6               	clrf	??_AutoFox_INA226_CheckI2cAddress+1
  5577     0AA7  1003               	clrc
  5578     0AA8  0D75               	rlf	??_AutoFox_INA226_CheckI2cAddress,w
  5579     0AA9  00F3               	movwf	I2C_Master_Write@data
  5580     0AAA  0D76               	rlf	??_AutoFox_INA226_CheckI2cAddress+1,w
  5581     0AAB  00F4               	movwf	I2C_Master_Write@data+1
  5582     0AAC  120A  158A  21F5  120A  158A  	fcall	_I2C_Master_Write
  5583     0AB1                     l2277:
  5584                           
  5585                           ;ina226.c: 179:     if (ACKSTAT == 0)
  5586     0AB1  1683               	bsf	3,5	;RP0=1, select bank1
  5587     0AB2  1303               	bcf	3,6	;RP1=0, select bank1
  5588     0AB3  1B11               	btfsc	17,6	;volatile
  5589     0AB4  2AB6               	goto	u1461
  5590     0AB5  2AB7               	goto	u1460
  5591     0AB6                     u1461:
  5592     0AB6  2ABE               	goto	l2287
  5593     0AB7                     u1460:
  5594     0AB7                     l2279:
  5595                           
  5596                           ;ina226.c: 180:     {;ina226.c: 181:         I2C_Master_Stop();
  5597     0AB7  120A  158A  21EC  120A  158A  	fcall	_I2C_Master_Stop
  5598     0ABC                     l2281:
  5599                           
  5600                           ;ina226.c: 182:         return OK;
  5601     0ABC  3000               	movlw	0
  5602     0ABD  2AC4               	goto	l332
  5603     0ABE                     l2287:
  5604                           
  5605                           ;ina226.c: 185:     {;ina226.c: 186:         I2C_Master_Stop();
  5606     0ABE  120A  158A  21EC  120A  158A  	fcall	_I2C_Master_Stop
  5607     0AC3                     l2289:
  5608                           
  5609                           ;ina226.c: 187:         return INVALID_I2C_ADDRESS;
  5610     0AC3  30F8               	movlw	248
  5611     0AC4                     l332:
  5612     0AC4  0008               	return
  5613     0AC5                     __end_of_AutoFox_INA226_CheckI2cAddress:
  5614                           
  5615                           	psect	text18
  5616     0C4A                     __ptext18:	
  5617 ;; *************** function _AutoFox_INA226_GetBusVoltage_V *****************
  5618 ;; Defined at:
  5619 ;;		line 248 in file "ina226.c"
  5620 ;; Parameters:    Size  Location     Type
  5621 ;;  this            2   21[BANK0 ] PTR struct AutoFox_INA22
  5622 ;;		 -> main@ina226(14), 
  5623 ;; Auto vars:     Size  Location     Type
  5624 ;;  theRegisterV    4   23[BANK0 ] unsigned long 
  5625 ;; Return value:  Size  Location     Type
  5626 ;;                  2   21[BANK0 ] unsigned short 
  5627 ;; Registers used:
  5628 ;;		wreg, fsr0l, fsr0h, status,2, status,0, btemp+1, pclath, cstack
  5629 ;; Tracked objects:
  5630 ;;		On entry : 0/0
  5631 ;;		On exit  : 0/0
  5632 ;;		Unchanged: 0/0
  5633 ;; Data sizes:     COMMON   BANK0   BANK1   BANK3   BANK2
  5634 ;;      Params:         0       2       0       0       0
  5635 ;;      Locals:         0       4       0       0       0
  5636 ;;      Temps:          0       0       0       0       0
  5637 ;;      Totals:         0       6       0       0       0
  5638 ;;Total ram usage:        6 bytes
  5639 ;; Hardware stack levels used: 1
  5640 ;; Hardware stack levels required when called: 4
  5641 ;; This function calls:
  5642 ;;		_AutoFox_INA226_ReadRegister
  5643 ;;		___lldiv
  5644 ;;		___lmul
  5645 ;; This function is called by:
  5646 ;;		_main
  5647 ;; This function uses a non-reentrant model
  5648 ;;
  5649                           
  5650     0C4A                     _AutoFox_INA226_GetBusVoltage_V:	
  5651                           ;psect for function _AutoFox_INA226_GetBusVoltage_V
  5652                           
  5653     0C4A                     l3397:	
  5654                           ;incstack = 0
  5655                           ; Regs used in _AutoFox_INA226_GetBusVoltage_V: [wreg-fsr0h+status,2+status,0+btemp+1+pc
      +                          lath+cstack]
  5656                           
  5657                           
  5658                           ;ina226.c: 248: uint16_t AutoFox_INA226_GetBusVoltage_V(AutoFox_INA226* this);ina226.c: 
      +                          249: {;ina226.c: 250:     uint32_t theRegisterValue = 0;
  5659     0C4A  3000               	movlw	0
  5660     0C4B  1283               	bcf	3,5	;RP0=0, select bank0
  5661     0C4C  1303               	bcf	3,6	;RP1=0, select bank0
  5662     0C4D  00BA               	movwf	AutoFox_INA226_GetBusVoltage_V@theRegisterValue+3
  5663     0C4E  3000               	movlw	0
  5664     0C4F  00B9               	movwf	AutoFox_INA226_GetBusVoltage_V@theRegisterValue+2
  5665     0C50  3000               	movlw	0
  5666     0C51  00B8               	movwf	AutoFox_INA226_GetBusVoltage_V@theRegisterValue+1
  5667     0C52  3000               	movlw	0
  5668     0C53  00B7               	movwf	AutoFox_INA226_GetBusVoltage_V@theRegisterValue
  5669     0C54                     l3399:
  5670                           
  5671                           ;ina226.c: 251:     AutoFox_INA226_ReadRegister(this, INA226_BUS_VOLTAGE, &theRegisterVa
      +                          lue);
  5672     0C54  0835               	movf	AutoFox_INA226_GetBusVoltage_V@this,w
  5673     0C55  00A0               	movwf	AutoFox_INA226_ReadRegister@this
  5674     0C56  0836               	movf	AutoFox_INA226_GetBusVoltage_V@this+1,w
  5675     0C57  00A1               	movwf	AutoFox_INA226_ReadRegister@this+1
  5676     0C58  3002               	movlw	2
  5677     0C59  00A2               	movwf	AutoFox_INA226_ReadRegister@aRegister
  5678     0C5A  3037               	movlw	(low (AutoFox_INA226_GetBusVoltage_V@theRegisterValue| 0))& (0+255)
  5679     0C5B  00A3               	movwf	AutoFox_INA226_ReadRegister@aValue_p
  5680     0C5C  3000               	movlw	0
  5681     0C5D  00A4               	movwf	AutoFox_INA226_ReadRegister@aValue_p+1
  5682     0C5E  120A  158A  2757  120A  158A  	fcall	_AutoFox_INA226_ReadRegister
  5683     0C63                     l3401:
  5684                           
  5685                           ;ina226.c: 252:     return (uint16_t)((theRegisterValue * INA226_BUS_VOLTAGE_LSB)/10000)
      +                          ;
  5686     0C63  3000               	movlw	0
  5687     0C64  1283               	bcf	3,5	;RP0=0, select bank0
  5688     0C65  1303               	bcf	3,6	;RP1=0, select bank0
  5689     0C66  00AB               	movwf	___lldiv@divisor+3
  5690     0C67  3000               	movlw	0
  5691     0C68  00AA               	movwf	___lldiv@divisor+2
  5692     0C69  3027               	movlw	39
  5693     0C6A  00A9               	movwf	___lldiv@divisor+1
  5694     0C6B  3010               	movlw	16
  5695     0C6C  00A8               	movwf	___lldiv@divisor
  5696     0C6D  083A               	movf	AutoFox_INA226_GetBusVoltage_V@theRegisterValue+3,w
  5697     0C6E  00A3               	movwf	___lmul@multiplier+3
  5698     0C6F  0839               	movf	AutoFox_INA226_GetBusVoltage_V@theRegisterValue+2,w
  5699     0C70  00A2               	movwf	___lmul@multiplier+2
  5700     0C71  0838               	movf	AutoFox_INA226_GetBusVoltage_V@theRegisterValue+1,w
  5701     0C72  00A1               	movwf	___lmul@multiplier+1
  5702     0C73  0837               	movf	AutoFox_INA226_GetBusVoltage_V@theRegisterValue,w
  5703     0C74  00A0               	movwf	___lmul@multiplier
  5704     0C75  3000               	movlw	0
  5705     0C76  00A7               	movwf	___lmul@multiplicand+3
  5706     0C77  3000               	movlw	0
  5707     0C78  00A6               	movwf	___lmul@multiplicand+2
  5708     0C79  3004               	movlw	4
  5709     0C7A  00A5               	movwf	___lmul@multiplicand+1
  5710     0C7B  30CF               	movlw	207
  5711     0C7C  00A4               	movwf	___lmul@multiplicand
  5712     0C7D  120A  158A  2402  120A  158A  	fcall	___lmul
  5713     0C82  1283               	bcf	3,5	;RP0=0, select bank0
  5714     0C83  1303               	bcf	3,6	;RP1=0, select bank0
  5715     0C84  0823               	movf	?___lmul+3,w
  5716     0C85  00AF               	movwf	___lldiv@dividend+3
  5717     0C86  0822               	movf	?___lmul+2,w
  5718     0C87  00AE               	movwf	___lldiv@dividend+2
  5719     0C88  0821               	movf	?___lmul+1,w
  5720     0C89  00AD               	movwf	___lldiv@dividend+1
  5721     0C8A  0820               	movf	?___lmul,w
  5722     0C8B  00AC               	movwf	___lldiv@dividend
  5723     0C8C  120A  118A  2014  120A  158A  	fcall	___lldiv
  5724     0C91  1283               	bcf	3,5	;RP0=0, select bank0
  5725     0C92  1303               	bcf	3,6	;RP1=0, select bank0
  5726     0C93  0829               	movf	?___lldiv+1,w
  5727     0C94  00B6               	movwf	?_AutoFox_INA226_GetBusVoltage_V+1
  5728     0C95  0828               	movf	?___lldiv,w
  5729     0C96  00B5               	movwf	?_AutoFox_INA226_GetBusVoltage_V
  5730     0C97                     l345:
  5731     0C97  0008               	return
  5732     0C98                     __end_of_AutoFox_INA226_GetBusVoltage_V:
  5733                           
  5734                           	psect	text19
  5735     0C02                     __ptext19:	
  5736 ;; *************** function ___lmul *****************
  5737 ;; Defined at:
  5738 ;;		line 15 in file "C:\Program Files\Microchip\xc8\v2.50\pic\sources\c99\common\Umul32.c"
  5739 ;; Parameters:    Size  Location     Type
  5740 ;;  multiplier      4    0[BANK0 ] unsigned long 
  5741 ;;  multiplicand    4    4[BANK0 ] unsigned long 
  5742 ;; Auto vars:     Size  Location     Type
  5743 ;;  product         4    3[COMMON] unsigned long 
  5744 ;; Return value:  Size  Location     Type
  5745 ;;                  4    0[BANK0 ] unsigned long 
  5746 ;; Registers used:
  5747 ;;		wreg, status,2, status,0
  5748 ;; Tracked objects:
  5749 ;;		On entry : 0/0
  5750 ;;		On exit  : 0/0
  5751 ;;		Unchanged: 0/0
  5752 ;; Data sizes:     COMMON   BANK0   BANK1   BANK3   BANK2
  5753 ;;      Params:         0       8       0       0       0
  5754 ;;      Locals:         4       0       0       0       0
  5755 ;;      Temps:          1       0       0       0       0
  5756 ;;      Totals:         5       8       0       0       0
  5757 ;;Total ram usage:       13 bytes
  5758 ;; Hardware stack levels used: 1
  5759 ;; Hardware stack levels required when called: 1
  5760 ;; This function calls:
  5761 ;;		Nothing
  5762 ;; This function is called by:
  5763 ;;		_AutoFox_INA226_setupCalibration
  5764 ;;		_AutoFox_INA226_GetBusVoltage_V
  5765 ;;		_read_voltage
  5766 ;;		_AutoFox_INA226_GetCurrent_uA
  5767 ;;		_AutoFox_INA226_GetPower_uW
  5768 ;; This function uses a non-reentrant model
  5769 ;;
  5770                           
  5771     0C02                     ___lmul:	
  5772                           ;psect for function ___lmul
  5773                           
  5774     0C02                     l3079:	
  5775                           ;incstack = 0
  5776                           ; Regs used in ___lmul: [wreg+status,2+status,0]
  5777                           
  5778     0C02  3000               	movlw	0
  5779     0C03  00F7               	movwf	___lmul@product+3
  5780     0C04  3000               	movlw	0
  5781     0C05  00F6               	movwf	___lmul@product+2
  5782     0C06  3000               	movlw	0
  5783     0C07  00F5               	movwf	___lmul@product+1
  5784     0C08  3000               	movlw	0
  5785     0C09  00F4               	movwf	___lmul@product
  5786     0C0A                     l3081:
  5787     0C0A  1283               	bcf	3,5	;RP0=0, select bank0
  5788     0C0B  1303               	bcf	3,6	;RP1=0, select bank0
  5789     0C0C  1C20               	btfss	___lmul@multiplier,0
  5790     0C0D  2C0F               	goto	u2201
  5791     0C0E  2C10               	goto	u2200
  5792     0C0F                     u2201:
  5793     0C0F  2C27               	goto	l3085
  5794     0C10                     u2200:
  5795     0C10                     l3083:
  5796     0C10  0824               	movf	___lmul@multiplicand,w
  5797     0C11  07F4               	addwf	___lmul@product,f
  5798     0C12  0825               	movf	___lmul@multiplicand+1,w
  5799     0C13  1103               	clrz
  5800     0C14  1803               	skipnc
  5801     0C15  3E01               	addlw	1
  5802     0C16  1903               	skipnz
  5803     0C17  2C19               	goto	u2211
  5804     0C18  07F5               	addwf	___lmul@product+1,f
  5805     0C19                     u2211:
  5806     0C19  0826               	movf	___lmul@multiplicand+2,w
  5807     0C1A  1103               	clrz
  5808     0C1B  1803               	skipnc
  5809     0C1C  3E01               	addlw	1
  5810     0C1D  1903               	skipnz
  5811     0C1E  2C20               	goto	u2212
  5812     0C1F  07F6               	addwf	___lmul@product+2,f
  5813     0C20                     u2212:
  5814     0C20  0827               	movf	___lmul@multiplicand+3,w
  5815     0C21  1103               	clrz
  5816     0C22  1803               	skipnc
  5817     0C23  3E01               	addlw	1
  5818     0C24  1903               	skipnz
  5819     0C25  2C27               	goto	u2213
  5820     0C26  07F7               	addwf	___lmul@product+3,f
  5821     0C27                     u2213:
  5822     0C27                     l3085:
  5823     0C27  3001               	movlw	1
  5824     0C28  00F3               	movwf	??___lmul
  5825     0C29                     u2225:
  5826     0C29  1003               	clrc
  5827     0C2A  0DA4               	rlf	___lmul@multiplicand,f
  5828     0C2B  0DA5               	rlf	___lmul@multiplicand+1,f
  5829     0C2C  0DA6               	rlf	___lmul@multiplicand+2,f
  5830     0C2D  0DA7               	rlf	___lmul@multiplicand+3,f
  5831     0C2E  0BF3               	decfsz	??___lmul,f
  5832     0C2F  2C29               	goto	u2225
  5833     0C30                     l3087:
  5834     0C30  3001               	movlw	1
  5835     0C31                     u2235:
  5836     0C31  1003               	clrc
  5837     0C32  0CA3               	rrf	___lmul@multiplier+3,f
  5838     0C33  0CA2               	rrf	___lmul@multiplier+2,f
  5839     0C34  0CA1               	rrf	___lmul@multiplier+1,f
  5840     0C35  0CA0               	rrf	___lmul@multiplier,f
  5841     0C36  3EFF               	addlw	-1
  5842     0C37  1D03               	skipz
  5843     0C38  2C31               	goto	u2235
  5844     0C39  0823               	movf	___lmul@multiplier+3,w
  5845     0C3A  0422               	iorwf	___lmul@multiplier+2,w
  5846     0C3B  0421               	iorwf	___lmul@multiplier+1,w
  5847     0C3C  0420               	iorwf	___lmul@multiplier,w
  5848     0C3D  1D03               	skipz
  5849     0C3E  2C40               	goto	u2241
  5850     0C3F  2C41               	goto	u2240
  5851     0C40                     u2241:
  5852     0C40  2C0A               	goto	l3081
  5853     0C41                     u2240:
  5854     0C41                     l3089:
  5855     0C41  0877               	movf	___lmul@product+3,w
  5856     0C42  00A3               	movwf	?___lmul+3
  5857     0C43  0876               	movf	___lmul@product+2,w
  5858     0C44  00A2               	movwf	?___lmul+2
  5859     0C45  0875               	movf	___lmul@product+1,w
  5860     0C46  00A1               	movwf	?___lmul+1
  5861     0C47  0874               	movf	___lmul@product,w
  5862     0C48  00A0               	movwf	?___lmul
  5863     0C49                     l570:
  5864     0C49  0008               	return
  5865     0C4A                     __end_of___lmul:
  5866                           
  5867                           	psect	text20
  5868     0014                     __ptext20:	
  5869 ;; *************** function ___lldiv *****************
  5870 ;; Defined at:
  5871 ;;		line 5 in file "C:\Program Files\Microchip\xc8\v2.50\pic\sources\c99\common\__lldiv.c"
  5872 ;; Parameters:    Size  Location     Type
  5873 ;;  divisor         4    8[BANK0 ] unsigned long 
  5874 ;;  dividend        4   12[BANK0 ] unsigned long 
  5875 ;; Auto vars:     Size  Location     Type
  5876 ;;  quotient        4   16[BANK0 ] unsigned long 
  5877 ;;  counter         1   20[BANK0 ] unsigned char 
  5878 ;; Return value:  Size  Location     Type
  5879 ;;                  4    8[BANK0 ] unsigned long 
  5880 ;; Registers used:
  5881 ;;		wreg, status,2, status,0
  5882 ;; Tracked objects:
  5883 ;;		On entry : 0/0
  5884 ;;		On exit  : 0/0
  5885 ;;		Unchanged: 0/0
  5886 ;; Data sizes:     COMMON   BANK0   BANK1   BANK3   BANK2
  5887 ;;      Params:         0       8       0       0       0
  5888 ;;      Locals:         0       5       0       0       0
  5889 ;;      Temps:          1       0       0       0       0
  5890 ;;      Totals:         1      13       0       0       0
  5891 ;;Total ram usage:       14 bytes
  5892 ;; Hardware stack levels used: 1
  5893 ;; Hardware stack levels required when called: 1
  5894 ;; This function calls:
  5895 ;;		Nothing
  5896 ;; This function is called by:
  5897 ;;		_AutoFox_INA226_setupCalibration
  5898 ;;		_AutoFox_INA226_GetBusVoltage_V
  5899 ;;		_read_voltage
  5900 ;; This function uses a non-reentrant model
  5901 ;;
  5902                           
  5903     0014                     ___lldiv:	
  5904                           ;psect for function ___lldiv
  5905                           
  5906     0014                     l3093:	
  5907                           ;incstack = 0
  5908                           ; Regs used in ___lldiv: [wreg+status,2+status,0]
  5909                           
  5910     0014  3000               	movlw	0
  5911     0015  1283               	bcf	3,5	;RP0=0, select bank0
  5912     0016  1303               	bcf	3,6	;RP1=0, select bank0
  5913     0017  00B3               	movwf	___lldiv@quotient+3
  5914     0018  3000               	movlw	0
  5915     0019  00B2               	movwf	___lldiv@quotient+2
  5916     001A  3000               	movlw	0
  5917     001B  00B1               	movwf	___lldiv@quotient+1
  5918     001C  3000               	movlw	0
  5919     001D  00B0               	movwf	___lldiv@quotient
  5920     001E  082B               	movf	___lldiv@divisor+3,w
  5921     001F  042A               	iorwf	___lldiv@divisor+2,w
  5922     0020  0429               	iorwf	___lldiv@divisor+1,w
  5923     0021  0428               	iorwf	___lldiv@divisor,w
  5924     0022  1903               	skipnz
  5925     0023  2825               	goto	u2251
  5926     0024  2826               	goto	u2250
  5927     0025                     u2251:
  5928     0025  2871               	goto	l3113
  5929     0026                     u2250:
  5930     0026                     l3095:
  5931     0026  3001               	movlw	1
  5932     0027  00B4               	movwf	___lldiv@counter
  5933     0028  2834               	goto	l3099
  5934     0029                     l3097:
  5935     0029  3001               	movlw	1
  5936     002A  00F8               	movwf	??___lldiv
  5937     002B                     u2265:
  5938     002B  1003               	clrc
  5939     002C  0DA8               	rlf	___lldiv@divisor,f
  5940     002D  0DA9               	rlf	___lldiv@divisor+1,f
  5941     002E  0DAA               	rlf	___lldiv@divisor+2,f
  5942     002F  0DAB               	rlf	___lldiv@divisor+3,f
  5943     0030  0BF8               	decfsz	??___lldiv,f
  5944     0031  282B               	goto	u2265
  5945     0032  3001               	movlw	1
  5946     0033  07B4               	addwf	___lldiv@counter,f
  5947     0034                     l3099:
  5948     0034  1FAB               	btfss	___lldiv@divisor+3,7
  5949     0035  2837               	goto	u2271
  5950     0036  2838               	goto	u2270
  5951     0037                     u2271:
  5952     0037  2829               	goto	l3097
  5953     0038                     u2270:
  5954     0038                     l3101:
  5955     0038  3001               	movlw	1
  5956     0039  00F8               	movwf	??___lldiv
  5957     003A                     u2285:
  5958     003A  1003               	clrc
  5959     003B  0DB0               	rlf	___lldiv@quotient,f
  5960     003C  0DB1               	rlf	___lldiv@quotient+1,f
  5961     003D  0DB2               	rlf	___lldiv@quotient+2,f
  5962     003E  0DB3               	rlf	___lldiv@quotient+3,f
  5963     003F  0BF8               	decfsz	??___lldiv,f
  5964     0040  283A               	goto	u2285
  5965     0041                     l3103:
  5966     0041  082B               	movf	___lldiv@divisor+3,w
  5967     0042  022F               	subwf	___lldiv@dividend+3,w
  5968     0043  1D03               	skipz
  5969     0044  284F               	goto	u2295
  5970     0045  082A               	movf	___lldiv@divisor+2,w
  5971     0046  022E               	subwf	___lldiv@dividend+2,w
  5972     0047  1D03               	skipz
  5973     0048  284F               	goto	u2295
  5974     0049  0829               	movf	___lldiv@divisor+1,w
  5975     004A  022D               	subwf	___lldiv@dividend+1,w
  5976     004B  1D03               	skipz
  5977     004C  284F               	goto	u2295
  5978     004D  0828               	movf	___lldiv@divisor,w
  5979     004E  022C               	subwf	___lldiv@dividend,w
  5980     004F                     u2295:
  5981     004F  1C03               	skipc
  5982     0050  2852               	goto	u2291
  5983     0051  2853               	goto	u2290
  5984     0052                     u2291:
  5985     0052  2862               	goto	l3109
  5986     0053                     u2290:
  5987     0053                     l3105:
  5988     0053  0828               	movf	___lldiv@divisor,w
  5989     0054  02AC               	subwf	___lldiv@dividend,f
  5990     0055  0829               	movf	___lldiv@divisor+1,w
  5991     0056  1C03               	skipc
  5992     0057  0F29               	incfsz	___lldiv@divisor+1,w
  5993     0058  02AD               	subwf	___lldiv@dividend+1,f
  5994     0059  082A               	movf	___lldiv@divisor+2,w
  5995     005A  1C03               	skipc
  5996     005B  0F2A               	incfsz	___lldiv@divisor+2,w
  5997     005C  02AE               	subwf	___lldiv@dividend+2,f
  5998     005D  082B               	movf	___lldiv@divisor+3,w
  5999     005E  1C03               	skipc
  6000     005F  0F2B               	incfsz	___lldiv@divisor+3,w
  6001     0060  02AF               	subwf	___lldiv@dividend+3,f
  6002     0061                     l3107:
  6003     0061  1430               	bsf	___lldiv@quotient,0
  6004     0062                     l3109:
  6005     0062  3001               	movlw	1
  6006     0063                     u2305:
  6007     0063  1003               	clrc
  6008     0064  0CAB               	rrf	___lldiv@divisor+3,f
  6009     0065  0CAA               	rrf	___lldiv@divisor+2,f
  6010     0066  0CA9               	rrf	___lldiv@divisor+1,f
  6011     0067  0CA8               	rrf	___lldiv@divisor,f
  6012     0068  3EFF               	addlw	-1
  6013     0069  1D03               	skipz
  6014     006A  2863               	goto	u2305
  6015     006B                     l3111:
  6016     006B  3001               	movlw	1
  6017     006C  02B4               	subwf	___lldiv@counter,f
  6018     006D  1D03               	btfss	3,2
  6019     006E  2870               	goto	u2311
  6020     006F  2871               	goto	u2310
  6021     0070                     u2311:
  6022     0070  2838               	goto	l3101
  6023     0071                     u2310:
  6024     0071                     l3113:
  6025     0071  0833               	movf	___lldiv@quotient+3,w
  6026     0072  00AB               	movwf	?___lldiv+3
  6027     0073  0832               	movf	___lldiv@quotient+2,w
  6028     0074  00AA               	movwf	?___lldiv+2
  6029     0075  0831               	movf	___lldiv@quotient+1,w
  6030     0076  00A9               	movwf	?___lldiv+1
  6031     0077  0830               	movf	___lldiv@quotient,w
  6032     0078  00A8               	movwf	?___lldiv
  6033     0079                     l592:
  6034     0079  0008               	return
  6035     007A                     __end_of___lldiv:
  6036                           
  6037                           	psect	text21
  6038     0D49                     __ptext21:	
  6039 ;; *************** function _AutoFox_INA226_Constructor *****************
  6040 ;; Defined at:
  6041 ;;		line 97 in file "ina226.c"
  6042 ;; Parameters:    Size  Location     Type
  6043 ;;  this            2    2[COMMON] PTR struct AutoFox_INA22
  6044 ;;		 -> main@ina226(14), 
  6045 ;; Auto vars:     Size  Location     Type
  6046 ;;		None
  6047 ;; Return value:  Size  Location     Type
  6048 ;;                  1    wreg      void 
  6049 ;; Registers used:
  6050 ;;		wreg, fsr0l, fsr0h, status,2, status,0
  6051 ;; Tracked objects:
  6052 ;;		On entry : 0/0
  6053 ;;		On exit  : 0/0
  6054 ;;		Unchanged: 0/0
  6055 ;; Data sizes:     COMMON   BANK0   BANK1   BANK3   BANK2
  6056 ;;      Params:         2       0       0       0       0
  6057 ;;      Locals:         0       0       0       0       0
  6058 ;;      Temps:          2       0       0       0       0
  6059 ;;      Totals:         4       0       0       0       0
  6060 ;;Total ram usage:        4 bytes
  6061 ;; Hardware stack levels used: 1
  6062 ;; Hardware stack levels required when called: 1
  6063 ;; This function calls:
  6064 ;;		Nothing
  6065 ;; This function is called by:
  6066 ;;		_main
  6067 ;; This function uses a non-reentrant model
  6068 ;;
  6069                           
  6070     0D49                     _AutoFox_INA226_Constructor:	
  6071                           ;psect for function _AutoFox_INA226_Constructor
  6072                           
  6073     0D49                     l2347:	
  6074                           ;incstack = 0
  6075                           ; Regs used in _AutoFox_INA226_Constructor: [wreg-fsr0h+status,2+status,0]
  6076                           
  6077                           
  6078                           ;ina226.c: 97: void AutoFox_INA226_Constructor(AutoFox_INA226* this);ina226.c: 98: {;ina
      +                          226.c: 99:  this->mInitialized = 0;
  6079     0D49  0873               	movf	AutoFox_INA226_Constructor@this,w
  6080     0D4A  0084               	movwf	4
  6081     0D4B  1783               	bsf	3,7
  6082     0D4C  1C74               	btfss	AutoFox_INA226_Constructor@this+1,0
  6083     0D4D  1383               	bcf	3,7
  6084     0D4E  0180               	clrf	0
  6085     0D4F                     l2349:
  6086     0D4F  0873               	movf	AutoFox_INA226_Constructor@this,w
  6087     0D50  3E01               	addlw	1
  6088     0D51  00F5               	movwf	??_AutoFox_INA226_Constructor
  6089     0D52  0874               	movf	AutoFox_INA226_Constructor@this+1,w
  6090     0D53  1803               	skipnc
  6091     0D54  3E01               	addlw	1
  6092     0D55  3E00               	addlw	0
  6093     0D56  00F6               	movwf	??_AutoFox_INA226_Constructor+1
  6094     0D57  0875               	movf	??_AutoFox_INA226_Constructor,w
  6095     0D58  0084               	movwf	4
  6096     0D59  1783               	bsf	3,7
  6097     0D5A  1C76               	btfss	??_AutoFox_INA226_Constructor+1,0
  6098     0D5B  1383               	bcf	3,7
  6099     0D5C  3040               	movlw	64
  6100     0D5D  0080               	movwf	0
  6101     0D5E                     l2351:
  6102                           
  6103                           ;ina226.c: 101:  this->mConfigRegister = 0;
  6104     0D5E  0873               	movf	AutoFox_INA226_Constructor@this,w
  6105     0D5F  3E02               	addlw	2
  6106     0D60  00F5               	movwf	??_AutoFox_INA226_Constructor
  6107     0D61  0874               	movf	AutoFox_INA226_Constructor@this+1,w
  6108     0D62  1803               	skipnc
  6109     0D63  3E01               	addlw	1
  6110     0D64  3E00               	addlw	0
  6111     0D65  00F6               	movwf	??_AutoFox_INA226_Constructor+1
  6112     0D66  0875               	movf	??_AutoFox_INA226_Constructor,w
  6113     0D67  0084               	movwf	4
  6114     0D68  1783               	bsf	3,7
  6115     0D69  1C76               	btfss	??_AutoFox_INA226_Constructor+1,0
  6116     0D6A  1383               	bcf	3,7
  6117     0D6B  0180               	clrf	0
  6118     0D6C  0A84               	incf	4,f
  6119     0D6D  0180               	clrf	0
  6120     0D6E                     l2353:
  6121                           
  6122                           ;ina226.c: 102:  this->mCalibrationValue = 0;
  6123     0D6E  0873               	movf	AutoFox_INA226_Constructor@this,w
  6124     0D6F  3E04               	addlw	4
  6125     0D70  00F5               	movwf	??_AutoFox_INA226_Constructor
  6126     0D71  0874               	movf	AutoFox_INA226_Constructor@this+1,w
  6127     0D72  1803               	skipnc
  6128     0D73  3E01               	addlw	1
  6129     0D74  3E00               	addlw	0
  6130     0D75  00F6               	movwf	??_AutoFox_INA226_Constructor+1
  6131     0D76  0875               	movf	??_AutoFox_INA226_Constructor,w
  6132     0D77  0084               	movwf	4
  6133     0D78  1783               	bsf	3,7
  6134     0D79  1C76               	btfss	??_AutoFox_INA226_Constructor+1,0
  6135     0D7A  1383               	bcf	3,7
  6136     0D7B  0180               	clrf	0
  6137     0D7C  0A84               	incf	4,f
  6138     0D7D  0180               	clrf	0
  6139     0D7E                     l2355:
  6140                           
  6141                           ;ina226.c: 103:  this->mCurrentMicroAmpsPerBit = 0;
  6142     0D7E  0873               	movf	AutoFox_INA226_Constructor@this,w
  6143     0D7F  3E06               	addlw	6
  6144     0D80  00F5               	movwf	??_AutoFox_INA226_Constructor
  6145     0D81  0874               	movf	AutoFox_INA226_Constructor@this+1,w
  6146     0D82  1803               	skipnc
  6147     0D83  3E01               	addlw	1
  6148     0D84  3E00               	addlw	0
  6149     0D85  00F6               	movwf	??_AutoFox_INA226_Constructor+1
  6150     0D86  0875               	movf	??_AutoFox_INA226_Constructor,w
  6151     0D87  0084               	movwf	4
  6152     0D88  1783               	bsf	3,7
  6153     0D89  1C76               	btfss	??_AutoFox_INA226_Constructor+1,0
  6154     0D8A  1383               	bcf	3,7
  6155     0D8B  0180               	clrf	0
  6156     0D8C  0A84               	incf	4,f
  6157     0D8D  0180               	clrf	0
  6158     0D8E  0A84               	incf	4,f
  6159     0D8F  0180               	clrf	0
  6160     0D90  0A84               	incf	4,f
  6161     0D91  0180               	clrf	0
  6162     0D92                     l2357:
  6163                           
  6164                           ;ina226.c: 104:  this->mPowerMicroWattPerBit = 0;
  6165     0D92  0873               	movf	AutoFox_INA226_Constructor@this,w
  6166     0D93  3E0A               	addlw	10
  6167     0D94  00F5               	movwf	??_AutoFox_INA226_Constructor
  6168     0D95  0874               	movf	AutoFox_INA226_Constructor@this+1,w
  6169     0D96  1803               	skipnc
  6170     0D97  3E01               	addlw	1
  6171     0D98  3E00               	addlw	0
  6172     0D99  00F6               	movwf	??_AutoFox_INA226_Constructor+1
  6173     0D9A  0875               	movf	??_AutoFox_INA226_Constructor,w
  6174     0D9B  0084               	movwf	4
  6175     0D9C  1783               	bsf	3,7
  6176     0D9D  1C76               	btfss	??_AutoFox_INA226_Constructor+1,0
  6177     0D9E  1383               	bcf	3,7
  6178     0D9F  0180               	clrf	0
  6179     0DA0  0A84               	incf	4,f
  6180     0DA1  0180               	clrf	0
  6181     0DA2  0A84               	incf	4,f
  6182     0DA3  0180               	clrf	0
  6183     0DA4  0A84               	incf	4,f
  6184     0DA5  0180               	clrf	0
  6185     0DA6                     l298:
  6186     0DA6  0008               	return
  6187     0DA7                     __end_of_AutoFox_INA226_Constructor:
  6188                           
  6189                           	psect	text22
  6190     0EB9                     __ptext22:	
  6191 ;; *************** function _AutoFox_INA226_ConfigureVoltageConversionTime *****************
  6192 ;; Defined at:
  6193 ;;		line 399 in file "ina226.c"
  6194 ;; Parameters:    Size  Location     Type
  6195 ;;  this            2    9[BANK0 ] PTR struct AutoFox_INA22
  6196 ;;		 -> main@ina226(14), 
  6197 ;;  aIndexToConv    2   11[BANK0 ] int 
  6198 ;; Auto vars:     Size  Location     Type
  6199 ;;  s               1   19[BANK0 ] enum E1803
  6200 ;;  theMergedBus    2   17[BANK0 ] unsigned short 
  6201 ;; Return value:  Size  Location     Type
  6202 ;;                  1    wreg      enum E1727
  6203 ;; Registers used:
  6204 ;;		wreg, fsr0l, fsr0h, status,2, status,0, btemp+1, pclath, cstack
  6205 ;; Tracked objects:
  6206 ;;		On entry : 0/0
  6207 ;;		On exit  : 0/0
  6208 ;;		Unchanged: 0/0
  6209 ;; Data sizes:     COMMON   BANK0   BANK1   BANK3   BANK2
  6210 ;;      Params:         0       4       0       0       0
  6211 ;;      Locals:         0       3       0       0       0
  6212 ;;      Temps:          0       4       0       0       0
  6213 ;;      Totals:         0      11       0       0       0
  6214 ;;Total ram usage:       11 bytes
  6215 ;; Hardware stack levels used: 1
  6216 ;; Hardware stack levels required when called: 4
  6217 ;; This function calls:
  6218 ;;		_AutoFox_INA226_ReadRegister
  6219 ;;		_AutoFox_INA226_WriteRegister
  6220 ;; This function is called by:
  6221 ;;		_main
  6222 ;; This function uses a non-reentrant model
  6223 ;;
  6224                           
  6225     0EB9                     _AutoFox_INA226_ConfigureVoltageConversionTime:	
  6226                           ;psect for function _AutoFox_INA226_ConfigureVoltageConversionTime
  6227                           
  6228     0EB9                     l3339:	
  6229                           ;incstack = 0
  6230                           ; Regs used in _AutoFox_INA226_ConfigureVoltageConversionTime: [wreg-fsr0h+status,2+stat
      +                          us,0+btemp+1+pclath+cstack]
  6231                           
  6232                           
  6233                           ;ina226.c: 399: status AutoFox_INA226_ConfigureVoltageConversionTime(AutoFox_INA226* thi
      +                          s, int aIndexToConversionTimeTable);ina226.c: 400: {;ina226.c: 401:  ; if(!this->mInitia
      +                          lized) return NOT_INITIALIZED;;
  6234     0EB9  1283               	bcf	3,5	;RP0=0, select bank0
  6235     0EBA  1303               	bcf	3,6	;RP1=0, select bank0
  6236     0EBB  0829               	movf	AutoFox_INA226_ConfigureVoltageConversionTime@this,w
  6237     0EBC  0084               	movwf	4
  6238     0EBD  1783               	bsf	3,7
  6239     0EBE  1C2A               	btfss	AutoFox_INA226_ConfigureVoltageConversionTime@this+1,0
  6240     0EBF  1383               	bcf	3,7
  6241     0EC0  0800               	movf	0,w
  6242     0EC1  1D03               	btfss	3,2
  6243     0EC2  2EC4               	goto	u2521
  6244     0EC3  2EC5               	goto	u2520
  6245     0EC4                     u2521:
  6246     0EC4  2EC7               	goto	l403
  6247     0EC5                     u2520:
  6248     0EC5                     l3341:
  6249     0EC5  30F9               	movlw	249
  6250     0EC6  2F56               	goto	l404
  6251     0EC7                     l403:
  6252                           
  6253                           ;ina226.c: 403:  if(aIndexToConversionTimeTable < 0 || aIndexToConversionTimeTable > cMa
      +                          xConvTimeTblIdx ){
  6254     0EC7  1BAC               	btfsc	AutoFox_INA226_ConfigureVoltageConversionTime@aIndexToConversionTimeTable+1,7
  6255     0EC8  2ECA               	goto	u2531
  6256     0EC9  2ECB               	goto	u2530
  6257     0ECA                     u2531:
  6258     0ECA  2ED8               	goto	l3347
  6259     0ECB                     u2530:
  6260     0ECB                     l3345:
  6261     0ECB  082C               	movf	AutoFox_INA226_ConfigureVoltageConversionTime@aIndexToConversionTimeTable+1,w
  6262     0ECC  3A80               	xorlw	128
  6263     0ECD  00FF               	movwf	btemp+1
  6264     0ECE  3080               	movlw	128
  6265     0ECF  027F               	subwf	btemp+1,w
  6266     0ED0  1D03               	skipz
  6267     0ED1  2ED4               	goto	u2545
  6268     0ED2  3008               	movlw	8
  6269     0ED3  022B               	subwf	AutoFox_INA226_ConfigureVoltageConversionTime@aIndexToConversionTimeTable,w
  6270     0ED4                     u2545:
  6271     0ED4  1C03               	skipc
  6272     0ED5  2ED7               	goto	u2541
  6273     0ED6  2ED8               	goto	u2540
  6274     0ED7                     u2541:
  6275     0ED7  2EDA               	goto	l3351
  6276     0ED8                     u2540:
  6277     0ED8                     l3347:
  6278                           
  6279                           ;ina226.c: 404:   return BAD_PARAMETER;
  6280     0ED8  30FA               	movlw	250
  6281     0ED9  2F56               	goto	l404
  6282     0EDA                     l3351:
  6283     0EDA  1283               	bcf	3,5	;RP0=0, select bank0
  6284     0EDB  1303               	bcf	3,6	;RP1=0, select bank0
  6285     0EDC  0829               	movf	AutoFox_INA226_ConfigureVoltageConversionTime@this,w
  6286     0EDD  00A0               	movwf	AutoFox_INA226_ReadRegister@this
  6287     0EDE  082A               	movf	AutoFox_INA226_ConfigureVoltageConversionTime@this+1,w
  6288     0EDF  00A1               	movwf	AutoFox_INA226_ReadRegister@this+1
  6289     0EE0  01A2               	clrf	AutoFox_INA226_ReadRegister@aRegister
  6290     0EE1  0829               	movf	AutoFox_INA226_ConfigureVoltageConversionTime@this,w
  6291     0EE2  3E02               	addlw	2
  6292     0EE3  00A3               	movwf	AutoFox_INA226_ReadRegister@aValue_p
  6293     0EE4  082A               	movf	AutoFox_INA226_ConfigureVoltageConversionTime@this+1,w
  6294     0EE5  1803               	skipnc
  6295     0EE6  3E01               	addlw	1
  6296     0EE7  3E00               	addlw	0
  6297     0EE8  00A4               	movwf	AutoFox_INA226_ReadRegister@aValue_p+1
  6298     0EE9  120A  158A  2757  120A  158A  	fcall	_AutoFox_INA226_ReadRegister
  6299     0EEE  1283               	bcf	3,5	;RP0=0, select bank0
  6300     0EEF  1303               	bcf	3,6	;RP1=0, select bank0
  6301     0EF0  00B3               	movwf	AutoFox_INA226_ConfigureVoltageConversionTime@s
  6302     0EF1                     l3353:
  6303     0EF1  0833               	movf	AutoFox_INA226_ConfigureVoltageConversionTime@s,w
  6304     0EF2  1903               	btfsc	3,2
  6305     0EF3  2EF5               	goto	u2551
  6306     0EF4  2EF6               	goto	u2550
  6307     0EF5                     u2551:
  6308     0EF5  2EF8               	goto	l3359
  6309     0EF6                     u2550:
  6310     0EF6                     l3355:
  6311     0EF6  0833               	movf	AutoFox_INA226_ConfigureVoltageConversionTime@s,w
  6312     0EF7  2F56               	goto	l404
  6313     0EF8                     l3359:
  6314                           
  6315                           ;ina226.c: 410:  this->mConfigRegister &= ~(cBusVoltageConvTimeMask | cShuntVoltageConvT
      +                          imeMask);
  6316     0EF8  0829               	movf	AutoFox_INA226_ConfigureVoltageConversionTime@this,w
  6317     0EF9  3E02               	addlw	2
  6318     0EFA  00AD               	movwf	??_AutoFox_INA226_ConfigureVoltageConversionTime
  6319     0EFB  082A               	movf	AutoFox_INA226_ConfigureVoltageConversionTime@this+1,w
  6320     0EFC  1803               	skipnc
  6321     0EFD  3E01               	addlw	1
  6322     0EFE  3E00               	addlw	0
  6323     0EFF  00AE               	movwf	??_AutoFox_INA226_ConfigureVoltageConversionTime+1
  6324     0F00  082D               	movf	??_AutoFox_INA226_ConfigureVoltageConversionTime,w
  6325     0F01  0084               	movwf	4
  6326     0F02  1783               	bsf	3,7
  6327     0F03  1C2E               	btfss	??_AutoFox_INA226_ConfigureVoltageConversionTime+1,0
  6328     0F04  1383               	bcf	3,7
  6329     0F05  3007               	movlw	7
  6330     0F06  0580               	andwf	0,f
  6331     0F07  0A84               	incf	4,f
  6332     0F08  30FE               	movlw	254
  6333     0F09  0580               	andwf	0,f
  6334     0F0A                     l3361:
  6335                           
  6336                           ;ina226.c: 412:  uint16_t theMergedBusAndShuntConvTimeIndicies =
  6337     0F0A  082C               	movf	AutoFox_INA226_ConfigureVoltageConversionTime@aIndexToConversionTimeTable+1,w
  6338     0F0B  00AE               	movwf	??_AutoFox_INA226_ConfigureVoltageConversionTime+1
  6339     0F0C  082B               	movf	AutoFox_INA226_ConfigureVoltageConversionTime@aIndexToConversionTimeTable,w
  6340     0F0D  00AD               	movwf	??_AutoFox_INA226_ConfigureVoltageConversionTime
  6341     0F0E  1003               	clrc
  6342     0F0F  0DAD               	rlf	??_AutoFox_INA226_ConfigureVoltageConversionTime,f
  6343     0F10  0DAE               	rlf	??_AutoFox_INA226_ConfigureVoltageConversionTime+1,f
  6344     0F11  1003               	clrc
  6345     0F12  0DAD               	rlf	??_AutoFox_INA226_ConfigureVoltageConversionTime,f
  6346     0F13  0DAE               	rlf	??_AutoFox_INA226_ConfigureVoltageConversionTime+1,f
  6347     0F14  1003               	clrc
  6348     0F15  0DAD               	rlf	??_AutoFox_INA226_ConfigureVoltageConversionTime,f
  6349     0F16  0DAE               	rlf	??_AutoFox_INA226_ConfigureVoltageConversionTime+1,f
  6350     0F17  082C               	movf	AutoFox_INA226_ConfigureVoltageConversionTime@aIndexToConversionTimeTable+1,w
  6351     0F18  00B0               	movwf	??_AutoFox_INA226_ConfigureVoltageConversionTime+3
  6352     0F19  082B               	movf	AutoFox_INA226_ConfigureVoltageConversionTime@aIndexToConversionTimeTable,w
  6353     0F1A  00AF               	movwf	??_AutoFox_INA226_ConfigureVoltageConversionTime+2
  6354     0F1B  3006               	movlw	6
  6355     0F1C  00FF               	movwf	btemp+1
  6356     0F1D                     u2565:
  6357     0F1D  1003               	clrc
  6358     0F1E  0DAF               	rlf	??_AutoFox_INA226_ConfigureVoltageConversionTime+2,f
  6359     0F1F  0DB0               	rlf	??_AutoFox_INA226_ConfigureVoltageConversionTime+3,f
  6360     0F20  0BFF               	decfsz	btemp+1,f
  6361     0F21  2F1D               	goto	u2565
  6362     0F22  082D               	movf	??_AutoFox_INA226_ConfigureVoltageConversionTime,w
  6363     0F23  042F               	iorwf	??_AutoFox_INA226_ConfigureVoltageConversionTime+2,w
  6364     0F24  00B1               	movwf	AutoFox_INA226_ConfigureVoltageConversionTime@theMergedBusAndShuntConvTimeIndicie
      +                          s
  6365     0F25  082E               	movf	??_AutoFox_INA226_ConfigureVoltageConversionTime+1,w
  6366     0F26  0430               	iorwf	??_AutoFox_INA226_ConfigureVoltageConversionTime+3,w
  6367     0F27  00B2               	movwf	AutoFox_INA226_ConfigureVoltageConversionTime@theMergedBusAndShuntConvTimeIndicie
      +                          s+1
  6368     0F28                     l3363:
  6369                           
  6370                           ;ina226.c: 416:  this->mConfigRegister |= theMergedBusAndShuntConvTimeIndicies;
  6371     0F28  0829               	movf	AutoFox_INA226_ConfigureVoltageConversionTime@this,w
  6372     0F29  3E02               	addlw	2
  6373     0F2A  00AD               	movwf	??_AutoFox_INA226_ConfigureVoltageConversionTime
  6374     0F2B  082A               	movf	AutoFox_INA226_ConfigureVoltageConversionTime@this+1,w
  6375     0F2C  1803               	skipnc
  6376     0F2D  3E01               	addlw	1
  6377     0F2E  3E00               	addlw	0
  6378     0F2F  00AE               	movwf	??_AutoFox_INA226_ConfigureVoltageConversionTime+1
  6379     0F30  082D               	movf	??_AutoFox_INA226_ConfigureVoltageConversionTime,w
  6380     0F31  0084               	movwf	4
  6381     0F32  1783               	bsf	3,7
  6382     0F33  1C2E               	btfss	??_AutoFox_INA226_ConfigureVoltageConversionTime+1,0
  6383     0F34  1383               	bcf	3,7
  6384     0F35  0831               	movf	AutoFox_INA226_ConfigureVoltageConversionTime@theMergedBusAndShuntConvTimeIndicies
      +                          ,w
  6385     0F36  0480               	iorwf	0,f
  6386     0F37  0A84               	incf	4,f
  6387     0F38  0832               	movf	AutoFox_INA226_ConfigureVoltageConversionTime@theMergedBusAndShuntConvTimeIndicies
      +                          +1,w
  6388     0F39  0480               	iorwf	0,f
  6389     0F3A                     l3365:
  6390                           
  6391                           ;ina226.c: 418:  return AutoFox_INA226_WriteRegister(this,INA226_CONFIG, this->mConfigRe
      +                          gister);
  6392     0F3A  0829               	movf	AutoFox_INA226_ConfigureVoltageConversionTime@this,w
  6393     0F3B  00F5               	movwf	AutoFox_INA226_WriteRegister@this
  6394     0F3C  082A               	movf	AutoFox_INA226_ConfigureVoltageConversionTime@this+1,w
  6395     0F3D  00F6               	movwf	AutoFox_INA226_WriteRegister@this+1
  6396     0F3E  01F7               	clrf	AutoFox_INA226_WriteRegister@aRegister
  6397     0F3F  0829               	movf	AutoFox_INA226_ConfigureVoltageConversionTime@this,w
  6398     0F40  3E02               	addlw	2
  6399     0F41  00AD               	movwf	??_AutoFox_INA226_ConfigureVoltageConversionTime
  6400     0F42  082A               	movf	AutoFox_INA226_ConfigureVoltageConversionTime@this+1,w
  6401     0F43  1803               	skipnc
  6402     0F44  3E01               	addlw	1
  6403     0F45  3E00               	addlw	0
  6404     0F46  00AE               	movwf	??_AutoFox_INA226_ConfigureVoltageConversionTime+1
  6405     0F47  082D               	movf	??_AutoFox_INA226_ConfigureVoltageConversionTime,w
  6406     0F48  0084               	movwf	4
  6407     0F49  1783               	bsf	3,7
  6408     0F4A  1C2E               	btfss	??_AutoFox_INA226_ConfigureVoltageConversionTime+1,0
  6409     0F4B  1383               	bcf	3,7
  6410     0F4C  0800               	movf	0,w
  6411     0F4D  00F8               	movwf	AutoFox_INA226_WriteRegister@aValue
  6412     0F4E  0A84               	incf	4,f
  6413     0F4F  0800               	movf	0,w
  6414     0F50  00F9               	movwf	AutoFox_INA226_WriteRegister@aValue+1
  6415     0F51  120A  158A  24EF  120A  158A  	fcall	_AutoFox_INA226_WriteRegister
  6416     0F56                     l404:
  6417     0F56  0008               	return
  6418     0F57                     __end_of_AutoFox_INA226_ConfigureVoltageConversionTime:
  6419                           
  6420                           	psect	text23
  6421     0E2E                     __ptext23:	
  6422 ;; *************** function _AutoFox_INA226_ConfigureNumSampleAveraging *****************
  6423 ;; Defined at:
  6424 ;;		line 421 in file "ina226.c"
  6425 ;; Parameters:    Size  Location     Type
  6426 ;;  this            2    9[BANK0 ] PTR struct AutoFox_INA22
  6427 ;;		 -> main@ina226(14), 
  6428 ;;  aIndexToSamp    2   11[BANK0 ] int 
  6429 ;; Auto vars:     Size  Location     Type
  6430 ;;  s               1   17[BANK0 ] enum E1803
  6431 ;; Return value:  Size  Location     Type
  6432 ;;                  1    wreg      enum E1727
  6433 ;; Registers used:
  6434 ;;		wreg, fsr0l, fsr0h, status,2, status,0, btemp+1, pclath, cstack
  6435 ;; Tracked objects:
  6436 ;;		On entry : 0/0
  6437 ;;		On exit  : 0/0
  6438 ;;		Unchanged: 0/0
  6439 ;; Data sizes:     COMMON   BANK0   BANK1   BANK3   BANK2
  6440 ;;      Params:         0       4       0       0       0
  6441 ;;      Locals:         0       1       0       0       0
  6442 ;;      Temps:          0       4       0       0       0
  6443 ;;      Totals:         0       9       0       0       0
  6444 ;;Total ram usage:        9 bytes
  6445 ;; Hardware stack levels used: 1
  6446 ;; Hardware stack levels required when called: 4
  6447 ;; This function calls:
  6448 ;;		_AutoFox_INA226_ReadRegister
  6449 ;;		_AutoFox_INA226_WriteRegister
  6450 ;; This function is called by:
  6451 ;;		_main
  6452 ;; This function uses a non-reentrant model
  6453 ;;
  6454                           
  6455     0E2E                     _AutoFox_INA226_ConfigureNumSampleAveraging:	
  6456                           ;psect for function _AutoFox_INA226_ConfigureNumSampleAveraging
  6457                           
  6458     0E2E                     l3369:	
  6459                           ;incstack = 0
  6460                           ; Regs used in _AutoFox_INA226_ConfigureNumSampleAveraging: [wreg-fsr0h+status,2+status,
      +                          0+btemp+1+pclath+cstack]
  6461                           
  6462                           
  6463                           ;ina226.c: 421: status AutoFox_INA226_ConfigureNumSampleAveraging(AutoFox_INA226* this, 
      +                          int aIndexToSampleAverageTable);ina226.c: 422: {;ina226.c: 423:  ; if(!this->mInitialize
      +                          d) return NOT_INITIALIZED;;
  6464     0E2E  1283               	bcf	3,5	;RP0=0, select bank0
  6465     0E2F  1303               	bcf	3,6	;RP1=0, select bank0
  6466     0E30  0829               	movf	AutoFox_INA226_ConfigureNumSampleAveraging@this,w
  6467     0E31  0084               	movwf	4
  6468     0E32  1783               	bsf	3,7
  6469     0E33  1C2A               	btfss	AutoFox_INA226_ConfigureNumSampleAveraging@this+1,0
  6470     0E34  1383               	bcf	3,7
  6471     0E35  0800               	movf	0,w
  6472     0E36  1D03               	btfss	3,2
  6473     0E37  2E39               	goto	u2571
  6474     0E38  2E3A               	goto	u2570
  6475     0E39                     u2571:
  6476     0E39  2E3C               	goto	l413
  6477     0E3A                     u2570:
  6478     0E3A                     l3371:
  6479     0E3A  30F9               	movlw	249
  6480     0E3B  2EB8               	goto	l414
  6481     0E3C                     l413:
  6482                           
  6483                           ;ina226.c: 425:  if(aIndexToSampleAverageTable < 0 || aIndexToSampleAverageTable > cMaxS
      +                          ampleAvgTblIdx ){
  6484     0E3C  1BAC               	btfsc	AutoFox_INA226_ConfigureNumSampleAveraging@aIndexToSampleAverageTable+1,7
  6485     0E3D  2E3F               	goto	u2581
  6486     0E3E  2E40               	goto	u2580
  6487     0E3F                     u2581:
  6488     0E3F  2E4D               	goto	l3377
  6489     0E40                     u2580:
  6490     0E40                     l3375:
  6491     0E40  082C               	movf	AutoFox_INA226_ConfigureNumSampleAveraging@aIndexToSampleAverageTable+1,w
  6492     0E41  3A80               	xorlw	128
  6493     0E42  00FF               	movwf	btemp+1
  6494     0E43  3080               	movlw	128
  6495     0E44  027F               	subwf	btemp+1,w
  6496     0E45  1D03               	skipz
  6497     0E46  2E49               	goto	u2595
  6498     0E47  3008               	movlw	8
  6499     0E48  022B               	subwf	AutoFox_INA226_ConfigureNumSampleAveraging@aIndexToSampleAverageTable,w
  6500     0E49                     u2595:
  6501     0E49  1C03               	skipc
  6502     0E4A  2E4C               	goto	u2591
  6503     0E4B  2E4D               	goto	u2590
  6504     0E4C                     u2591:
  6505     0E4C  2E4F               	goto	l3381
  6506     0E4D                     u2590:
  6507     0E4D                     l3377:
  6508                           
  6509                           ;ina226.c: 426:   return BAD_PARAMETER;
  6510     0E4D  30FA               	movlw	250
  6511     0E4E  2EB8               	goto	l414
  6512     0E4F                     l3381:
  6513     0E4F  1283               	bcf	3,5	;RP0=0, select bank0
  6514     0E50  1303               	bcf	3,6	;RP1=0, select bank0
  6515     0E51  0829               	movf	AutoFox_INA226_ConfigureNumSampleAveraging@this,w
  6516     0E52  00A0               	movwf	AutoFox_INA226_ReadRegister@this
  6517     0E53  082A               	movf	AutoFox_INA226_ConfigureNumSampleAveraging@this+1,w
  6518     0E54  00A1               	movwf	AutoFox_INA226_ReadRegister@this+1
  6519     0E55  01A2               	clrf	AutoFox_INA226_ReadRegister@aRegister
  6520     0E56  0829               	movf	AutoFox_INA226_ConfigureNumSampleAveraging@this,w
  6521     0E57  3E02               	addlw	2
  6522     0E58  00A3               	movwf	AutoFox_INA226_ReadRegister@aValue_p
  6523     0E59  082A               	movf	AutoFox_INA226_ConfigureNumSampleAveraging@this+1,w
  6524     0E5A  1803               	skipnc
  6525     0E5B  3E01               	addlw	1
  6526     0E5C  3E00               	addlw	0
  6527     0E5D  00A4               	movwf	AutoFox_INA226_ReadRegister@aValue_p+1
  6528     0E5E  120A  158A  2757  120A  158A  	fcall	_AutoFox_INA226_ReadRegister
  6529     0E63  1283               	bcf	3,5	;RP0=0, select bank0
  6530     0E64  1303               	bcf	3,6	;RP1=0, select bank0
  6531     0E65  00B1               	movwf	AutoFox_INA226_ConfigureNumSampleAveraging@s
  6532     0E66                     l3383:
  6533     0E66  0831               	movf	AutoFox_INA226_ConfigureNumSampleAveraging@s,w
  6534     0E67  1903               	btfsc	3,2
  6535     0E68  2E6A               	goto	u2601
  6536     0E69  2E6B               	goto	u2600
  6537     0E6A                     u2601:
  6538     0E6A  2E6D               	goto	l3389
  6539     0E6B                     u2600:
  6540     0E6B                     l3385:
  6541     0E6B  0831               	movf	AutoFox_INA226_ConfigureNumSampleAveraging@s,w
  6542     0E6C  2EB8               	goto	l414
  6543     0E6D                     l3389:
  6544                           
  6545                           ;ina226.c: 432:  this->mConfigRegister &= ~cSampleAvgMask;
  6546     0E6D  0829               	movf	AutoFox_INA226_ConfigureNumSampleAveraging@this,w
  6547     0E6E  3E02               	addlw	2
  6548     0E6F  00AD               	movwf	??_AutoFox_INA226_ConfigureNumSampleAveraging
  6549     0E70  082A               	movf	AutoFox_INA226_ConfigureNumSampleAveraging@this+1,w
  6550     0E71  1803               	skipnc
  6551     0E72  3E01               	addlw	1
  6552     0E73  3E00               	addlw	0
  6553     0E74  00AE               	movwf	??_AutoFox_INA226_ConfigureNumSampleAveraging+1
  6554     0E75  082D               	movf	??_AutoFox_INA226_ConfigureNumSampleAveraging,w
  6555     0E76  0084               	movwf	4
  6556     0E77  1783               	bsf	3,7
  6557     0E78  1C2E               	btfss	??_AutoFox_INA226_ConfigureNumSampleAveraging+1,0
  6558     0E79  1383               	bcf	3,7
  6559     0E7A  30FF               	movlw	255
  6560     0E7B  0580               	andwf	0,f
  6561     0E7C  0A84               	incf	4,f
  6562     0E7D  30F1               	movlw	241
  6563     0E7E  0580               	andwf	0,f
  6564     0E7F                     l3391:
  6565                           
  6566                           ;ina226.c: 434:  this->mConfigRegister |= (aIndexToSampleAverageTable<<cSampleAvgIdxShif
      +                          t);
  6567     0E7F  082C               	movf	AutoFox_INA226_ConfigureNumSampleAveraging@aIndexToSampleAverageTable+1,w
  6568     0E80  00AE               	movwf	??_AutoFox_INA226_ConfigureNumSampleAveraging+1
  6569     0E81  082B               	movf	AutoFox_INA226_ConfigureNumSampleAveraging@aIndexToSampleAverageTable,w
  6570     0E82  00AD               	movwf	??_AutoFox_INA226_ConfigureNumSampleAveraging
  6571     0E83  3009               	movlw	9
  6572     0E84  00FF               	movwf	btemp+1
  6573     0E85                     u2615:
  6574     0E85  1003               	clrc
  6575     0E86  0DAD               	rlf	??_AutoFox_INA226_ConfigureNumSampleAveraging,f
  6576     0E87  0DAE               	rlf	??_AutoFox_INA226_ConfigureNumSampleAveraging+1,f
  6577     0E88  0BFF               	decfsz	btemp+1,f
  6578     0E89  2E85               	goto	u2615
  6579     0E8A  0829               	movf	AutoFox_INA226_ConfigureNumSampleAveraging@this,w
  6580     0E8B  3E02               	addlw	2
  6581     0E8C  00AF               	movwf	??_AutoFox_INA226_ConfigureNumSampleAveraging+2
  6582     0E8D  082A               	movf	AutoFox_INA226_ConfigureNumSampleAveraging@this+1,w
  6583     0E8E  1803               	skipnc
  6584     0E8F  3E01               	addlw	1
  6585     0E90  3E00               	addlw	0
  6586     0E91  00B0               	movwf	??_AutoFox_INA226_ConfigureNumSampleAveraging+3
  6587     0E92  082F               	movf	??_AutoFox_INA226_ConfigureNumSampleAveraging+2,w
  6588     0E93  0084               	movwf	4
  6589     0E94  1783               	bsf	3,7
  6590     0E95  1C30               	btfss	??_AutoFox_INA226_ConfigureNumSampleAveraging+3,0
  6591     0E96  1383               	bcf	3,7
  6592     0E97  082D               	movf	??_AutoFox_INA226_ConfigureNumSampleAveraging,w
  6593     0E98  0480               	iorwf	0,f
  6594     0E99  0A84               	incf	4,f
  6595     0E9A  082E               	movf	??_AutoFox_INA226_ConfigureNumSampleAveraging+1,w
  6596     0E9B  0480               	iorwf	0,f
  6597     0E9C                     l3393:
  6598                           
  6599                           ;ina226.c: 436:  return AutoFox_INA226_WriteRegister(this,INA226_CONFIG, this->mConfigRe
      +                          gister);
  6600     0E9C  0829               	movf	AutoFox_INA226_ConfigureNumSampleAveraging@this,w
  6601     0E9D  00F5               	movwf	AutoFox_INA226_WriteRegister@this
  6602     0E9E  082A               	movf	AutoFox_INA226_ConfigureNumSampleAveraging@this+1,w
  6603     0E9F  00F6               	movwf	AutoFox_INA226_WriteRegister@this+1
  6604     0EA0  01F7               	clrf	AutoFox_INA226_WriteRegister@aRegister
  6605     0EA1  0829               	movf	AutoFox_INA226_ConfigureNumSampleAveraging@this,w
  6606     0EA2  3E02               	addlw	2
  6607     0EA3  00AD               	movwf	??_AutoFox_INA226_ConfigureNumSampleAveraging
  6608     0EA4  082A               	movf	AutoFox_INA226_ConfigureNumSampleAveraging@this+1,w
  6609     0EA5  1803               	skipnc
  6610     0EA6  3E01               	addlw	1
  6611     0EA7  3E00               	addlw	0
  6612     0EA8  00AE               	movwf	??_AutoFox_INA226_ConfigureNumSampleAveraging+1
  6613     0EA9  082D               	movf	??_AutoFox_INA226_ConfigureNumSampleAveraging,w
  6614     0EAA  0084               	movwf	4
  6615     0EAB  1783               	bsf	3,7
  6616     0EAC  1C2E               	btfss	??_AutoFox_INA226_ConfigureNumSampleAveraging+1,0
  6617     0EAD  1383               	bcf	3,7
  6618     0EAE  0800               	movf	0,w
  6619     0EAF  00F8               	movwf	AutoFox_INA226_WriteRegister@aValue
  6620     0EB0  0A84               	incf	4,f
  6621     0EB1  0800               	movf	0,w
  6622     0EB2  00F9               	movwf	AutoFox_INA226_WriteRegister@aValue+1
  6623     0EB3  120A  158A  24EF  120A  158A  	fcall	_AutoFox_INA226_WriteRegister
  6624     0EB8                     l414:
  6625     0EB8  0008               	return
  6626     0EB9                     __end_of_AutoFox_INA226_ConfigureNumSampleAveraging:
  6627                           
  6628                           	psect	text24
  6629     0CEF                     __ptext24:	
  6630 ;; *************** function _AutoFox_INA226_WriteRegister *****************
  6631 ;; Defined at:
  6632 ;;		line 213 in file "ina226.c"
  6633 ;; Parameters:    Size  Location     Type
  6634 ;;  this            2    4[COMMON] PTR struct AutoFox_INA22
  6635 ;;		 -> main@ina226(14), 
  6636 ;;  aRegister       1    6[COMMON] unsigned char 
  6637 ;;  aValue          2    7[COMMON] unsigned short 
  6638 ;; Auto vars:     Size  Location     Type
  6639 ;;  buffer          3    4[BANK0 ] unsigned char [3]
  6640 ;; Return value:  Size  Location     Type
  6641 ;;                  1    wreg      enum E1803
  6642 ;; Registers used:
  6643 ;;		wreg, fsr0l, fsr0h, status,2, status,0, pclath, cstack
  6644 ;; Tracked objects:
  6645 ;;		On entry : 0/0
  6646 ;;		On exit  : 0/0
  6647 ;;		Unchanged: 0/0
  6648 ;; Data sizes:     COMMON   BANK0   BANK1   BANK3   BANK2
  6649 ;;      Params:         5       0       0       0       0
  6650 ;;      Locals:         0       3       0       0       0
  6651 ;;      Temps:          0       4       0       0       0
  6652 ;;      Totals:         5       7       0       0       0
  6653 ;;Total ram usage:       12 bytes
  6654 ;; Hardware stack levels used: 1
  6655 ;; Hardware stack levels required when called: 3
  6656 ;; This function calls:
  6657 ;;		_I2C_Master_Start
  6658 ;;		_I2C_Master_Stop
  6659 ;;		_I2C_Master_Write
  6660 ;; This function is called by:
  6661 ;;		_AutoFox_INA226_Init
  6662 ;;		_AutoFox_INA226_setupCalibration
  6663 ;;		_AutoFox_INA226_ConfigureVoltageConversionTime
  6664 ;;		_AutoFox_INA226_ConfigureNumSampleAveraging
  6665 ;;		_AutoFox_INA226_Hibernate
  6666 ;;		_AutoFox_INA226_Wakeup
  6667 ;;		_AutoFox_INA226_SetOperatingMode
  6668 ;;		_AutoFox_INA226_ConfigureAlertPinTrigger
  6669 ;; This function uses a non-reentrant model
  6670 ;;
  6671                           
  6672     0CEF                     _AutoFox_INA226_WriteRegister:	
  6673                           ;psect for function _AutoFox_INA226_WriteRegister
  6674                           
  6675     0CEF                     l2169:	
  6676                           ;incstack = 0
  6677                           ; Regs used in _AutoFox_INA226_WriteRegister: [wreg-fsr0h+status,2+status,0+pclath+cstac
      +                          k]
  6678                           
  6679                           
  6680                           ;ina226.c: 213: status AutoFox_INA226_WriteRegister(AutoFox_INA226* this, uint8_t aRegis
      +                          ter, uint16_t aValue);ina226.c: 214: {;ina226.c: 215:     uint8_t buffer[3];;ina226.c: 2
      +                          16:     buffer[0] = aRegister;
  6681     0CEF  0877               	movf	AutoFox_INA226_WriteRegister@aRegister,w
  6682     0CF0  1283               	bcf	3,5	;RP0=0, select bank0
  6683     0CF1  1303               	bcf	3,6	;RP1=0, select bank0
  6684     0CF2  00A4               	movwf	AutoFox_INA226_WriteRegister@buffer
  6685     0CF3                     l2171:
  6686                           
  6687                           ;ina226.c: 217:     buffer[1] = (uint8_t)((aValue >> 8) & 0xFF);
  6688     0CF3  0879               	movf	AutoFox_INA226_WriteRegister@aValue+1,w
  6689     0CF4  00A5               	movwf	AutoFox_INA226_WriteRegister@buffer+1
  6690     0CF5                     l2173:
  6691                           
  6692                           ;ina226.c: 218:     buffer[2] = (uint8_t)(aValue & 0xFF);
  6693     0CF5  0878               	movf	AutoFox_INA226_WriteRegister@aValue,w
  6694     0CF6  00A6               	movwf	AutoFox_INA226_WriteRegister@buffer+2
  6695     0CF7                     l2175:
  6696                           
  6697                           ;ina226.c: 221:     I2C_Master_Start();
  6698     0CF7  120A  158A  21E3  120A  158A  	fcall	_I2C_Master_Start
  6699     0CFC                     l2177:
  6700                           
  6701                           ;ina226.c: 222:     I2C_Master_Write(this->mI2C_Address << 1);
  6702     0CFC  0875               	movf	AutoFox_INA226_WriteRegister@this,w
  6703     0CFD  3E01               	addlw	1
  6704     0CFE  1283               	bcf	3,5	;RP0=0, select bank0
  6705     0CFF  1303               	bcf	3,6	;RP1=0, select bank0
  6706     0D00  00A0               	movwf	??_AutoFox_INA226_WriteRegister
  6707     0D01  0876               	movf	AutoFox_INA226_WriteRegister@this+1,w
  6708     0D02  1803               	skipnc
  6709     0D03  3E01               	addlw	1
  6710     0D04  3E00               	addlw	0
  6711     0D05  00A1               	movwf	??_AutoFox_INA226_WriteRegister+1
  6712     0D06  0820               	movf	??_AutoFox_INA226_WriteRegister,w
  6713     0D07  0084               	movwf	4
  6714     0D08  1783               	bsf	3,7
  6715     0D09  1C21               	btfss	??_AutoFox_INA226_WriteRegister+1,0
  6716     0D0A  1383               	bcf	3,7
  6717     0D0B  0800               	movf	0,w
  6718     0D0C  00A2               	movwf	??_AutoFox_INA226_WriteRegister+2
  6719     0D0D  01A3               	clrf	??_AutoFox_INA226_WriteRegister+3
  6720     0D0E  1003               	clrc
  6721     0D0F  0D22               	rlf	??_AutoFox_INA226_WriteRegister+2,w
  6722     0D10  00F3               	movwf	I2C_Master_Write@data
  6723     0D11  0D23               	rlf	??_AutoFox_INA226_WriteRegister+3,w
  6724     0D12  00F4               	movwf	I2C_Master_Write@data+1
  6725     0D13  120A  158A  21F5  120A  158A  	fcall	_I2C_Master_Write
  6726     0D18                     l2179:
  6727                           
  6728                           ;ina226.c: 224:     I2C_Master_Write(buffer[0]);
  6729     0D18  1283               	bcf	3,5	;RP0=0, select bank0
  6730     0D19  1303               	bcf	3,6	;RP1=0, select bank0
  6731     0D1A  0824               	movf	AutoFox_INA226_WriteRegister@buffer,w
  6732     0D1B  00A0               	movwf	??_AutoFox_INA226_WriteRegister
  6733     0D1C  01A1               	clrf	??_AutoFox_INA226_WriteRegister+1
  6734     0D1D  0820               	movf	??_AutoFox_INA226_WriteRegister,w
  6735     0D1E  00F3               	movwf	I2C_Master_Write@data
  6736     0D1F  0821               	movf	??_AutoFox_INA226_WriteRegister+1,w
  6737     0D20  00F4               	movwf	I2C_Master_Write@data+1
  6738     0D21  120A  158A  21F5  120A  158A  	fcall	_I2C_Master_Write
  6739     0D26                     l2181:
  6740                           
  6741                           ;ina226.c: 225:     I2C_Master_Write(buffer[1]);
  6742     0D26  1283               	bcf	3,5	;RP0=0, select bank0
  6743     0D27  1303               	bcf	3,6	;RP1=0, select bank0
  6744     0D28  0825               	movf	AutoFox_INA226_WriteRegister@buffer+1,w
  6745     0D29  00A0               	movwf	??_AutoFox_INA226_WriteRegister
  6746     0D2A  01A1               	clrf	??_AutoFox_INA226_WriteRegister+1
  6747     0D2B  0820               	movf	??_AutoFox_INA226_WriteRegister,w
  6748     0D2C  00F3               	movwf	I2C_Master_Write@data
  6749     0D2D  0821               	movf	??_AutoFox_INA226_WriteRegister+1,w
  6750     0D2E  00F4               	movwf	I2C_Master_Write@data+1
  6751     0D2F  120A  158A  21F5  120A  158A  	fcall	_I2C_Master_Write
  6752     0D34                     l2183:
  6753                           
  6754                           ;ina226.c: 226:     I2C_Master_Write(buffer[2]);
  6755     0D34  1283               	bcf	3,5	;RP0=0, select bank0
  6756     0D35  1303               	bcf	3,6	;RP1=0, select bank0
  6757     0D36  0826               	movf	AutoFox_INA226_WriteRegister@buffer+2,w
  6758     0D37  00A0               	movwf	??_AutoFox_INA226_WriteRegister
  6759     0D38  01A1               	clrf	??_AutoFox_INA226_WriteRegister+1
  6760     0D39  0820               	movf	??_AutoFox_INA226_WriteRegister,w
  6761     0D3A  00F3               	movwf	I2C_Master_Write@data
  6762     0D3B  0821               	movf	??_AutoFox_INA226_WriteRegister+1,w
  6763     0D3C  00F4               	movwf	I2C_Master_Write@data+1
  6764     0D3D  120A  158A  21F5  120A  158A  	fcall	_I2C_Master_Write
  6765     0D42                     l2185:
  6766                           
  6767                           ;ina226.c: 228:     I2C_Master_Stop();
  6768     0D42  120A  158A  21EC  120A  158A  	fcall	_I2C_Master_Stop
  6769     0D47                     l2187:
  6770                           
  6771                           ;ina226.c: 230:     return OK;
  6772     0D47  3000               	movlw	0
  6773     0D48                     l339:
  6774     0D48  0008               	return
  6775     0D49                     __end_of_AutoFox_INA226_WriteRegister:
  6776                           
  6777                           	psect	text25
  6778     0F57                     __ptext25:	
  6779 ;; *************** function _AutoFox_INA226_ReadRegister *****************
  6780 ;; Defined at:
  6781 ;;		line 193 in file "ina226.c"
  6782 ;; Parameters:    Size  Location     Type
  6783 ;;  this            2    0[BANK0 ] PTR struct AutoFox_INA22
  6784 ;;		 -> main@ina226(14), 
  6785 ;;  aRegister       1    2[BANK0 ] unsigned char 
  6786 ;;  aValue_p        2    3[BANK0 ] PTR unsigned short 
  6787 ;;		 -> AutoFox_INA226_ResetAlertPin@theTriggerCause(2), AutoFox_INA226_ConfigureAlertPinTrigger@theMaskEnableRegister(2
      +), AutoFox_INA226_GetPower_uW@theRegisterValue(2), AutoFox_INA226_GetCurrent_uA@theRegisterValue(2), 
  6788 ;;		 -> AutoFox_INA226_GetBusVoltage_V@theRegisterValue(4), AutoFox_INA226_GetShuntVoltage_uV@theRegisterValue(2), AutoF
      +ox_INA226_Init@theINA226_ID(2), main@ina226(14), 
  6789 ;; Auto vars:     Size  Location     Type
  6790 ;;		None
  6791 ;; Return value:  Size  Location     Type
  6792 ;;                  1    wreg      enum E1803
  6793 ;; Registers used:
  6794 ;;		wreg, fsr0l, fsr0h, status,2, status,0, btemp+1, pclath, cstack
  6795 ;; Tracked objects:
  6796 ;;		On entry : 0/0
  6797 ;;		On exit  : 0/0
  6798 ;;		Unchanged: 0/0
  6799 ;; Data sizes:     COMMON   BANK0   BANK1   BANK3   BANK2
  6800 ;;      Params:         0       5       0       0       0
  6801 ;;      Locals:         0       0       0       0       0
  6802 ;;      Temps:          0       4       0       0       0
  6803 ;;      Totals:         0       9       0       0       0
  6804 ;;Total ram usage:        9 bytes
  6805 ;; Hardware stack levels used: 1
  6806 ;; Hardware stack levels required when called: 3
  6807 ;; This function calls:
  6808 ;;		_I2C_Master_Read
  6809 ;;		_I2C_Master_Start
  6810 ;;		_I2C_Master_Stop
  6811 ;;		_I2C_Master_Write
  6812 ;; This function is called by:
  6813 ;;		_AutoFox_INA226_Init
  6814 ;;		_AutoFox_INA226_GetBusVoltage_V
  6815 ;;		_AutoFox_INA226_ConfigureVoltageConversionTime
  6816 ;;		_AutoFox_INA226_ConfigureNumSampleAveraging
  6817 ;;		_AutoFox_INA226_GetShuntVoltage_uV
  6818 ;;		_AutoFox_INA226_GetCurrent_uA
  6819 ;;		_AutoFox_INA226_GetPower_uW
  6820 ;;		_AutoFox_INA226_Hibernate
  6821 ;;		_AutoFox_INA226_SetOperatingMode
  6822 ;;		_AutoFox_INA226_ConfigureAlertPinTrigger
  6823 ;;		_AutoFox_INA226_ResetAlertPin
  6824 ;;		_AutoFox_INA226_Debug_GetConfigRegister
  6825 ;; This function uses a non-reentrant model
  6826 ;;
  6827                           
  6828     0F57                     _AutoFox_INA226_ReadRegister:	
  6829                           ;psect for function _AutoFox_INA226_ReadRegister
  6830                           
  6831     0F57                     l3161:	
  6832                           ;incstack = 0
  6833                           ; Regs used in _AutoFox_INA226_ReadRegister: [wreg-fsr0h+status,2+status,0+btemp+1+pclat
      +                          h+cstack]
  6834                           
  6835                           
  6836                           ;ina226.c: 193: status AutoFox_INA226_ReadRegister(AutoFox_INA226* this, uint8_t aRegist
      +                          er, uint16_t* aValue_p);ina226.c: 194: {;ina226.c: 195:     *aValue_p = 0;
  6837     0F57  1283               	bcf	3,5	;RP0=0, select bank0
  6838     0F58  1303               	bcf	3,6	;RP1=0, select bank0
  6839     0F59  0823               	movf	AutoFox_INA226_ReadRegister@aValue_p,w
  6840     0F5A  0084               	movwf	4
  6841     0F5B  1783               	bsf	3,7
  6842     0F5C  1C24               	btfss	AutoFox_INA226_ReadRegister@aValue_p+1,0
  6843     0F5D  1383               	bcf	3,7
  6844     0F5E  0180               	clrf	0
  6845     0F5F  0A84               	incf	4,f
  6846     0F60  0180               	clrf	0
  6847     0F61                     l3163:
  6848                           
  6849                           ;ina226.c: 196:     I2C_Master_Start();
  6850     0F61  120A  158A  21E3  120A  158A  	fcall	_I2C_Master_Start
  6851     0F66                     l3165:
  6852                           
  6853                           ;ina226.c: 197:     I2C_Master_Write(this->mI2C_Address << 1);
  6854     0F66  1283               	bcf	3,5	;RP0=0, select bank0
  6855     0F67  1303               	bcf	3,6	;RP1=0, select bank0
  6856     0F68  0820               	movf	AutoFox_INA226_ReadRegister@this,w
  6857     0F69  3E01               	addlw	1
  6858     0F6A  00A5               	movwf	??_AutoFox_INA226_ReadRegister
  6859     0F6B  0821               	movf	AutoFox_INA226_ReadRegister@this+1,w
  6860     0F6C  1803               	skipnc
  6861     0F6D  3E01               	addlw	1
  6862     0F6E  3E00               	addlw	0
  6863     0F6F  00A6               	movwf	??_AutoFox_INA226_ReadRegister+1
  6864     0F70  0825               	movf	??_AutoFox_INA226_ReadRegister,w
  6865     0F71  0084               	movwf	4
  6866     0F72  1783               	bsf	3,7
  6867     0F73  1C26               	btfss	??_AutoFox_INA226_ReadRegister+1,0
  6868     0F74  1383               	bcf	3,7
  6869     0F75  0800               	movf	0,w
  6870     0F76  00A7               	movwf	??_AutoFox_INA226_ReadRegister+2
  6871     0F77  01A8               	clrf	??_AutoFox_INA226_ReadRegister+3
  6872     0F78  1003               	clrc
  6873     0F79  0D27               	rlf	??_AutoFox_INA226_ReadRegister+2,w
  6874     0F7A  00F3               	movwf	I2C_Master_Write@data
  6875     0F7B  0D28               	rlf	??_AutoFox_INA226_ReadRegister+3,w
  6876     0F7C  00F4               	movwf	I2C_Master_Write@data+1
  6877     0F7D  120A  158A  21F5  120A  158A  	fcall	_I2C_Master_Write
  6878     0F82                     l3167:
  6879                           
  6880                           ;ina226.c: 198:     I2C_Master_Write(aRegister);
  6881     0F82  1283               	bcf	3,5	;RP0=0, select bank0
  6882     0F83  1303               	bcf	3,6	;RP1=0, select bank0
  6883     0F84  0822               	movf	AutoFox_INA226_ReadRegister@aRegister,w
  6884     0F85  00A5               	movwf	??_AutoFox_INA226_ReadRegister
  6885     0F86  01A6               	clrf	??_AutoFox_INA226_ReadRegister+1
  6886     0F87  0825               	movf	??_AutoFox_INA226_ReadRegister,w
  6887     0F88  00F3               	movwf	I2C_Master_Write@data
  6888     0F89  0826               	movf	??_AutoFox_INA226_ReadRegister+1,w
  6889     0F8A  00F4               	movwf	I2C_Master_Write@data+1
  6890     0F8B  120A  158A  21F5  120A  158A  	fcall	_I2C_Master_Write
  6891     0F90                     l3169:
  6892                           
  6893                           ;ina226.c: 199:     I2C_Master_Stop();
  6894     0F90  120A  158A  21EC  120A  158A  	fcall	_I2C_Master_Stop
  6895     0F95                     l3171:
  6896                           
  6897                           ;ina226.c: 200:     I2C_Master_Start();
  6898     0F95  120A  158A  21E3  120A  158A  	fcall	_I2C_Master_Start
  6899     0F9A                     l3173:
  6900                           
  6901                           ;ina226.c: 201:     I2C_Master_Write((this->mI2C_Address << 1) | 1);
  6902     0F9A  1283               	bcf	3,5	;RP0=0, select bank0
  6903     0F9B  1303               	bcf	3,6	;RP1=0, select bank0
  6904     0F9C  0820               	movf	AutoFox_INA226_ReadRegister@this,w
  6905     0F9D  3E01               	addlw	1
  6906     0F9E  00A5               	movwf	??_AutoFox_INA226_ReadRegister
  6907     0F9F  0821               	movf	AutoFox_INA226_ReadRegister@this+1,w
  6908     0FA0  1803               	skipnc
  6909     0FA1  3E01               	addlw	1
  6910     0FA2  3E00               	addlw	0
  6911     0FA3  00A6               	movwf	??_AutoFox_INA226_ReadRegister+1
  6912     0FA4  0825               	movf	??_AutoFox_INA226_ReadRegister,w
  6913     0FA5  0084               	movwf	4
  6914     0FA6  1783               	bsf	3,7
  6915     0FA7  1C26               	btfss	??_AutoFox_INA226_ReadRegister+1,0
  6916     0FA8  1383               	bcf	3,7
  6917     0FA9  0800               	movf	0,w
  6918     0FAA  00A7               	movwf	??_AutoFox_INA226_ReadRegister+2
  6919     0FAB  01A8               	clrf	??_AutoFox_INA226_ReadRegister+3
  6920     0FAC  1003               	clrc
  6921     0FAD  0DA7               	rlf	??_AutoFox_INA226_ReadRegister+2,f
  6922     0FAE  0DA8               	rlf	??_AutoFox_INA226_ReadRegister+3,f
  6923     0FAF  3001               	movlw	1
  6924     0FB0  0427               	iorwf	??_AutoFox_INA226_ReadRegister+2,w
  6925     0FB1  00F3               	movwf	I2C_Master_Write@data
  6926     0FB2  3000               	movlw	0
  6927     0FB3  0428               	iorwf	??_AutoFox_INA226_ReadRegister+3,w
  6928     0FB4  00F4               	movwf	I2C_Master_Write@data+1
  6929     0FB5  120A  158A  21F5  120A  158A  	fcall	_I2C_Master_Write
  6930     0FBA                     l3175:
  6931                           
  6932                           ;ina226.c: 203:     *aValue_p = I2C_Master_Read(1);
  6933     0FBA  3001               	movlw	1
  6934     0FBB  120A  158A  22C5  120A  158A  	fcall	_I2C_Master_Read
  6935     0FC0  1283               	bcf	3,5	;RP0=0, select bank0
  6936     0FC1  1303               	bcf	3,6	;RP1=0, select bank0
  6937     0FC2  00A5               	movwf	??_AutoFox_INA226_ReadRegister
  6938     0FC3  01A6               	clrf	??_AutoFox_INA226_ReadRegister+1
  6939     0FC4  0823               	movf	AutoFox_INA226_ReadRegister@aValue_p,w
  6940     0FC5  0084               	movwf	4
  6941     0FC6  1783               	bsf	3,7
  6942     0FC7  1C24               	btfss	AutoFox_INA226_ReadRegister@aValue_p+1,0
  6943     0FC8  1383               	bcf	3,7
  6944     0FC9  0825               	movf	??_AutoFox_INA226_ReadRegister,w
  6945     0FCA  0080               	movwf	0
  6946     0FCB  0A84               	incf	4,f
  6947     0FCC  0826               	movf	??_AutoFox_INA226_ReadRegister+1,w
  6948     0FCD  0080               	movwf	0
  6949     0FCE                     l3177:
  6950                           
  6951                           ;ina226.c: 204:     *aValue_p = *aValue_p << 8;
  6952     0FCE  0823               	movf	AutoFox_INA226_ReadRegister@aValue_p,w
  6953     0FCF  0084               	movwf	4
  6954     0FD0  1783               	bsf	3,7
  6955     0FD1  1C24               	btfss	AutoFox_INA226_ReadRegister@aValue_p+1,0
  6956     0FD2  1383               	bcf	3,7
  6957     0FD3  0800               	movf	0,w
  6958     0FD4  00A5               	movwf	??_AutoFox_INA226_ReadRegister
  6959     0FD5  0A84               	incf	4,f
  6960     0FD6  0800               	movf	0,w
  6961     0FD7  00A6               	movwf	??_AutoFox_INA226_ReadRegister+1
  6962     0FD8  0825               	movf	??_AutoFox_INA226_ReadRegister,w
  6963     0FD9  00A6               	movwf	??_AutoFox_INA226_ReadRegister+1
  6964     0FDA  01A5               	clrf	??_AutoFox_INA226_ReadRegister
  6965     0FDB  0823               	movf	AutoFox_INA226_ReadRegister@aValue_p,w
  6966     0FDC  0084               	movwf	4
  6967     0FDD  1783               	bsf	3,7
  6968     0FDE  1C24               	btfss	AutoFox_INA226_ReadRegister@aValue_p+1,0
  6969     0FDF  1383               	bcf	3,7
  6970     0FE0  0825               	movf	??_AutoFox_INA226_ReadRegister,w
  6971     0FE1  0080               	movwf	0
  6972     0FE2  0A84               	incf	4,f
  6973     0FE3  0826               	movf	??_AutoFox_INA226_ReadRegister+1,w
  6974     0FE4  0080               	movwf	0
  6975     0FE5                     l3179:
  6976                           
  6977                           ;ina226.c: 205:     *aValue_p |= I2C_Master_Read(0);
  6978     0FE5  3000               	movlw	0
  6979     0FE6  120A  158A  22C5  120A  158A  	fcall	_I2C_Master_Read
  6980     0FEB  1283               	bcf	3,5	;RP0=0, select bank0
  6981     0FEC  1303               	bcf	3,6	;RP1=0, select bank0
  6982     0FED  00A5               	movwf	??_AutoFox_INA226_ReadRegister
  6983     0FEE  01A6               	clrf	??_AutoFox_INA226_ReadRegister+1
  6984     0FEF  0823               	movf	AutoFox_INA226_ReadRegister@aValue_p,w
  6985     0FF0  0084               	movwf	4
  6986     0FF1  1783               	bsf	3,7
  6987     0FF2  1C24               	btfss	AutoFox_INA226_ReadRegister@aValue_p+1,0
  6988     0FF3  1383               	bcf	3,7
  6989     0FF4  0825               	movf	??_AutoFox_INA226_ReadRegister,w
  6990     0FF5  0480               	iorwf	0,f
  6991     0FF6  0A84               	incf	4,f
  6992     0FF7  0826               	movf	??_AutoFox_INA226_ReadRegister+1,w
  6993     0FF8  0480               	iorwf	0,f
  6994     0FF9                     l3181:
  6995                           
  6996                           ;ina226.c: 207:     I2C_Master_Stop();
  6997     0FF9  120A  158A  21EC  120A  158A  	fcall	_I2C_Master_Stop
  6998     0FFE                     l3183:
  6999                           
  7000                           ;ina226.c: 209:     return OK;
  7001     0FFE  3000               	movlw	0
  7002     0FFF                     l336:
  7003     0FFF  0008               	return
  7004     1000                     __end_of_AutoFox_INA226_ReadRegister:
  7005                           
  7006                           	psect	text26
  7007     09F5                     __ptext26:	
  7008 ;; *************** function _I2C_Master_Write *****************
  7009 ;; Defined at:
  7010 ;;		line 105 in file "hw_i2c.c"
  7011 ;; Parameters:    Size  Location     Type
  7012 ;;  data            2    2[COMMON] unsigned int 
  7013 ;; Auto vars:     Size  Location     Type
  7014 ;;		None
  7015 ;; Return value:  Size  Location     Type
  7016 ;;                  1    wreg      void 
  7017 ;; Registers used:
  7018 ;;		wreg, status,2, status,0, pclath, cstack
  7019 ;; Tracked objects:
  7020 ;;		On entry : 0/0
  7021 ;;		On exit  : 0/0
  7022 ;;		Unchanged: 0/0
  7023 ;; Data sizes:     COMMON   BANK0   BANK1   BANK3   BANK2
  7024 ;;      Params:         2       0       0       0       0
  7025 ;;      Locals:         0       0       0       0       0
  7026 ;;      Temps:          0       0       0       0       0
  7027 ;;      Totals:         2       0       0       0       0
  7028 ;;Total ram usage:        2 bytes
  7029 ;; Hardware stack levels used: 1
  7030 ;; Hardware stack levels required when called: 2
  7031 ;; This function calls:
  7032 ;;		_I2C_Master_Wait
  7033 ;; This function is called by:
  7034 ;;		_AutoFox_INA226_CheckI2cAddress
  7035 ;;		_AutoFox_INA226_ReadRegister
  7036 ;;		_AutoFox_INA226_WriteRegister
  7037 ;; This function uses a non-reentrant model
  7038 ;;
  7039                           
  7040     09F5                     _I2C_Master_Write:	
  7041                           ;psect for function _I2C_Master_Write
  7042                           
  7043     09F5                     l2087:	
  7044                           ;incstack = 0
  7045                           ; Regs used in _I2C_Master_Write: [wreg+status,2+status,0+pclath+cstack]
  7046                           
  7047                           
  7048                           ;hw_i2c.c: 105: void I2C_Master_Write(unsigned data);hw_i2c.c: 106: {;hw_i2c.c: 107:    
      +                           I2C_Master_Wait();
  7049     09F5  120A  158A  2240  120A  158A  	fcall	_I2C_Master_Wait
  7050     09FA                     l2089:
  7051                           
  7052                           ;hw_i2c.c: 108:     SSPBUF=data;
  7053     09FA  0873               	movf	I2C_Master_Write@data,w
  7054     09FB  1283               	bcf	3,5	;RP0=0, select bank0
  7055     09FC  1303               	bcf	3,6	;RP1=0, select bank0
  7056     09FD  0093               	movwf	19	;volatile
  7057     09FE                     l177:
  7058     09FE  0008               	return
  7059     09FF                     __end_of_I2C_Master_Write:
  7060                           
  7061                           	psect	text27
  7062     09EC                     __ptext27:	
  7063 ;; *************** function _I2C_Master_Stop *****************
  7064 ;; Defined at:
  7065 ;;		line 91 in file "hw_i2c.c"
  7066 ;; Parameters:    Size  Location     Type
  7067 ;;		None
  7068 ;; Auto vars:     Size  Location     Type
  7069 ;;		None
  7070 ;; Return value:  Size  Location     Type
  7071 ;;                  1    wreg      void 
  7072 ;; Registers used:
  7073 ;;		status,2, status,0, pclath, cstack
  7074 ;; Tracked objects:
  7075 ;;		On entry : 0/0
  7076 ;;		On exit  : 0/0
  7077 ;;		Unchanged: 0/0
  7078 ;; Data sizes:     COMMON   BANK0   BANK1   BANK3   BANK2
  7079 ;;      Params:         0       0       0       0       0
  7080 ;;      Locals:         0       0       0       0       0
  7081 ;;      Temps:          0       0       0       0       0
  7082 ;;      Totals:         0       0       0       0       0
  7083 ;;Total ram usage:        0 bytes
  7084 ;; Hardware stack levels used: 1
  7085 ;; Hardware stack levels required when called: 2
  7086 ;; This function calls:
  7087 ;;		_I2C_Master_Wait
  7088 ;; This function is called by:
  7089 ;;		_AutoFox_INA226_CheckI2cAddress
  7090 ;;		_AutoFox_INA226_ReadRegister
  7091 ;;		_AutoFox_INA226_WriteRegister
  7092 ;; This function uses a non-reentrant model
  7093 ;;
  7094                           
  7095     09EC                     _I2C_Master_Stop:	
  7096                           ;psect for function _I2C_Master_Stop
  7097                           
  7098     09EC                     l2083:	
  7099                           ;incstack = 0
  7100                           ; Regs used in _I2C_Master_Stop: [status,2+status,0+pclath+cstack]
  7101                           
  7102                           
  7103                           ;hw_i2c.c: 93:     I2C_Master_Wait();
  7104     09EC  120A  158A  2240  120A  158A  	fcall	_I2C_Master_Wait
  7105     09F1                     l2085:
  7106                           
  7107                           ;hw_i2c.c: 94:     SSPCON2bits.PEN=1;
  7108     09F1  1683               	bsf	3,5	;RP0=1, select bank1
  7109     09F2  1303               	bcf	3,6	;RP1=0, select bank1
  7110     09F3  1511               	bsf	17,2	;volatile
  7111     09F4                     l174:
  7112     09F4  0008               	return
  7113     09F5                     __end_of_I2C_Master_Stop:
  7114                           
  7115                           	psect	text28
  7116     09E3                     __ptext28:	
  7117 ;; *************** function _I2C_Master_Start *****************
  7118 ;; Defined at:
  7119 ;;		line 77 in file "hw_i2c.c"
  7120 ;; Parameters:    Size  Location     Type
  7121 ;;		None
  7122 ;; Auto vars:     Size  Location     Type
  7123 ;;		None
  7124 ;; Return value:  Size  Location     Type
  7125 ;;                  1    wreg      void 
  7126 ;; Registers used:
  7127 ;;		status,2, status,0, pclath, cstack
  7128 ;; Tracked objects:
  7129 ;;		On entry : 0/0
  7130 ;;		On exit  : 0/0
  7131 ;;		Unchanged: 0/0
  7132 ;; Data sizes:     COMMON   BANK0   BANK1   BANK3   BANK2
  7133 ;;      Params:         0       0       0       0       0
  7134 ;;      Locals:         0       0       0       0       0
  7135 ;;      Temps:          0       0       0       0       0
  7136 ;;      Totals:         0       0       0       0       0
  7137 ;;Total ram usage:        0 bytes
  7138 ;; Hardware stack levels used: 1
  7139 ;; Hardware stack levels required when called: 2
  7140 ;; This function calls:
  7141 ;;		_I2C_Master_Wait
  7142 ;; This function is called by:
  7143 ;;		_AutoFox_INA226_CheckI2cAddress
  7144 ;;		_AutoFox_INA226_ReadRegister
  7145 ;;		_AutoFox_INA226_WriteRegister
  7146 ;; This function uses a non-reentrant model
  7147 ;;
  7148                           
  7149     09E3                     _I2C_Master_Start:	
  7150                           ;psect for function _I2C_Master_Start
  7151                           
  7152     09E3                     l2079:	
  7153                           ;incstack = 0
  7154                           ; Regs used in _I2C_Master_Start: [status,2+status,0+pclath+cstack]
  7155                           
  7156                           
  7157                           ;hw_i2c.c: 79:     I2C_Master_Wait();
  7158     09E3  120A  158A  2240  120A  158A  	fcall	_I2C_Master_Wait
  7159     09E8                     l2081:
  7160                           
  7161                           ;hw_i2c.c: 80:     SSPCON2bits.SEN=1;
  7162     09E8  1683               	bsf	3,5	;RP0=1, select bank1
  7163     09E9  1303               	bcf	3,6	;RP1=0, select bank1
  7164     09EA  1411               	bsf	17,0	;volatile
  7165     09EB                     l171:
  7166     09EB  0008               	return
  7167     09EC                     __end_of_I2C_Master_Start:
  7168                           
  7169                           	psect	text29
  7170     0AC5                     __ptext29:	
  7171 ;; *************** function _I2C_Master_Read *****************
  7172 ;; Defined at:
  7173 ;;		line 119 in file "hw_i2c.c"
  7174 ;; Parameters:    Size  Location     Type
  7175 ;;  ack             1    wreg     unsigned char 
  7176 ;; Auto vars:     Size  Location     Type
  7177 ;;  ack             1    6[COMMON] unsigned char 
  7178 ;;  data            2    4[COMMON] unsigned short 
  7179 ;; Return value:  Size  Location     Type
  7180 ;;                  1    wreg      unsigned char 
  7181 ;; Registers used:
  7182 ;;		wreg, status,2, status,0, pclath, cstack
  7183 ;; Tracked objects:
  7184 ;;		On entry : 0/0
  7185 ;;		On exit  : 0/0
  7186 ;;		Unchanged: 0/0
  7187 ;; Data sizes:     COMMON   BANK0   BANK1   BANK3   BANK2
  7188 ;;      Params:         0       0       0       0       0
  7189 ;;      Locals:         3       0       0       0       0
  7190 ;;      Temps:          2       0       0       0       0
  7191 ;;      Totals:         5       0       0       0       0
  7192 ;;Total ram usage:        5 bytes
  7193 ;; Hardware stack levels used: 1
  7194 ;; Hardware stack levels required when called: 2
  7195 ;; This function calls:
  7196 ;;		_I2C_Master_Wait
  7197 ;; This function is called by:
  7198 ;;		_AutoFox_INA226_ReadRegister
  7199 ;; This function uses a non-reentrant model
  7200 ;;
  7201                           
  7202     0AC5                     _I2C_Master_Read:	
  7203                           ;psect for function _I2C_Master_Read
  7204                           
  7205                           
  7206                           ;incstack = 0
  7207                           ; Regs used in _I2C_Master_Read: [wreg+status,2+status,0+pclath+cstack]
  7208                           ;I2C_Master_Read@ack stored from wreg
  7209     0AC5  00F7               	movwf	I2C_Master_Read@ack
  7210     0AC6                     l2153:
  7211                           
  7212                           ;hw_i2c.c: 119: unsigned char I2C_Master_Read(unsigned char ack);hw_i2c.c: 120: {;hw_i2c
      +                          .c: 121:     unsigned short data;;hw_i2c.c: 122:     I2C_Master_Wait();
  7213     0AC6  120A  158A  2240  120A  158A  	fcall	_I2C_Master_Wait
  7214     0ACB                     l2155:
  7215                           
  7216                           ;hw_i2c.c: 123:     RCEN=1;
  7217     0ACB  1683               	bsf	3,5	;RP0=1, select bank1
  7218     0ACC  1303               	bcf	3,6	;RP1=0, select bank1
  7219     0ACD  1591               	bsf	17,3	;volatile
  7220                           
  7221                           ;hw_i2c.c: 124:     I2C_Master_Wait();
  7222     0ACE  120A  158A  2240  120A  158A  	fcall	_I2C_Master_Wait
  7223     0AD3                     l2157:
  7224                           
  7225                           ;hw_i2c.c: 125:     data=SSPBUF;
  7226     0AD3  1283               	bcf	3,5	;RP0=0, select bank0
  7227     0AD4  1303               	bcf	3,6	;RP1=0, select bank0
  7228     0AD5  0813               	movf	19,w	;volatile
  7229     0AD6  00F3               	movwf	??_I2C_Master_Read
  7230     0AD7  01F4               	clrf	??_I2C_Master_Read+1
  7231     0AD8  0873               	movf	??_I2C_Master_Read,w
  7232     0AD9  00F5               	movwf	I2C_Master_Read@data
  7233     0ADA  0874               	movf	??_I2C_Master_Read+1,w
  7234     0ADB  00F6               	movwf	I2C_Master_Read@data+1
  7235     0ADC                     l2159:
  7236                           
  7237                           ;hw_i2c.c: 126:     I2C_Master_Wait();
  7238     0ADC  120A  158A  2240  120A  158A  	fcall	_I2C_Master_Wait
  7239     0AE1                     l2161:
  7240                           
  7241                           ;hw_i2c.c: 127:     ACKDT=(ack)?0:1;
  7242     0AE1  0877               	movf	I2C_Master_Read@ack,w
  7243     0AE2  1903               	btfsc	3,2
  7244     0AE3  2AE5               	goto	u1271
  7245     0AE4  2AE9               	goto	u1270
  7246     0AE5                     u1271:
  7247     0AE5  1683               	bsf	3,5	;RP0=1, select bank1
  7248     0AE6  1303               	bcf	3,6	;RP1=0, select bank1
  7249     0AE7  1691               	bsf	17,5	;volatile
  7250     0AE8  2AEC               	goto	u1284
  7251     0AE9                     u1270:
  7252     0AE9  1683               	bsf	3,5	;RP0=1, select bank1
  7253     0AEA  1303               	bcf	3,6	;RP1=0, select bank1
  7254     0AEB  1291               	bcf	17,5	;volatile
  7255     0AEC                     u1284:
  7256     0AEC                     l2163:
  7257                           
  7258                           ;hw_i2c.c: 128:     ACKEN=1;
  7259     0AEC  1611               	bsf	17,4	;volatile
  7260     0AED                     l2165:
  7261                           
  7262                           ;hw_i2c.c: 129:     return data;
  7263     0AED  0875               	movf	I2C_Master_Read@data,w
  7264     0AEE                     l180:
  7265     0AEE  0008               	return
  7266     0AEF                     __end_of_I2C_Master_Read:
  7267                           
  7268                           	psect	text30
  7269     0A40                     __ptext30:	
  7270 ;; *************** function _I2C_Master_Wait *****************
  7271 ;; Defined at:
  7272 ;;		line 61 in file "hw_i2c.c"
  7273 ;; Parameters:    Size  Location     Type
  7274 ;;		None
  7275 ;; Auto vars:     Size  Location     Type
  7276 ;;		None
  7277 ;; Return value:  Size  Location     Type
  7278 ;;                  1    wreg      void 
  7279 ;; Registers used:
  7280 ;;		None
  7281 ;; Tracked objects:
  7282 ;;		On entry : 0/0
  7283 ;;		On exit  : 0/0
  7284 ;;		Unchanged: 0/0
  7285 ;; Data sizes:     COMMON   BANK0   BANK1   BANK3   BANK2
  7286 ;;      Params:         0       0       0       0       0
  7287 ;;      Locals:         0       0       0       0       0
  7288 ;;      Temps:          0       0       0       0       0
  7289 ;;      Totals:         0       0       0       0       0
  7290 ;;Total ram usage:        0 bytes
  7291 ;; Hardware stack levels used: 1
  7292 ;; Hardware stack levels required when called: 1
  7293 ;; This function calls:
  7294 ;;		Nothing
  7295 ;; This function is called by:
  7296 ;;		_I2C_Master_Start
  7297 ;;		_I2C_Master_Stop
  7298 ;;		_I2C_Master_Write
  7299 ;;		_I2C_Master_Read
  7300 ;; This function uses a non-reentrant model
  7301 ;;
  7302                           
  7303     0A40                     _I2C_Master_Wait:	
  7304                           ;psect for function _I2C_Master_Wait
  7305                           
  7306     0A40                     l2065:	
  7307                           ;incstack = 0
  7308                           ; Regs used in _I2C_Master_Wait: []
  7309                           
  7310     0A40                     l165:	
  7311                           ;hw_i2c.c: 65:     {;hw_i2c.c: 66:     };
  7312                           
  7313                           
  7314                           ;hw_i2c.c: 63:     while (SSPCON2bits.RCEN || SSPCON2bits.PEN || SSPCON2bits.RSEN ||
  7315     0A40  1683               	bsf	3,5	;RP0=1, select bank1
  7316     0A41  1303               	bcf	3,6	;RP1=0, select bank1
  7317     0A42  1991               	btfsc	17,3	;volatile
  7318     0A43  2A45               	goto	u1041
  7319     0A44  2A46               	goto	u1040
  7320     0A45                     u1041:
  7321     0A45  2A40               	goto	l165
  7322     0A46                     u1040:
  7323     0A46                     l2067:
  7324     0A46  1911               	btfsc	17,2	;volatile
  7325     0A47  2A49               	goto	u1051
  7326     0A48  2A4A               	goto	u1050
  7327     0A49                     u1051:
  7328     0A49  2A40               	goto	l165
  7329     0A4A                     u1050:
  7330     0A4A                     l2069:
  7331     0A4A  1891               	btfsc	17,1	;volatile
  7332     0A4B  2A4D               	goto	u1061
  7333     0A4C  2A4E               	goto	u1060
  7334     0A4D                     u1061:
  7335     0A4D  2A40               	goto	l165
  7336     0A4E                     u1060:
  7337     0A4E                     l2071:
  7338     0A4E  1811               	btfsc	17,0	;volatile
  7339     0A4F  2A51               	goto	u1071
  7340     0A50  2A52               	goto	u1070
  7341     0A51                     u1071:
  7342     0A51  2A40               	goto	l165
  7343     0A52                     u1070:
  7344     0A52                     l2073:
  7345     0A52  1A11               	btfsc	17,4	;volatile
  7346     0A53  2A55               	goto	u1081
  7347     0A54  2A56               	goto	u1080
  7348     0A55                     u1081:
  7349     0A55  2A40               	goto	l165
  7350     0A56                     u1080:
  7351     0A56                     l2075:
  7352     0A56  1914               	btfsc	20,2	;volatile
  7353     0A57  2A59               	goto	u1091
  7354     0A58  2A5A               	goto	u1090
  7355     0A59                     u1091:
  7356     0A59  2A40               	goto	l165
  7357     0A5A                     u1090:
  7358     0A5A                     l168:
  7359     0A5A  0008               	return
  7360     0A5B                     __end_of_I2C_Master_Wait:
  7361                           
  7362                           	psect	text31
  7363     0A5B                     __ptext31:	
  7364 ;; *************** function _ADC_Init *****************
  7365 ;; Defined at:
  7366 ;;		line 13 in file "adc.c"
  7367 ;; Parameters:    Size  Location     Type
  7368 ;;		None
  7369 ;; Auto vars:     Size  Location     Type
  7370 ;;		None
  7371 ;; Return value:  Size  Location     Type
  7372 ;;                  1    wreg      void 
  7373 ;; Registers used:
  7374 ;;		wreg, status,2, status,0
  7375 ;; Tracked objects:
  7376 ;;		On entry : 0/0
  7377 ;;		On exit  : 0/0
  7378 ;;		Unchanged: 0/0
  7379 ;; Data sizes:     COMMON   BANK0   BANK1   BANK3   BANK2
  7380 ;;      Params:         0       0       0       0       0
  7381 ;;      Locals:         0       0       0       0       0
  7382 ;;      Temps:          2       0       0       0       0
  7383 ;;      Totals:         2       0       0       0       0
  7384 ;;Total ram usage:        2 bytes
  7385 ;; Hardware stack levels used: 1
  7386 ;; Hardware stack levels required when called: 1
  7387 ;; This function calls:
  7388 ;;		Nothing
  7389 ;; This function is called by:
  7390 ;;		_main
  7391 ;; This function uses a non-reentrant model
  7392 ;;
  7393                           
  7394     0A5B                     _ADC_Init:	
  7395                           ;psect for function _ADC_Init
  7396                           
  7397     0A5B                     l2629:	
  7398                           ;incstack = 0
  7399                           ; Regs used in _ADC_Init: [wreg+status,2+status,0]
  7400                           
  7401                           
  7402                           ;adc.c: 16:     ADCON0bits.ADCS = 0b10;
  7403     0A5B  1283               	bcf	3,5	;RP0=0, select bank0
  7404     0A5C  1303               	bcf	3,6	;RP1=0, select bank0
  7405     0A5D  081F               	movf	31,w	;volatile
  7406     0A5E  393F               	andlw	-193
  7407     0A5F  3880               	iorlw	128
  7408     0A60  009F               	movwf	31	;volatile
  7409     0A61                     l2631:
  7410                           
  7411                           ;adc.c: 19:     ADCON1bits.VCFG0 = 1;
  7412     0A61  1683               	bsf	3,5	;RP0=1, select bank1
  7413     0A62  1303               	bcf	3,6	;RP1=0, select bank1
  7414     0A63  161F               	bsf	31,4	;volatile
  7415     0A64                     l2633:
  7416                           
  7417                           ;adc.c: 20:     ADCON1bits.VCFG1 = 0;
  7418     0A64  129F               	bcf	31,5	;volatile
  7419                           
  7420                           ;adc.c: 23:     ADCON0bits.CHS = 0b0000;
  7421     0A65  30C3               	movlw	-61
  7422     0A66  1283               	bcf	3,5	;RP0=0, select bank0
  7423     0A67  1303               	bcf	3,6	;RP1=0, select bank0
  7424     0A68  059F               	andwf	31,f	;volatile
  7425     0A69                     l2635:
  7426                           
  7427                           ;adc.c: 24:     _delay((unsigned long)((2)*(8000000/4000.0)));
  7428     0A69  3006               	movlw	6
  7429     0A6A  00F4               	movwf	??_ADC_Init+1
  7430     0A6B  3030               	movlw	48
  7431     0A6C  00F3               	movwf	??_ADC_Init
  7432     0A6D                     u2907:
  7433     0A6D  0BF3               	decfsz	??_ADC_Init,f
  7434     0A6E  2A6D               	goto	u2907
  7435     0A6F  0BF4               	decfsz	??_ADC_Init+1,f
  7436     0A70  2A6D               	goto	u2907
  7437     0A71  0000               	nop
  7438     0A72                     l2637:
  7439                           
  7440                           ;adc.c: 28:     ADCON1bits.ADFM = 1;
  7441     0A72  1683               	bsf	3,5	;RP0=1, select bank1
  7442     0A73  1303               	bcf	3,6	;RP1=0, select bank1
  7443     0A74  179F               	bsf	31,7	;volatile
  7444     0A75                     l2639:
  7445                           
  7446                           ;adc.c: 31:     ADCON0bits.ADON = 1;
  7447     0A75  1283               	bcf	3,5	;RP0=0, select bank0
  7448     0A76  1303               	bcf	3,6	;RP1=0, select bank0
  7449     0A77  141F               	bsf	31,0	;volatile
  7450     0A78                     l455:
  7451     0A78  0008               	return
  7452     0A79                     __end_of_ADC_Init:
  7453                           
  7454                           	psect	text32
  7455     0B19                     __ptext32:	
  7456 ;; *************** function _ISR *****************
  7457 ;; Defined at:
  7458 ;;		line 29 in file "interrupts.c"
  7459 ;; Parameters:    Size  Location     Type
  7460 ;;		None
  7461 ;; Auto vars:     Size  Location     Type
  7462 ;;		None
  7463 ;; Return value:  Size  Location     Type
  7464 ;;                  1    wreg      void 
  7465 ;; Registers used:
  7466 ;;		wreg, status,2, status,0
  7467 ;; Tracked objects:
  7468 ;;		On entry : 0/0
  7469 ;;		On exit  : 0/0
  7470 ;;		Unchanged: 0/0
  7471 ;; Data sizes:     COMMON   BANK0   BANK1   BANK3   BANK2
  7472 ;;      Params:         0       0       0       0       0
  7473 ;;      Locals:         0       0       0       0       0
  7474 ;;      Temps:          2       0       0       0       0
  7475 ;;      Totals:         2       0       0       0       0
  7476 ;;Total ram usage:        2 bytes
  7477 ;; Hardware stack levels used: 1
  7478 ;; This function calls:
  7479 ;;		Nothing
  7480 ;; This function is called by:
  7481 ;;		Interrupt level 1
  7482 ;; This function uses a non-reentrant model
  7483 ;;
  7484                           
  7485     0B19                     _ISR:	
  7486                           ;psect for function _ISR
  7487                           
  7488     0B19                     i1l2765:
  7489                           
  7490                           ;interrupts.c: 38:     if (TMR0IE && TMR0IF)
  7491     0B19  1E8B               	btfss	11,5	;volatile
  7492     0B1A  2B1C               	goto	u180_21
  7493     0B1B  2B1D               	goto	u180_20
  7494     0B1C                     u180_21:
  7495     0B1C  2B46               	goto	i1l141
  7496     0B1D                     u180_20:
  7497     0B1D                     i1l2767:
  7498     0B1D  1D0B               	btfss	11,2	;volatile
  7499     0B1E  2B20               	goto	u181_21
  7500     0B1F  2B21               	goto	u181_20
  7501     0B20                     u181_21:
  7502     0B20  2B46               	goto	i1l141
  7503     0B21                     u181_20:
  7504     0B21                     i1l2769:
  7505                           
  7506                           ;interrupts.c: 39:     {;interrupts.c: 40:         g_timer_led_blink++;
  7507     0B21  3001               	movlw	1
  7508     0B22  07FA               	addwf	_g_timer_led_blink,f	;volatile
  7509     0B23  1803               	skipnc
  7510     0B24  0AFB               	incf	_g_timer_led_blink+1,f	;volatile
  7511     0B25  3000               	movlw	0
  7512     0B26  07FB               	addwf	_g_timer_led_blink+1,f	;volatile
  7513                           
  7514                           ;interrupts.c: 41:         if(g_timer_led_blink>=3906)
  7515     0B27  300F               	movlw	15
  7516     0B28  027B               	subwf	_g_timer_led_blink+1,w	;volatile
  7517     0B29  3042               	movlw	66
  7518     0B2A  1903               	skipnz
  7519     0B2B  027A               	subwf	_g_timer_led_blink,w	;volatile
  7520     0B2C  1C03               	skipc
  7521     0B2D  2B2F               	goto	u182_21
  7522     0B2E  2B30               	goto	u182_20
  7523     0B2F                     u182_21:
  7524     0B2F  2B45               	goto	i1l2781
  7525     0B30                     u182_20:
  7526     0B30                     i1l2771:
  7527                           
  7528                           ;interrupts.c: 42:         {;interrupts.c: 43:             if(g_flag)
  7529     0B30  1283               	bcf	3,5	;RP0=0, select bank0
  7530     0B31  1303               	bcf	3,6	;RP1=0, select bank0
  7531     0B32  086A               	movf	_g_flag,w	;volatile
  7532     0B33  046B               	iorwf	_g_flag+1,w	;volatile
  7533     0B34  1903               	btfsc	3,2
  7534     0B35  2B37               	goto	u183_21
  7535     0B36  2B38               	goto	u183_20
  7536     0B37                     u183_21:
  7537     0B37  2B3D               	goto	i1l139
  7538     0B38                     u183_20:
  7539     0B38                     i1l2773:
  7540                           
  7541                           ;interrupts.c: 44:             {;interrupts.c: 45:                 PORTBbits.RB3=1;
  7542     0B38  1586               	bsf	6,3	;volatile
  7543                           
  7544                           ;interrupts.c: 46:                 PORTBbits.RB2=0;
  7545     0B39  1106               	bcf	6,2	;volatile
  7546     0B3A                     i1l2775:
  7547                           
  7548                           ;interrupts.c: 47:                 g_flag=0;
  7549     0B3A  01EA               	clrf	_g_flag	;volatile
  7550     0B3B  01EB               	clrf	_g_flag+1	;volatile
  7551                           
  7552                           ;interrupts.c: 49:             }else
  7553     0B3C  2B43               	goto	i1l2779
  7554     0B3D                     i1l139:
  7555                           
  7556                           ;interrupts.c: 50:             {;interrupts.c: 51:                 PORTBbits.RB3=0;
  7557     0B3D  1186               	bcf	6,3	;volatile
  7558                           
  7559                           ;interrupts.c: 52:                 PORTBbits.RB2=1;
  7560     0B3E  1506               	bsf	6,2	;volatile
  7561     0B3F                     i1l2777:
  7562                           
  7563                           ;interrupts.c: 53:                 g_flag=1;
  7564     0B3F  3001               	movlw	1
  7565     0B40  00EA               	movwf	_g_flag	;volatile
  7566     0B41  3000               	movlw	0
  7567     0B42  00EB               	movwf	_g_flag+1	;volatile
  7568     0B43                     i1l2779:
  7569                           
  7570                           ;interrupts.c: 56:             g_timer_led_blink=0;
  7571     0B43  01FA               	clrf	_g_timer_led_blink	;volatile
  7572     0B44  01FB               	clrf	_g_timer_led_blink+1	;volatile
  7573     0B45                     i1l2781:
  7574                           
  7575                           ;interrupts.c: 59:         TMR0IF=0;
  7576     0B45  110B               	bcf	11,2	;volatile
  7577     0B46                     i1l141:
  7578     0B46  0872               	movf	??_ISR+1,w
  7579     0B47  008A               	movwf	10
  7580     0B48  0E71               	swapf	??_ISR,w
  7581     0B49  0083               	movwf	3
  7582     0B4A  0EFE               	swapf	btemp,f
  7583     0B4B  0E7E               	swapf	btemp,w
  7584     0B4C  0009               	retfie
  7585     0B4D                     __end_of_ISR:
  7586     0002                     ___latbits      equ	2
  7587     007E                     btemp           set	126	;btemp
  7588     007E                     wtemp0          set	126
  7589                           
  7590                           	psect	intentry
  7591     0004                     __pintentry:	
  7592                           ;incstack = 0
  7593                           ; Regs used in _ISR: [wreg+status,2+status,0]
  7594                           
  7595     0004                     interrupt_function:
  7596     007E                     saved_w         set	btemp
  7597     0004  00FE               	movwf	btemp
  7598     0005  0E03               	swapf	3,w
  7599     0006  00F1               	movwf	??_ISR
  7600     0007  080A               	movf	10,w
  7601     0008  00F2               	movwf	??_ISR+1
  7602     0009  120A  158A  2B19   	ljmp	_ISR
  7603                           
  7604                           	psect	config
  7605                           
  7606                           ;Config register CONFIG1 @ 0x2007
  7607                           ;	Oscillator Selection bits
  7608                           ;	FOSC = INTRC_NOCLKOUT, INTOSCIO oscillator: I/O function on RA6/OSC2/CLKOUT pin, I/O f
      +                          unction on RA7/OSC1/CLKIN
  7609                           ;	Watchdog Timer Enable bit
  7610                           ;	WDTE = OFF, WDT disabled and can be enabled by SWDTEN bit of the WDTCON register
  7611                           ;	Power-up Timer Enable bit
  7612                           ;	PWRTE = OFF, PWRT disabled
  7613                           ;	RE3/MCLR pin function select bit
  7614                           ;	MCLRE = ON, RE3/MCLR pin function is MCLR
  7615                           ;	Code Protection bit
  7616                           ;	CP = OFF, Program memory code protection is disabled
  7617                           ;	Data Code Protection bit
  7618                           ;	CPD = OFF, Data memory code protection is disabled
  7619                           ;	Brown Out Reset Selection bits
  7620                           ;	BOREN = OFF, BOR disabled
  7621                           ;	Internal External Switchover bit
  7622                           ;	IESO = OFF, Internal/External Switchover mode is disabled
  7623                           ;	Fail-Safe Clock Monitor Enabled bit
  7624                           ;	FCMEN = OFF, Fail-Safe Clock Monitor is disabled
  7625                           ;	Low Voltage Programming Enable bit
  7626                           ;	LVP = OFF, RB3 pin has digital I/O, HV on MCLR must be used for programming
  7627                           ;	In-Circuit Debugger Mode bit
  7628                           ;	DEBUG = 0x1, unprogrammed default
  7629     2007                     	org	8199
  7630     2007  20F4               	dw	8436
  7631                           
  7632                           ;Config register CONFIG2 @ 0x2008
  7633                           ;	Brown-out Reset Selection bit
  7634                           ;	BOR4V = BOR40V, Brown-out Reset set to 4.0V
  7635                           ;	Flash Program Memory Self Write Enable bits
  7636                           ;	WRT = OFF, Write protection off
  7637     2008                     	org	8200
  7638     2008  3FFF               	dw	16383

Data Sizes:
    Strings     215
    Constant    61
    Data        0
    BSS         41
    Persistent  0
    Stack       0

Auto Spaces:
    Space          Size  Autos    Used
    COMMON           13      9      11
    BANK0            80     70      77
    BANK1            80     20      52
    BANK3            85      0       0
    BANK2            96      0       0

Pointer List with Targets:

    AutoFox_INA226_ConfigureNumSampleAveraging@this	PTR struct AutoFox_INA226 size(2) Largest target is 14
		 -> main@ina226(BANK1[14]), 

    AutoFox_INA226_ConfigureVoltageConversionTime@this	PTR struct AutoFox_INA226 size(2) Largest target is 14
		 -> main@ina226(BANK1[14]), 

    AutoFox_INA226_Constructor@this	PTR struct AutoFox_INA226 size(2) Largest target is 14
		 -> main@ina226(BANK1[14]), 

    AutoFox_INA226_GetBusVoltage_V@this	PTR struct AutoFox_INA226 size(2) Largest target is 14
		 -> main@ina226(BANK1[14]), 

    AutoFox_INA226_Init@this	PTR struct AutoFox_INA226 size(2) Largest target is 14
		 -> main@ina226(BANK1[14]), 

    AutoFox_INA226_ReadRegister@aValue_p	PTR unsigned short  size(2) Largest target is 14
		 -> AutoFox_INA226_ConfigureAlertPinTrigger@theMaskEnableRegister(COMMON[2]), AutoFox_INA226_GetBusVoltage_V@theRegisterValue(BANK0[4]), AutoFox_INA226_GetCurrent_uA@theRegisterValue(COMMON[2]), AutoFox_INA226_GetPower_uW@theRegisterValue(COMMON[2]), 
		 -> AutoFox_INA226_GetShuntVoltage_uV@theRegisterValue(COMMON[2]), AutoFox_INA226_Init@theINA226_ID(BANK0[2]), AutoFox_INA226_ResetAlertPin@theTriggerCause(COMMON[2]), main@ina226(BANK1[14]), 

    AutoFox_INA226_ReadRegister@this	PTR struct AutoFox_INA226 size(2) Largest target is 14
		 -> main@ina226(BANK1[14]), 

    AutoFox_INA226_setupCalibration@this	PTR struct AutoFox_INA226 size(2) Largest target is 14
		 -> main@ina226(BANK1[14]), 

    AutoFox_INA226_WriteRegister@this	PTR struct AutoFox_INA226 size(2) Largest target is 14
		 -> main@ina226(BANK1[14]), 

    fputc@fp	PTR struct _IO_FILE size(1) Largest target is 0
		 -> NULL(NULL[0]), 

    fputc@fp$.$buffer	PTR unsigned char  size(1) Largest target is 0

    fputc@fp$.$source	PTR const unsigned char  size(1) Largest target is 0

    printf@ap	PTR void [1] size(1) Largest target is 2
		 -> ?_printf(BANK0[2]), 

    printf@fmt	PTR const unsigned char  size(2) Largest target is 12
		 -> STR_1(CODE[10]), STR_2(CODE[10]), STR_3(CODE[12]), STR_4(CODE[10]), 
		 -> STR_5(CODE[10]), STR_6(CODE[12]), STR_7(CODE[10]), STR_8(CODE[10]), 
		 -> STR_9(CODE[12]), 

    S1547$buffer	PTR unsigned char  size(1) Largest target is 0

    S1547$source	PTR const unsigned char  size(1) Largest target is 0

    SendErrorStatus@errorMsg	PTR unsigned char  size(2) Largest target is 26
		 -> STR_10(CODE[6]), STR_11(CODE[8]), STR_12(CODE[25]), STR_13(CODE[26]), 
		 -> STR_14(CODE[16]), STR_15(CODE[26]), STR_16(CODE[17]), STR_17(CODE[19]), 
		 -> STR_18(CODE[23]), STR_19(CODE[17]), 

    vfpfcnvrt@ap	PTR PTR void  size(1) Largest target is 1
		 -> printf@ap(BANK0[1]), 

    vfpfcnvrt@cp	PTR unsigned char  size(2) Largest target is 12
		 -> STR_1(CODE[10]), STR_2(CODE[10]), STR_3(CODE[12]), STR_4(CODE[10]), 
		 -> STR_5(CODE[10]), STR_6(CODE[12]), STR_7(CODE[10]), STR_8(CODE[10]), 
		 -> STR_9(CODE[12]), 

    vfpfcnvrt@fmt	PTR PTR unsigned char  size(1) Largest target is 2
		 -> vfprintf@cfmt(BANK0[2]), 

    vfpfcnvrt@fp	PTR struct _IO_FILE size(1) Largest target is 0
		 -> NULL(NULL[0]), 

    vfprintf@ap	PTR PTR void  size(1) Largest target is 1
		 -> printf@ap(BANK0[1]), 

    vfprintf@cfmt	PTR unsigned char  size(2) Largest target is 12
		 -> STR_1(CODE[10]), STR_2(CODE[10]), STR_3(CODE[12]), STR_4(CODE[10]), 
		 -> STR_5(CODE[10]), STR_6(CODE[12]), STR_7(CODE[10]), STR_8(CODE[10]), 
		 -> STR_9(CODE[12]), 

    vfprintf@fmt	PTR const unsigned char  size(2) Largest target is 12
		 -> STR_1(CODE[10]), STR_2(CODE[10]), STR_3(CODE[12]), STR_4(CODE[10]), 
		 -> STR_5(CODE[10]), STR_6(CODE[12]), STR_7(CODE[10]), STR_8(CODE[10]), 
		 -> STR_9(CODE[12]), 

    vfprintf@fp	PTR struct _IO_FILE size(1) Largest target is 0
		 -> NULL(NULL[0]), 


Critical Paths under _main in COMMON

    _read_voltage->___lldiv
    _vfpfcnvrt->___lwdiv
    _vfpfcnvrt->_fputc
    _fputc->_putch
    _putch->_SendUART_debug
    _SendErrorStatus->_SendUART_debug
    _AutoFox_INA226_Init->_AutoFox_INA226_WriteRegister
    _AutoFox_INA226_setupCalibration->_AutoFox_INA226_WriteRegister
    _AutoFox_INA226_CheckI2cAddress->_I2C_Master_Write
    _AutoFox_INA226_GetBusVoltage_V->___lldiv
    ___lldiv->___lmul
    _AutoFox_INA226_ConfigureVoltageConversionTime->_AutoFox_INA226_WriteRegister
    _AutoFox_INA226_ConfigureNumSampleAveraging->_AutoFox_INA226_WriteRegister
    _AutoFox_INA226_WriteRegister->_I2C_Master_Write
    _AutoFox_INA226_ReadRegister->_I2C_Master_Read

Critical Paths under _ISR in COMMON

    None.

Critical Paths under _main in BANK0

    _main->_AutoFox_INA226_Init
    _read_voltage->___lldiv
    _printf->_vfprintf
    _vfprintf->_vfpfcnvrt
    _vfpfcnvrt->_fputc
    _AutoFox_INA226_Init->_AutoFox_INA226_setupCalibration
    _AutoFox_INA226_setupCalibration->___lldiv
    _AutoFox_INA226_GetBusVoltage_V->___lldiv
    ___lldiv->___lmul
    _AutoFox_INA226_ConfigureVoltageConversionTime->_AutoFox_INA226_ReadRegister
    _AutoFox_INA226_ConfigureNumSampleAveraging->_AutoFox_INA226_ReadRegister

Critical Paths under _ISR in BANK0

    None.

Critical Paths under _main in BANK1

    None.

Critical Paths under _ISR in BANK1

    None.

Critical Paths under _main in BANK3

    None.

Critical Paths under _ISR in BANK3

    None.

Critical Paths under _main in BANK2

    None.

Critical Paths under _ISR in BANK2

    None.

Call Graph Tables:

 ---------------------------------------------------------------------------------
 (Depth) Function   	        Calls       Base Space   Used Autos Params    Refs
 ---------------------------------------------------------------------------------
 (0) _main                                                23    23      0   11082
                                             67 BANK0      3     3      0
                                              0 BANK1     20    20      0
                           _ADC_Init
_AutoFox_INA226_ConfigureNumSampleAv
_AutoFox_INA226_ConfigureVoltageConv
         _AutoFox_INA226_Constructor
     _AutoFox_INA226_GetBusVoltage_V
                _AutoFox_INA226_Init
                        _Global_Init
                           _I2C_Init
                     _Interrupt_Init
                    _SendErrorStatus
                             _printf
                       _read_voltage
 ---------------------------------------------------------------------------------
 (1) _read_voltage                                        25    23      2    1061
                                             21 BANK0     25    23      2
                _ADC_Read_ADC_Result
                            ___lldiv
                             ___lmul
 ---------------------------------------------------------------------------------
 (2) _ADC_Read_ADC_Result                                  4     2      2      23
                                              2 COMMON     4     2      2
 ---------------------------------------------------------------------------------
 (1) _printf                                               7     3      4    1959
                                             25 BANK0      5     1      4
                           _vfprintf
 ---------------------------------------------------------------------------------
 (2) _vfprintf                                             6     2      4    1851
                                             19 BANK0      6     2      4
                          _vfpfcnvrt
 ---------------------------------------------------------------------------------
 (3) _vfpfcnvrt                                           15    12      3    1651
                                              5 BANK0     14    11      3
                            ___lwdiv
                            ___lwmod
                              _fputc
 ---------------------------------------------------------------------------------
 (4) _fputc                                                8     5      3     522
                                              6 COMMON     3     0      3
                                              0 BANK0      5     5      0
                              _putch
 ---------------------------------------------------------------------------------
 (5) _putch                                                1     1      0     193
                                              5 COMMON     1     1      0
                     _SendUART_debug
 ---------------------------------------------------------------------------------
 (4) ___lwmod                                              5     1      4     238
                                              2 COMMON     5     1      4
 ---------------------------------------------------------------------------------
 (4) ___lwdiv                                              7     3      4     247
                                              2 COMMON     7     3      4
 ---------------------------------------------------------------------------------
 (1) _SendErrorStatus                                      5     5      0     288
                                              5 COMMON     2     2      0
                                              0 BANK0      3     3      0
                     _SendUART_debug
 ---------------------------------------------------------------------------------
 (1) _Interrupt_Init                                       0     0      0       0
 ---------------------------------------------------------------------------------
 (1) _I2C_Init                                             0     0      0       0
 ---------------------------------------------------------------------------------
 (1) _Global_Init                                          0     0      0       0
 ---------------------------------------------------------------------------------
 (1) _AutoFox_INA226_Init                                 22    13      9    3183
                                             45 BANK0     22    13      9
     _AutoFox_INA226_CheckI2cAddress
        _AutoFox_INA226_ReadRegister
       _AutoFox_INA226_WriteRegister
    _AutoFox_INA226_setupCalibration
                     _SendUART_debug
 ---------------------------------------------------------------------------------
 (6) _SendUART_debug                                       3     3      0     146
                                              2 COMMON     3     3      0
 ---------------------------------------------------------------------------------
 (2) _AutoFox_INA226_setupCalibration                     24    16      8    1174
                                             21 BANK0     24    16      8
       _AutoFox_INA226_WriteRegister
                            ___lldiv
                             ___lmul
 ---------------------------------------------------------------------------------
 (2) _AutoFox_INA226_CheckI2cAddress                       3     3      0      59
                                              4 COMMON     3     3      0
                   _I2C_Master_Start
                    _I2C_Master_Stop
                   _I2C_Master_Write
 ---------------------------------------------------------------------------------
 (1) _AutoFox_INA226_GetBusVoltage_V                       6     4      2    1079
                                             21 BANK0      6     4      2
        _AutoFox_INA226_ReadRegister
                            ___lldiv
                             ___lmul
 ---------------------------------------------------------------------------------
 (2) ___lmul                                              13     5      8     202
                                              2 COMMON     5     5      0
                                              0 BANK0      8     0      8
 ---------------------------------------------------------------------------------
 (2) ___lldiv                                             14     6      8     289
                                              7 COMMON     1     1      0
                                              8 BANK0     13     5      8
                             ___lmul (ARG)
 ---------------------------------------------------------------------------------
 (1) _AutoFox_INA226_Constructor                           4     2      2     133
                                              2 COMMON     4     2      2
 ---------------------------------------------------------------------------------
 (1) _AutoFox_INA226_ConfigureVoltageConversionTime       11     7      4    1167
                                              9 BANK0     11     7      4
        _AutoFox_INA226_ReadRegister
       _AutoFox_INA226_WriteRegister
 ---------------------------------------------------------------------------------
 (1) _AutoFox_INA226_ConfigureNumSampleAveraging           9     5      4    1102
                                              9 BANK0      9     5      4
        _AutoFox_INA226_ReadRegister
       _AutoFox_INA226_WriteRegister
 ---------------------------------------------------------------------------------
 (3) _AutoFox_INA226_WriteRegister                        12     7      5     265
                                              4 COMMON     5     0      5
                                              0 BANK0      7     7      0
                   _I2C_Master_Start
                    _I2C_Master_Stop
                   _I2C_Master_Write
 ---------------------------------------------------------------------------------
 (2) _AutoFox_INA226_ReadRegister                          9     4      5     456
                                              0 BANK0      9     4      5
                    _I2C_Master_Read
                   _I2C_Master_Start
                    _I2C_Master_Stop
                   _I2C_Master_Write
 ---------------------------------------------------------------------------------
 (4) _I2C_Master_Write                                     2     0      2      30
                                              2 COMMON     2     0      2
                    _I2C_Master_Wait
 ---------------------------------------------------------------------------------
 (4) _I2C_Master_Stop                                      0     0      0       0
                    _I2C_Master_Wait
 ---------------------------------------------------------------------------------
 (4) _I2C_Master_Start                                     0     0      0       0
                    _I2C_Master_Wait
 ---------------------------------------------------------------------------------
 (3) _I2C_Master_Read                                      5     5      0      52
                                              2 COMMON     5     5      0
                    _I2C_Master_Wait
 ---------------------------------------------------------------------------------
 (5) _I2C_Master_Wait                                      0     0      0       0
 ---------------------------------------------------------------------------------
 (1) _ADC_Init                                             2     2      0       0
                                              2 COMMON     2     2      0
 ---------------------------------------------------------------------------------
 Estimated maximum stack depth 6
 ---------------------------------------------------------------------------------
 (Depth) Function   	        Calls       Base Space   Used Autos Params    Refs
 ---------------------------------------------------------------------------------
 (7) _ISR                                                  2     2      0       0
                                              0 COMMON     2     2      0
 ---------------------------------------------------------------------------------
 Estimated maximum stack depth 7
 ---------------------------------------------------------------------------------

 Call Graph Graphs:

 _main (ROOT)
   _ADC_Init
   _AutoFox_INA226_ConfigureNumSampleAveraging
     _AutoFox_INA226_ReadRegister
       _I2C_Master_Read
         _I2C_Master_Wait
       _I2C_Master_Start
         _I2C_Master_Wait
       _I2C_Master_Stop
         _I2C_Master_Wait
       _I2C_Master_Write
         _I2C_Master_Wait
     _AutoFox_INA226_WriteRegister
       _I2C_Master_Start
       _I2C_Master_Stop
       _I2C_Master_Write
   _AutoFox_INA226_ConfigureVoltageConversionTime
     _AutoFox_INA226_ReadRegister
     _AutoFox_INA226_WriteRegister
   _AutoFox_INA226_Constructor
   _AutoFox_INA226_GetBusVoltage_V
     _AutoFox_INA226_ReadRegister
     ___lldiv
       ___lmul (ARG)
     ___lmul
   _AutoFox_INA226_Init
     _AutoFox_INA226_CheckI2cAddress
       _I2C_Master_Start
       _I2C_Master_Stop
       _I2C_Master_Write
     _AutoFox_INA226_ReadRegister
     _AutoFox_INA226_WriteRegister
     _AutoFox_INA226_setupCalibration
       _AutoFox_INA226_WriteRegister
       ___lldiv
       ___lmul
     _SendUART_debug
   _Global_Init
   _I2C_Init
   _Interrupt_Init
   _SendErrorStatus
     _SendUART_debug
   _printf
     _vfprintf
       _vfpfcnvrt
         ___lwdiv
         ___lwmod
         _fputc
           _putch
             _SendUART_debug
   _read_voltage
     _ADC_Read_ADC_Result
     ___lldiv
     ___lmul

 _ISR (ROOT)

Address spaces:
Name               Size   Autos  Total    Usage
BITCOMMON           13      0       0      0.0%
BITBANK0            80      0       0      0.0%
BITBANK1            80      0       0      0.0%
BITBANK3            85      0       0      0.0%
BITBANK2            96      0       0      0.0%
COMMON              13      9      11     84.6%
BANK0               80     70      77     96.2%
BANK1               80     20      52     65.0%
BANK3               85      0       0      0.0%
BANK2               96      0       0      0.0%
STACK                0      0       0      0.0%
DATA                 0      0     139      0.0%


Microchip Technology PIC Macro Assembler V2.50 build 20240725155939 
Symbol Table                                                                                   Mon Dec 02 23:15:33 2024

                                                                 ??_Interrupt_Init 0073  
                                                            __end_of_INA226_DIE_ID 0844  
                                                            __end_of_INA226_CONFIG 084D  
                                                             __end_of_INA226_POWER 084A  
                                                                                pc 0002  
                                                                      _SSPSTATbits 0094  
                                                                               l43 0650  
                                                                               l48 072B  
                                                          __end_of_INA226_DIE_ID_K 083C  
                                                           __end_of_INA226_CURRENT 0849  
                                                                               fsr 0004  
                                                                    ??_Global_Init 0073  
                                                       __end_of_INA226_BUS_VOLTAGE 084B  
                                                                    read_voltage@i 0045  
                                                                              l113 0B18  
                                                                              l210 0BA4  
                                                                              l212 0BBF  
                                                                              l303 0271  
                                                                              l215 09DA  
                                                                              l128 0A1C  
                                                                              l209 0BB5  
                                                                              l162 0A0C  
                                                                              l171 09EB  
                                                                              l403 0EC7  
                                                                              l180 0AEE  
                                                                              l404 0F56  
                                                                              l332 0AC4  
                                                                              l165 0A40  
                                                                              l413 0E3C  
                                                                              l174 09F4  
                                                                              l414 0EB8  
                                                                              l168 0A5A  
                                                                              l336 0FFF  
                                                                              l328 03BE  
                                                                              l177 09FE  
                                                                              l345 0C97  
                                                                              l442 0E2D  
                                                                              l339 0D48  
                                                                              l461 0A3F  
                                                                              l470 0551  
                                                                              l455 0A78  
                                                                              l298 0DA6  
                                                                              l570 0C49  
                                                                              l458 0A31  
                                                                              l592 0079  
                                                                              l836 0C01  
                                                                              l846 0B84  
                                                                              _ISR 0B19  
                                                               SendErrorStatus@err 0020  
                                                        __end_of_cAlertPinModeMask 0834  
                                                                              fsr0 0004  
                                                                              indf 0000  
                                                                   read_voltage@R1 0046  
                                                                   read_voltage@R2 003B  
                                                                             ?_ISR 0071  
                                                                             l1019 0A2D  
                                                                             l1063 0A9D  
                                                                             l1056 0169  
                                                                             l1048 00DC  
                                                                             l3001 0B91  
                                                                             l3011 0BB8  
                                                                             l3003 0BA0  
                                                                             l1075 0CEE  
                                                                             l3101 0038  
                                                                             l3013 0BBE  
                                                                             l3005 0BA7  
                                                                             l3021 0BC8  
                                                                             l2071 0A4E  
                                                                             l3111 006B  
                                                                             l3103 0041  
                                                                             l3007 0BAD  
                                                                             l3031 0BE9  
                                                                             l3023 0BCB  
                                                                             l3015 09D4  
                                                                             l2073 0A52  
                                                                             l2065 0A40  
                                                                             l2161 0AE1  
                                                                             l2153 0AC6  
                                                                             l2081 09E8  
                                                                             l3105 0053  
                                                                             l3113 0071  
                                                                             l3009 0BAF  
                                                                             l2401 0B0C  
                                                                             l3033 0BEF  
                                                                             l3025 0BD2  
                                                                             l3017 0BC0  
                                                                             l3121 009A  
                                                                             l3201 0A80  
                                                                             l2075 0A56  
                                                                             l2067 0A46  
                                                                             l2163 0AEC  
                                                                             l2155 0ACB  
                                                                             l2083 09EC  
                                                                             l2171 0CF3  
                                                                             l3107 0061  
                                                                             l3211 0172  
                                                                             l2411 0B11  
                                                                             l2403 0B0D  
                                                                             l3035 0BF0  
                                                                             l3027 0BD4  
                                                                             l3019 0BC2  
                                                                             l3051 0B5F  
                                                                             l3043 0B4D  
                                                                             l3131 00C6  
                                                                             l3123 009E  
                                                                             l3203 0A8B  
                                                                             l2331 0A2E  
                                                                             l2069 0A4A  
                                                                             l2165 0AED  
                                                                             l2157 0AD3  
                                                                             l2085 09F1  
                                                                             l2181 0D26  
                                                                             l2173 0CF5  
                                                                             l3109 0062  
                                                                             l3221 0188  
                                                                             l3213 017B  
                                                                             l2413 0B12  
                                                                             l2405 0B0E  
                                                                             l2421 0A0D  
                                                                             l3301 0DB5  
                                                                             l3037 0BF7  
                                                                             l3029 0BD8  
                                                                             l3053 0B63  
                                                                             l3045 0B53  
                                                                             l3061 0B80  
                                                                             l3141 0115  
                                                                             l3133 00DE  
                                                                             l3125 00A2  
                                                                             l3117 007A  
                                                                             l3205 0A9B  
                                                                             l2333 0A35  
                                                                             l2159 0ADC  
                                                                             l2079 09E3  
                                                                             l2087 09F5  
                                                                             l2183 0D34  
                                                                             l2175 0CF7  
                                                                             l2351 0D5E  
                                                                             l3231 01AC  
                                                                             l3223 019C  
                                                                             l3215 0180  
                                                                             l2415 0B13  
                                                                             l2407 0B0F  
                                                                             l2431 0A1A  
                                                                             l2423 0A11  
                                                                             l3311 0DCE  
                                                                             l3303 0DBA  
                                                                             l3039 0BFD  
                                                                             l3055 0B6D  
                                                                             l3047 0B56  
                                                                             l3071 0CA9  
                                                                             l3143 0127  
                                                                             l3135 00F4  
                                                                             l3151 013F  
                                                                             l3127 00AA  
                                                                             l3119 0092  
                                                                             l2089 09FA  
                                                                             l3161 0F57  
                                                                             l2185 0D42  
                                                                             l2177 0CFC  
                                                                             l2169 0CEF  
                                                                             l2353 0D6E  
                                                                             l3081 0C0A  
                                                                             l3401 0C63  
                                                                             l2281 0ABC  
                                                                             l2273 0A9F  
                                                                             l3225 01A1  
                                                                             l3209 016A  
                                                                             l2417 0B14  
                                                                             l2409 0B10  
                                                                             l2361 0AF3  
                                                                             l2441 0A0A  
                                                                             l2433 0A1B  
                                                                             l2425 0A13  
                                                                             l3321 0E09  
                                                                             l3313 0DD3  
                                                                             l3305 0DBF  
                                                                             l3057 0B73  
                                                                             l3049 0B5D  
                                                                             l3073 0CBA  
                                                                             l3065 0C98  
                                                                             l3145 012B  
                                                                             l3137 0109  
                                                                             l3129 00B8  
                                                                             l3171 0F95  
                                                                             l3163 0F61  
                                                                             l2187 0D47  
                                                                             l2179 0D18  
                                                                             l2355 0D7E  
                                                                             l2347 0D49  
                                                                             l3083 0C10  
                                                                             l2275 0AA4  
                                                                             l3251 01E1  
                                                                             l3243 01C7  
                                                                             l3235 01AE  
                                                                             l3219 0182  
                                                                             l2419 0B17  
                                                                             l2371 0AFD  
                                                                             l2363 0AF4  
                                                                             l2443 0A0B  
                                                                             l2435 09FF  
                                                                             l2427 0A14  
                                                                             l3323 0E17  
                                                                             l3315 0DD8  
                                                                             l3307 0DC4  
                                                                             l3059 0B7A  
                                                                             l3075 0CD7  
                                                                             l3067 0C9D  
                                                                             l3139 010F  
                                                                             l3155 014A  
                                                                             l3181 0FF9  
                                                                             l3173 0F9A  
                                                                             l3165 0F66  
                                                                             l3341 0EC5  
                                                                             l2357 0D92  
                                                                             l2349 0D4F  
                                                                             l3093 0014  
                                                                             l3085 0C27  
                                                                             l2277 0AB1  
                                                                             l3261 020A  
                                                                             l3253 01F2  
                                                                             l3245 01D0  
                                                                             l3237 01C0  
                                                                             l3229 01A3  
                                                                             l2381 0B02  
                                                                             l2373 0AFE  
                                                                             l2365 0AF5  
                                                                             l2437 0A02  
                                                                             l2429 0A17  
                                                                             l3309 0DC9  
                                                                             l3325 0E1F  
                                                                             l3069 0CA2  
                                                                             l3149 0132  
                                                                             l3421 0410  
                                                                             l3413 03DA  
                                                                             l3405 03BF  
                                                                             l3501 072D  
                                                                             l2631 0A61  
                                                                             l3183 0FFE  
                                                                             l3175 0FBA  
                                                                             l3167 0F82  
                                                                             l3351 0EDA  
                                                                             l3095 0026  
                                                                             l3087 0C30  
                                                                             l3079 0C02  
                                                                             l2279 0AB7  
                                                                             l2287 0ABE  
                                                                             l3191 0350  
                                                                             l3271 022B  
                                                                             l3263 020F  
                                                                             l3255 01F7  
                                                                             l3239 01C5  
                                                                             l2391 0B07  
                                                                             l2383 0B03  
                                                                             l2375 0AFF  
                                                                             l2367 0AF9  
                                                                             l2359 0AEF  
                                                                             l2439 0A06  
                                                                             l3319 0DDD  
                                                                             l3431 052E  
                                                                             l3423 0416  
                                                                             l3415 03E5  
                                                                             l3407 03D9  
                                                                             l3511 077C  
                                                                             l3503 073B  
                                                                             l2633 0A64  
                                                                             l3177 0FCE  
                                                                             l3169 0F90  
                                                                             l3361 0F0A  
                                                                             l3353 0EF1  
                                                                             l3345 0ECB  
                                                                             l3097 0029  
                                                                             l3089 0C41  
                                                                             l2289 0AC3  
                                                                             l3193 0362  
                                                                             l3281 024A  
                                                                             l3249 01D2  
                                                                             l2393 0B08  
                                                                             l2385 0B04  
                                                                             l2377 0B00  
                                                                             l2369 0AFA  
                                                                             l3425 04CE  
                                                                             l3417 0402  
                                                                             l3513 0793  
                                                                             l3505 074C  
                                                                             l3441 0552  
                                                                             l2635 0A69  
                                                                             l3179 0FE5  
                                                                             l3371 0E3A  
                                                                             l3363 0F28  
                                                                             l3355 0EF6  
                                                                             l3347 0ED8  
                                                                             l3339 0EB9  
                                                                             l3099 0034  
                                                                             l3195 03A1  
                                                                             l3187 0272  
                                                                             l3291 0270  
                                                                             l3283 0262  
                                                                             l3275 022D  
                                                                             l3267 0211  
                                                                             l3259 01F9  
                                                                             l2395 0B09  
                                                                             l2387 0B05  
                                                                             l2379 0B01  
                                                                             l3435 0A1D  
                                                                             l3427 04F0  
                                                                             l3419 040C  
                                                                             l3515 07AA  
                                                                             l3507 0763  
                                                                             l3451 056D  
                                                                             l3443 055B  
                                                                             l2637 0A72  
                                                                             l2629 0A5B  
                                                                             l3381 0E4F  
                                                                             l3365 0F3A  
                                                                             l3189 0338  
                                                                             l3285 0267  
                                                                             l3277 0248  
                                                                             l3269 0226  
                                                                             l2397 0B0A  
                                                                             l2389 0B06  
                                                                             l3437 0A21  
                                                                             l3429 050F  
                                                                             l3517 07C1  
                                                                             l3509 0774  
                                                                             l3461 05A0  
                                                                             l3453 056E  
                                                                             l3445 0560  
                                                                             l2639 0A75  
                                                                             l3391 0E7F  
                                                                             l3383 0E66  
                                                                             l3375 0E40  
                                                                             l3359 0EF8  
                                                                             l2399 0B0B  
                                                                             l3295 0DAA  
                                                                             l3199 0A79  
                                                                             l3519 07E1  
                                                                             l3471 05E9  
                                                                             l3463 05B4  
                                                                             l3455 056F  
                                                                             l3447 0565  
                                                                             l3393 0E9C  
                                                                             l3385 0E6B  
                                                                             l3377 0E4D  
                                                                             l3369 0E2E  
                                                                             l3289 0269  
                                                                             l3297 0DAB  
                                                                             l3481 0660  
                                                                             l3473 0600  
                                                                             l3465 05B9  
                                                                             l3457 0570  
                                                                             l3449 056A  
                                                                             l3299 0DB0  
                                                                             l3491 06B8  
                                                                             l3483 0671  
                                                                             l3475 0617  
                                                                             l3467 05D0  
                                                                             l3459 058C  
                                                                             l3389 0E6D  
                                                                             l3397 0C4A  
                                                                             l3733 0DEA  
                                                                             l3493 06CF  
                                                                             l3485 0688  
                                                                             l3477 062E  
                                                                             l3469 05E1  
                                                                             l3399 0C54  
                                                                             l3735 0DEF  
                                                                             l3495 06E6  
                                                                             l3487 0699  
                                                                             l3479 0652  
                                                                             l3497 0706  
                                                                             l3489 06A1  
                                                                             l3499 0709  
                                                                             l2991 0B86  
                                                                             l2993 0B8A  
                                                                             l2995 0B90  
                                                              _ADC_Read_ADC_Result 0A2E  
                                                                             STR_1 090E  
                                                                             STR_2 0904  
                                                                             STR_3 08F8  
                                                                             STR_4 090E  
                                                                             STR_5 0904  
                                                                             STR_6 08F8  
                                                                             STR_7 090E  
                                                                             STR_8 0904  
                                                                             STR_9 08F8  
                                                                             u1040 0A46  
                                                                             u1041 0A45  
                                                                             u1050 0A4A  
                                                                             u2010 0BA0  
                                                                             u1051 0A49  
                                                                             u2011 0B9F  
                                                                             u1060 0A4E  
                                                                             u2020 0BB5  
                                                                             u2004 0B97  
                                                                             u2100 0B53  
                                                                             u1061 0A4D  
                                                                             u2021 0BB4  
                                                                             u2005 0B95  
                                                                             u2101 0B52  
                                                                             u1070 0A52  
                                                                             u2030 0BC8  
                                                                             u1071 0A51  
                                                                             u2031 0BC7  
                                                                             u1080 0A56  
                                                                             u2200 0C10  
                                                                             u2120 0B63  
                                                                             u1081 0A55  
                                                                             u2201 0C0F  
                                                                             u2121 0B62  
                                                                             u1090 0A5A  
                                                                             u2050 0BD8  
                                                                             u2130 0B6D  
                                                                             u1091 0A59  
                                                                             u2211 0C19  
                                                                             u2051 0BD7  
                                                                             u2131 0B6C  
                                                                             u2115 0B57  
                                                                             u2212 0C20  
                                                                             u1500 0A35  
                                                                             u2213 0C27  
                                                                             u2045 0BCC  
                                                                             u1501 0A34  
                                                                             u1270 0AE9  
                                                                             u2310 0071  
                                                                             u2070 0BE9  
                                                                             u2150 0B80  
                                                                             u1271 0AE5  
                                                                             u2311 0070  
                                                                             u2071 0BE8  
                                                                             u2151 0B7F  
                                                                             u2135 0B69  
                                                                             u2240 0C41  
                                                                             u2160 0C9D  
                                                                             u2320 0092  
                                                                             u2400 0A9B  
                                                                             u2305 0063  
                                                                             u2241 0C40  
                                                                             u2225 0C29  
                                                                             u2065 0BD9  
                                                                             u2145 0B74  
                                                                             u2161 0C9C  
                                                                             u2321 0091  
                                                                             u2401 0A9A  
                                                                             u2250 0026  
                                                                             u2410 0180  
                                                                             u2090 0BFD  
                                                                             u2170 0CA2  
                                                                             u2330 00B8  
                                                                             u2251 0025  
                                                                             u2235 0C31  
                                                                             u2411 017F  
                                                                             u2091 0BFC  
                                                                             u2075 0BE5  
                                                                             u2171 0CA1  
                                                                             u2331 00B7  
                                                                             u1284 0AEC  
                                                                             u1460 0AB7  
                                                                             u2500 0267  
                                                                             u2420 01A1  
                                                                             u2180 0CBA  
                                                                             u2340 010F  
                                                                             u1461 0AB6  
                                                                             u2501 0266  
                                                                             u2421 01A0  
                                                                             u2085 0BF1  
                                                                             u2181 0CB9  
                                                                             u2341 010E  
                                                                             u2270 0038  
                                                                             u2430 01AC  
                                                                             u2510 0E2D  
                                                                             u2190 0CD7  
                                                                             u2350 0114  
                                                                             u2271 0037  
                                                                             u2431 01AB  
                                                                             u2511 0E2C  
                                                                             u2191 0CD6  
                                                                             u2351 0113  
                                                                             u2600 0E6B  
                                                                             u2520 0EC5  
                                                                             u2440 01C5  
                                                                             u2360 0131  
                                                                             u2601 0E6A  
                                                                             u2521 0EC4  
                                                                             u2265 002B  
                                                                             u2441 01C4  
                                                                             u2361 0130  
                                                                             u2530 0ECB  
                                                                             u2290 0053  
                                                                             u2370 02A2  
                                                                             u2450 01D0  
                                                                             u2531 0ECA  
                                                                             u2291 0052  
                                                                             u2371 02A3  
                                                                             u2451 01CF  
                                                                             u2195 0CD3  
                                                                             u2540 0ED8  
                                                                             u2380 030C  
                                                                             u2372 02A8  
                                                                             u2460 01F7  
                                                                             u2541 0ED7  
                                                                             u2285 003A  
                                                                             u2373 02A9  
                                                                             u2461 01F6  
                                                                             u2621 03F4  
                                                                             u2550 0EF6  
                                                                             u2390 0316  
                                                                             u2470 020F  
                                                                             u2630 0416  
                                                                             u2622 03FB  
                                                                             u2615 0E85  
                                                                             u2551 0EF5  
                                                                             u2295 004F  
                                                                             u2391 0317  
                                                                             u2471 020E  
                                                                             u2631 0415  
                                                                             u2623 0402  
                                                                             u2392 031C  
                                                                             u2480 022B  
                                                                             u2640 04DD  
                                                                             u2545 0ED4  
                                                                             u2393 031D  
                                                                             u2385 0307  
                                                                             u2481 022A  
                                                                             u2641 04DE  
                                                                             u2570 0E3A  
                                                                             u2490 0248  
                                                                             u2642 04E3  
                                                                             u2650 0650  
                                                                             u2571 0E39  
                                                                             u2491 0247  
                                                                             u2643 04E4  
                                                                             u2651 064F  
                                                                             u2580 0E40  
                                                                             u2660 0706  
                                                                             u2581 0E3F  
                                                                             u2565 0F1D  
                                                                             u2661 0705  
                                                                             u2590 0E4D  
                                                                             u2670 072B  
                                                                             u2591 0E4C  
                                                                             u2671 072A  
                                                                             u2655 064C  
                                                                             u2680 07E1  
                                                                             u2681 07E0  
                                                                             u2665 0702  
                                                                             u2907 0A6D  
                                                                             u2595 0E49  
                                                                             u2675 0727  
                                                                             u2827 065A  
                                                                             u2685 07DD  
                                                                             u2837 066B  
                                                                             u2847 0735  
                                                                             u2857 0746  
                                                                             u2867 0408  
                                                                             _RCEN 048B  
                                                                             u2877 0B8C  
                                                                             u2887 0BA9  
                                                                             u2897 0BBA  
                                                                             _TRMT 04C1  
                                                                             _dbuf 00A0  
                                                                             _main 0552  
                                                                             _prec 0068  
                                                                 __end_of_I2C_Init 0A0D  
                                                                             btemp 007E  
                                                                 __end_of_ADC_Init 0A79  
                                                    ??_AutoFox_INA226_ReadRegister 0025  
                                                               _INA226_I2C_TIMEOUT 0840  
                                                                             start 000C  
                                                               _INA226_CALIBRATION 0847  
                                                                            ??_ISR 0071  
                                                        _cShuntVoltageConvTimeMask 0828  
                                                             ?_ADC_Read_ADC_Result 0073  
                                                              _AutoFox_INA226_Init 016A  
                                                                  read_voltage@sum 0041  
                                                     ADC_Read_ADC_Result@adcResult 0075  
                                                                 ?_I2C_Master_Read 0071  
                                                                 ?_I2C_Master_Wait 0071  
                                                                 ?_I2C_Master_Stop 0071  
                                  AutoFox_INA226_setupCalibration@theCurrentLSB_uA 0049  
                                                                            ?_main 0071  
                                                                            _ACKEN 048C  
                                                                            _ACKDT 048D  
                                                                            STR_10 0920  
                                                                            STR_11 0918  
                                                                            STR_12 0883  
                                                                            STR_13 084F  
                                                                            STR_14 08E8  
                                                                            STR_15 0869  
                                                                            STR_16 08C6  
                                                                            STR_17 08B3  
                                                                            STR_18 089C  
                                                                            STR_19 08D7  
                                                                            _ANSEL 0188  
                                                                  __end_of___lldiv 007A  
                                                                  __end_of___lwdiv 0C02  
                                                                            i1l141 0B46  
                                                                            i1l139 0B3D  
                                                                  __end_of___lwmod 0B85  
                                                                     vfpfcnvrt@fmt 0026  
                                                                            _SPBRG 0099  
                                       AutoFox_INA226_CheckI2cAddress@aI2C_Address 0077  
                                              AutoFox_INA226_setupCalibration@this 0035  
                                                                            _TXREG 0019  
                                                              ___lmul@multiplicand 0024  
                                                              __end_of_Global_Init 0B19  
                                                                            _flags 006C  
                                                                            _fputc 0C98  
                                                             ?_AutoFox_INA226_Init 004D  
                                                                            _width 0066  
                                                                            _putch 09D3  
                                                                            pclath 000A  
                                                         _cBusVoltConvTimeIdxShift 0824  
                                                                            status 0003  
                                                                            wtemp0 007E  
                                                                  __initialization 07E8  
                                                               _INA226_ALERT_LIMIT 0845  
                                                                     __end_of_main 07E8  
                                                            ??_ADC_Read_ADC_Result 0075  
                                                           _INA226_MANUFACTURER_ID 0844  
                                                    __end_of_INA226_CONFIG_DEFAULT 083A  
                                                                           ??_main 0063  
                                                                 read_voltage@vref 0812  
                                          AutoFox_INA226_Init@aShuntResistor_mOhms 0050  
                                                      ?_AutoFox_INA226_Constructor 0073  
                                                                ?_I2C_Master_Start 0071  
                                                                ?_I2C_Master_Write 0073  
                                                               ??_I2C_Master_Start 0073  
                                                            ??_AutoFox_INA226_Init 0056  
                                                               ??_I2C_Master_Write 0075  
                                                                           ?_fputc 0077  
                                                                           _ADRESH 001E  
                                                                           _ADRESL 009E  
                                                                           ?_putch 0071  
                                                                           _ANSELH 0189  
                                                                           i1l2771 0B30  
                                                                           i1l2773 0B38  
                                                                           i1l2781 0B45  
                                                                           i1l2765 0B19  
                                                                           i1l2775 0B3A  
                                                                           i1l2767 0B1D  
                                                                           i1l2777 0B3F  
                                                                           i1l2769 0B21  
                                                                           i1l2779 0B43  
                                                                           u180_20 0B1D  
                                                                           u180_21 0B1C  
                                                                           u181_20 0B21  
                                                                           u181_21 0B20  
                                                                           u182_20 0B30  
                                                                           u182_21 0B2F  
                                                                           u183_20 0B38  
                                                                           u183_21 0B37  
                                                                           _TMR0IE 005D  
                                                                           _TMR0IF 005A  
                                                                           _SSPADD 0093  
                                                                           _TRISA0 0428  
                                                                           _TRISA1 0429  
                                                                           _TRISA2 042A  
                                                                           _TRISB0 0430  
                                                                           _TRISA3 042B  
                                                                           _TRISB1 0431  
                                                                           _TRISC0 0438  
                                                                           _TRISA4 042C  
                                                                           _TRISB2 0432  
                                                                           _TRISC1 0439  
                                                                           _TRISA5 042D  
                                                                           _TRISB3 0433  
                                                                           _TRISC2 043A  
                                                                           _TRISA6 042E  
                                                                           _TRISB4 0434  
                                                                           _TRISC3 043B  
                                                                           _TRISA7 042F  
                                                                           _TRISB5 0435  
                                                                           _TRISC4 043C  
                                                                           _TRISB6 0436  
                                                                           _TRISC5 043D  
                                                                           _TRISB7 0437  
                                                                           _TRISC6 043E  
                                                                           _TRISC7 043F  
                                                                           _SSPBUF 0013  
                                                                     vfprintf@cfmt 0037  
                                                                           ___lmul 0C02  
                                                              read_voltage@average 004A  
                                                                           _g_flag 006A  
                                                                        ??___lldiv 0078  
                                                                        ??___lwdiv 0077  
                                                                        ??___lwmod 0077  
                                                                      _Global_Init 0AEF  
                                                                           _printf 0A1D  
                                                                    ?_read_voltage 0035  
                                                                           fputc@c 0077  
                                                                        ?_I2C_Init 0071  
                                                                        ?_ADC_Init 0071  
                                                                           saved_w 007E  
                                                  AutoFox_INA226_Init@theINA226_ID 0061  
                                                                 __end_of_vfprintf 0A9E  
                            __end_of_AutoFox_INA226_ConfigureVoltageConversionTime 0F57  
                                  ??_AutoFox_INA226_ConfigureVoltageConversionTime 002D  
                                   ?_AutoFox_INA226_ConfigureVoltageConversionTime 0029  
                                    _AutoFox_INA226_ConfigureVoltageConversionTime 0EB9  
                                                                     _INA226_POWER 0849  
                                                          __end_of__initialization 07FC  
                                                       __end_of_cMaxConvTimeTblIdx 0820  
                                                               _cOperatingModeMask 0834  
                                               __end_of_cShuntVoltConvTimeIdxShift 0824  
                                                       _cShuntVoltConvTimeIdxShift 0822  
                                                                   __pcstackCOMMON 0071  
                                                   __end_of_INA226_BUS_VOLTAGE_LSB 081E  
                                               __end_of_INA226_DEFAULT_I2C_ADDRESS 084F  
                                                       _INA226_DEFAULT_I2C_ADDRESS 084E  
                                                                    __end_of_fputc 0CEF  
                                                                    __end_of_putch 09DB  
                                                                ??_SendErrorStatus 0076  
                                                                   ??_read_voltage 0037  
                                                 ??_AutoFox_INA226_CheckI2cAddress 0075  
                                                  ?_AutoFox_INA226_CheckI2cAddress 0071  
                                                               _INA226_MASK_ENABLE 0846  
                                                                       ??_I2C_Init 0073  
                                                                   _OPTION_REGbits 0081  
             AutoFox_INA226_ConfigureNumSampleAveraging@aIndexToSampleAverageTable 002B  
                                                                       ??_ADC_Init 0073  
                                               AutoFox_INA226_GetBusVoltage_V@this 0035  
                                                                          ??_fputc 0020  
                                                                          ??_putch 0076  
                                                               _INA226_BUS_VOLTAGE 084A  
                                                                       __pbssBANK0 0066  
                                                                       __pbssBANK1 00A0  
                                           __end_of_AutoFox_INA226_GetBusVoltage_V 0C98  
                                                   _AutoFox_INA226_GetBusVoltage_V 0C4A  
AutoFox_INA226_ConfigureVoltageConversionTime@theMergedBusAndShuntConvTimeIndicies 0031  
                                                                       __pmaintext 0552  
                                   __end_of_INA226_DEFAULT_I2C_ADDRESS@ina226$F817 084E  
                                           _INA226_DEFAULT_I2C_ADDRESS@ina226$F817 084D  
                                                                          ?___lmul 0020  
                                                                       __pintentry 0004  
                                                                          _ACKSTAT 048E  
                                                                   ___lmul@product 0074  
                                                                          ?_printf 0039  
                                                __end_of_cShuntVoltageConvTimeMask 082A  
                                            AutoFox_INA226_setupCalibration@theCal 0045  
                                                                          _SSPCON2 0091  
                                                                       __stringtab 0800  
                                                               SendUART_debug@data 0074  
                                                         __end_ofread_voltage@vref 0816  
                                                                          ___lldiv 0014  
                                                                          ___lwdiv 0BC0  
                                                                          ___lwmod 0B4D  
                                                                        ?_vfprintf 0033  
                                                            __end_of_cResetCommand 0838  
                                                                          __ptext1 03BF  
                                                                          __ptext2 0A2E  
                                                                          __ptext3 0A1D  
                                                                          __ptext4 0A79  
                                                                          __ptext5 007A  
                                                                          __ptext6 0C98  
                                                                          __ptext7 09D3  
                                                                          __ptext8 0B4D  
                                                                          __ptext9 0BC0  
                                                                  SendUART_debug@i 0075  
                                                                        _T1CONbits 0010  
                                                  __end_of_cBusVoltageConvTimeMask 082C  
                                                  __end_of_INA226_POWER_LSB_FACTOR 081A  
                                                 __end_of_INA226_MANUFACTURER_ID_K 083E  
                                                                          clrloop0 09DC  
                                                                  _cAlertCauseMask 0830  
                                                             end_of_initialization 07FC  
                                              __end_of_AutoFox_INA226_ReadRegister 1000  
                                                      _AutoFox_INA226_ReadRegister 0F57  
                                                                          fputc@fp 0079  
                                                             __end_of_read_voltage 0552  
                                                      __end_of_ADC_Read_ADC_Result 0A40  
                                                                  ___lldiv@divisor 0028  
                                                   __end_of_INA226_MANUFACTURER_ID 0845  
                                                                  ___lldiv@counter 0034  
                                                                __end_of_vfpfcnvrt 016A  
                                                                        _RCSTAbits 0018  
                                      AutoFox_INA226_ConfigureNumSampleAveraging@s 0031  
                                                                 vfpfcnvrt@convarg 002E  
                                                                    _INA226_DIE_ID 0843  
                                                                    _INA226_CONFIG 084C  
                                                                     __pstringtext 0800  
                                                                       ??_vfprintf 007A  
                                                                     ?_Global_Init 0071  
                                                                        _PORTAbits 0005  
                                                                        _PORTBbits 0006  
                                                                        _PORTCbits 0007  
                                                      __end_of_AutoFox_INA226_Init 0272  
                                                            _INA226_CONFIG_DEFAULT 0838  
                                                              _cMaxSampleAvgTblIdx 0820  
                                                          read_voltage@num_samples 0842  
                                                                       main@ina226 00C6  
                                                       __end_of_cAlertLatchingMode 0830  
                                                                        _TXSTAbits 0098  
                                                                  _SendErrorStatus 0DA7  
                                   AutoFox_INA226_ConfigureNumSampleAveraging@this 0029  
                                                                   __end_of___lmul 0C4A  
                                                                      vfpfcnvrt@ap 0027  
                                                                      vfpfcnvrt@cp 002C  
                                                                      vfpfcnvrt@fp 0025  
                                                               _cMaxConvTimeTblIdx 081E  
                                                                   __end_of_printf 0A2E  
                                                          __end_of_cAlertCauseMask 0832  
                                                              start_initialization 07E8  
                                                                      __end_of_ISR 0B4D  
                                               AutoFox_INA226_WriteRegister@aValue 0078  
                                             __end_of_AutoFox_INA226_WriteRegister 0D49  
                                                     _AutoFox_INA226_WriteRegister 0CEF  
                                               AutoFox_INA226_WriteRegister@buffer 0024  
                                                                      putch@txData 0076  
                                                                ??_I2C_Master_Read 0073  
                                                                ??_I2C_Master_Wait 0073  
                                                                ??_I2C_Master_Stop 0073  
                                                                   _SendUART_debug 0B85  
                                                         _INA226_MANUFACTURER_ID_K 083C  
                                                        main@voltage_batt_12V_high 00C2  
                                          __end_of_AutoFox_INA226_setupCalibration 03BF  
                                                ??_AutoFox_INA226_setupCalibration 003D  
                                                 ?_AutoFox_INA226_setupCalibration 0035  
                                                  _AutoFox_INA226_setupCalibration 0272  
                                                                      vfprintf@fmt 0034  
                                                                         ??___lmul 0073  
                                                               read_voltage@sample 003F  
                                                  ?_AutoFox_INA226_GetBusVoltage_V 0035  
                                                 ??_AutoFox_INA226_GetBusVoltage_V 0079  
                                                                         ??_printf 007A  
                                                                   _Interrupt_Init 0A0D  
                                                                      __pbssCOMMON 007A  
                                                                        ___latbits 0002  
                                   AutoFox_INA226_GetBusVoltage_V@theRegisterValue 0037  
                                                                    __pcstackBANK0 0020  
                                                                    __pcstackBANK1 00C0  
                                                    ?_AutoFox_INA226_WriteRegister 0075  
                                                          __end_of_SendErrorStatus 0E2E  
                                                           __end_of_SendUART_debug 0BC0  
                                                                 _I2C_Master_Start 09E3  
                                                                 _I2C_Master_Write 09F5  
                                                                 ___lwdiv@dividend 0075  
                                                                         ?___lldiv 0028  
                                                                         ?___lwdiv 0073  
                                                                         ?___lwmod 0073  
                                                             I2C_Master_Write@data 0073  
                                                           __end_of_Interrupt_Init 0A1D  
                                                       __end_of_cSampleAvgIdxShift 0828  
                                                                   _cSampleAvgMask 082C  
                                                                     _read_voltage 03BF  
                                                                         _I2C_Init 09FF  
                                                  AutoFox_INA226_Init@aI2C_Address 004F  
                                                                         _ADC_Init 0A5B  
                                                     ??_AutoFox_INA226_Constructor 0075  
                                                                 ___lwdiv@quotient 0078  
                                                     __end_of_INA226_SHUNT_VOLTAGE 084C  
                                                                  ?_SendUART_debug 0071  
                                                                interrupt_function 0004  
                               __end_of_AutoFox_INA226_ConfigureNumSampleAveraging 0EB9  
                                     ??_AutoFox_INA226_ConfigureNumSampleAveraging 002D  
                                      ?_AutoFox_INA226_ConfigureNumSampleAveraging 0029  
                                       _AutoFox_INA226_ConfigureNumSampleAveraging 0E2E  
                                           __end_of_INA226_I2C_TIMEOUT@ina226$F818 0840  
                                                   _INA226_I2C_TIMEOUT@ina226$F818 083E  
                                                                        clear_ram0 09DB  
                                                  __end_ofread_voltage@num_samples 0843  
                                              AutoFox_INA226_Init@aMaxCurrent_Amps 0052  
                                   AutoFox_INA226_ConfigureVoltageConversionTime@s 0033  
                                                   AutoFox_INA226_Constructor@this 0073  
                                                           __end_of_cSampleAvgMask 082E  
                                                                        _vfpfcnvrt 007A  
                                                                  ?_Interrupt_Init 0071  
                                                                       _ADCON0bits 001F  
                                                                      __stringbase 0812  
                                                                       _ADCON1bits 009F  
                                                       __end_of_INA226_I2C_TIMEOUT 0842  
                                                       __end_of_INA226_CALIBRATION 0848  
                                                              I2C_Master_Read@data 0075  
                                                                       vfpfcnvrt@c 0032  
                                                          SendErrorStatus@errorMsg 0021  
                                                                ___lmul@multiplier 0020  
                                                                 ?_SendErrorStatus 0071  
                                                   ??_AutoFox_INA226_WriteRegister 0020  
                                                          _cBusVoltageConvTimeMask 082A  
                                                          _INA226_POWER_LSB_FACTOR 0816  
                                                                       vfprintf@ap 0036  
                                                                       vfprintf@fp 0033  
                                                               _cAlertLatchingMode 082E  
                                                                       ?_vfpfcnvrt 0025  
                                                               __end_of__stringtab 0812  
                                                                  _I2C_Master_Read 0AC5  
                                                                  _I2C_Master_Wait 0A40  
                                                                  _I2C_Master_Stop 09EC  
                                                                  ___lwdiv@divisor 0073  
                                                                  ___lwdiv@counter 0077  
                                                                         __ptext10 0DA7  
                                                                         __ptext11 0A0D  
                                                                         __ptext20 0014  
                                                                         __ptext12 09FF  
                                                                         __ptext21 0D49  
                                                                         __ptext13 0AEF  
                                                                         __ptext30 0A40  
                                                                         __ptext22 0EB9  
                                                                         __ptext14 016A  
                                                                         __ptext31 0A5B  
                                                                         __ptext23 0E2E  
                                                                         __ptext15 0B85  
                                                                         __ptext32 0B19  
                                                                         __ptext24 0CEF  
                                                                         __ptext16 0272  
                                                                         __ptext25 0F57  
                                                                         __ptext17 0A9E  
                                                                         __ptext26 09F5  
                                                                         __ptext18 0C4A  
                                                                         __ptext27 09EC  
                                                                         __ptext19 0C02  
                                                                         __ptext28 09E3  
                                                                         __ptext29 0AC5  
                                                       __end_of_INA226_ALERT_LIMIT 0846  
                                                  AutoFox_INA226_ReadRegister@this 0020  
                              AutoFox_INA226_setupCalibration@aShuntResistor_mOhms 0037  
         AutoFox_INA226_ConfigureVoltageConversionTime@aIndexToConversionTimeTable 002B  
                                AutoFox_INA226_ConfigureVoltageConversionTime@this 0029  
                                                             AutoFox_INA226_Init@s 005A  
                                                             _INA226_SHUNT_VOLTAGE 084B  
                                                                         _vfprintf 0A79  
                                                                        printf@fmt 0039  
                                                               I2C_Master_Read@ack 0077  
                                                                    _cResetCommand 0836  
                                               __end_of_AutoFox_INA226_Constructor 0DA7  
                                                       _AutoFox_INA226_Constructor 0D49  
                                            AutoFox_INA226_WriteRegister@aRegister 0077  
                                                         __end_of_I2C_Master_Start 09EC  
                                                         __end_of_I2C_Master_Write 09FF  
                                                                       _INTCONbits 000B  
                                                                  _INA226_DIE_ID_K 083A  
                                                      __end_of_cMaxSampleAvgTblIdx 0822  
                                                                         intlevel1 0000  
                                                                 ___lwmod@dividend 0075  
                                                                 ___lldiv@dividend 002C  
                                                                        stringcode 080A  
                                                                       _OSCCONbits 008F  
                                                                _g_timer_led_blink 007A  
                                  AutoFox_INA226_setupCalibration@aMaxCurrent_Amps 0039  
                                                                         printf@ap 003D  
                                                          __end_of_I2C_Master_Read 0AEF  
                                                          __end_of_I2C_Master_Wait 0A5B  
                                                          __end_of_I2C_Master_Stop 09F5  
                                                                      ??_vfpfcnvrt 0028  
                                                           _INA226_BUS_VOLTAGE_LSB 081A  
                                                                   _INA226_CURRENT 0848  
                                                                 ___lldiv@quotient 0030  
                                                                  ___lwmod@divisor 0073  
                                                       __end_of_cOperatingModeMask 0836  
                                                                  ___lwmod@counter 0077  
                                                                 ??_SendUART_debug 0073  
                                                                         stringtab 0800  
                                                 __end_of_cBusVoltConvTimeIdxShift 0826  
                                                                _cAlertPinModeMask 0832  
                                                                      _SSPCON2bits 0091  
                                                              main@voltage_bus_24V 00C0  
                                                               _cSampleAvgIdxShift 0826  
                                             AutoFox_INA226_ReadRegister@aRegister 0022  
                                                         AutoFox_INA226_Init@s_870 005D  
                                                         AutoFox_INA226_Init@s_871 005E  
                                                         AutoFox_INA226_Init@s_872 005F  
                                                         AutoFox_INA226_Init@s_873 0060  
                                                         AutoFox_INA226_Init@s_868 005B  
                                                         AutoFox_INA226_Init@s_869 005C  
                                                     ?_AutoFox_INA226_ReadRegister 0020  
                                           __end_of_AutoFox_INA226_CheckI2cAddress 0AC5  
                                                   _AutoFox_INA226_CheckI2cAddress 0A9E  
                                                                       _SSPCONbits 0014  
                                              AutoFox_INA226_ReadRegister@aValue_p 0023  
                                                       __end_of_INA226_MASK_ENABLE 0847  
                                                          AutoFox_INA226_Init@this 004D  
                                                 AutoFox_INA226_WriteRegister@this 0075  
                                                         main@voltage_batt_12V_low 00C4  
