

Microchip MPLAB XC8 Assembler V2.50 build 20240725155939 
                                                                                               Thu Nov 14 23:27:52 2024

Microchip MPLAB XC8 C Compiler v2.50 (Free license) build 20240725155939 Og1 
     1                           	processor	16F886
     2                           	pagewidth 120
     3                           	opt	flic
     4                           	psect	stringtext,global,reloc=256,class=STRCODE,space=0,delta=2,noexec
     5                           	psect	cinit,global,class=CODE,space=0,merge=1,delta=2
     6                           	psect	bssCOMMON,global,class=COMMON,space=1,delta=1,noexec
     7                           	psect	bssBANK0,global,class=BANK0,space=1,delta=1,noexec
     8                           	psect	bssBANK1,global,class=BANK1,space=1,delta=1,noexec
     9                           	psect	clrtext,global,class=CODE,space=0,delta=2
    10                           	psect	cstackBANK1,global,class=BANK1,space=1,delta=1,noexec
    11                           	psect	cstackCOMMON,global,class=COMMON,space=1,delta=1,noexec
    12                           	psect	cstackBANK0,global,class=BANK0,space=1,delta=1,noexec
    13                           	psect	maintext,global,class=CODE,space=0,split=1,delta=2
    14                           	psect	text1,local,class=CODE,space=0,merge=1,delta=2
    15                           	psect	text2,local,class=CODE,space=0,merge=1,delta=2
    16                           	psect	text3,local,class=CODE,space=0,merge=1,delta=2
    17                           	psect	text4,local,class=CODE,space=0,merge=1,delta=2
    18                           	psect	text5,local,class=CODE,space=0,merge=1,delta=2
    19                           	psect	text6,local,class=CODE,space=0,merge=1,delta=2,group=3
    20                           	psect	text7,local,class=CODE,space=0,merge=1,delta=2,group=1
    21                           	psect	text8,local,class=CODE,space=0,merge=1,delta=2,group=1
    22                           	psect	text9,local,class=CODE,space=0,merge=1,delta=2,group=3
    23                           	psect	text10,local,class=CODE,space=0,merge=1,delta=2
    24                           	psect	text11,local,class=CODE,space=0,merge=1,delta=2,group=3
    25                           	psect	text12,local,class=CODE,space=0,merge=1,delta=2,group=2
    26                           	psect	text13,local,class=CODE,space=0,merge=1,delta=2,group=2
    27                           	psect	text14,local,class=CODE,space=0,merge=1,delta=2,group=2
    28                           	psect	text15,local,class=CODE,space=0,merge=1,delta=2,group=2
    29                           	psect	text16,local,class=CODE,space=0,merge=1,delta=2
    30                           	psect	text17,local,class=CODE,space=0,merge=1,delta=2
    31                           	psect	text18,local,class=CODE,space=0,merge=1,delta=2
    32                           	psect	text19,local,class=CODE,space=0,merge=1,delta=2
    33                           	psect	text20,local,class=CODE,space=0,merge=1,delta=2
    34                           	psect	text21,local,class=CODE,space=0,merge=1,delta=2
    35                           	psect	text22,local,class=CODE,space=0,merge=1,delta=2
    36                           	psect	text23,local,class=CODE,space=0,merge=1,delta=2,group=2
    37                           	psect	text24,local,class=CODE,space=0,merge=1,delta=2,group=2
    38                           	psect	text25,local,class=CODE,space=0,merge=1,delta=2
    39                           	psect	text26,local,class=CODE,space=0,merge=1,delta=2
    40                           	psect	text27,local,class=CODE,space=0,merge=1,delta=2
    41                           	psect	text28,local,class=CODE,space=0,merge=1,delta=2
    42                           	psect	text29,local,class=CODE,space=0,merge=1,delta=2
    43                           	psect	text30,local,class=CODE,space=0,merge=1,delta=2
    44                           	psect	text31,local,class=CODE,space=0,merge=1,delta=2
    45                           	psect	text32,local,class=CODE,space=0,merge=1,delta=2
    46                           	psect	text33,local,class=CODE,space=0,merge=1,delta=2
    47                           	psect	text34,local,class=CODE,space=0,merge=1,delta=2
    48                           	psect	text35,local,class=CODE,space=0,merge=1,delta=2
    49                           	psect	text36,local,class=CODE,space=0,merge=1,delta=2
    50                           	psect	intentry,global,class=CODE,space=0,delta=2
    51                           	psect	config,global,abs,ovrld,class=CONFIG,space=4,delta=2,noexec
    52                           	dabs	1,0x7E,2
    53     0000                     
    54                           ; Generated 12/10/2023 GMT
    55                           ; 
    56                           ; Copyright © 2023, Microchip Technology Inc. and its subsidiaries ("Microchip")
    57                           ; All rights reserved.
    58                           ; 
    59                           ; This software is developed by Microchip Technology Inc. and its subsidiaries ("Microch
      +                          ip").
    60                           ; 
    61                           ; Redistribution and use in source and binary forms, with or without modification, are
    62                           ; permitted provided that the following conditions are met:
    63                           ; 
    64                           ;     1. Redistributions of source code must retain the above copyright notice, this lis
      +                          t of
    65                           ;        conditions and the following disclaimer.
    66                           ; 
    67                           ;     2. Redistributions in binary form must reproduce the above copyright notice, this 
      +                          list
    68                           ;        of conditions and the following disclaimer in the documentation and/or other
    69                           ;        materials provided with the distribution. Publication is not required when
    70                           ;        this file is used in an embedded application.
    71                           ; 
    72                           ;     3. Microchip's name may not be used to endorse or promote products derived from th
      +                          is
    73                           ;        software without specific prior written permission.
    74                           ; 
    75                           ; THIS SOFTWARE IS PROVIDED BY MICROCHIP "AS IS" AND ANY EXPRESS OR IMPLIED WARRANTIES,
    76                           ; INCLUDING, BUT NOT LIMITED TO, THE IMPLIED WARRANTIES OF MERCHANTABILITY AND FITNESS F
      +                          OR
    77                           ; PURPOSE ARE DISCLAIMED.  IN NO EVENT SHALL MICROCHIP BE LIABLE FOR ANY DIRECT, INDIREC
      +                          T,
    78                           ; INCIDENTAL, SPECIAL, EXEMPLARY, OR CONSEQUENTIAL DAMAGES (INCLUDING BUT NOT LIMITED TO
    79                           ; PROCUREMENT OF SUBSTITUTE GOODS OR SERVICES; LOSS OF USE, DATA OR PROFITS; OR BUSINESS
    80                           ; INTERRUPTION) HOWSOEVER CAUSED AND ON ANY THEORY OF LIABILITY, WHETHER IN CONTRACT, ST
      +                          RICT
    81                           ; LIABILITY, OR TORT (INCLUDING NEGLIGENCE OR OTHERWISE) ARISING IN ANY WAY OUT OF THE U
      +                          SE OF
    82                           ; THIS SOFTWARE, EVEN IF ADVISED OF THE POSSIBILITY OF SUCH DAMAGE.
    83                           ; 
    84                           ; 
    85                           ; Code-generator required, PIC16F886 Definitions
    86                           ; 
    87                           ; SFR Addresses
    88     0004                     fsr             equ	4
    89     0004                     fsr0            equ	4
    90     0000                     indf            equ	0
    91     0000                     indf0           equ	0
    92     0002                     pc              equ	2
    93     0002                     pcl             equ	2
    94     000A                     pclath          equ	10
    95     0003                     status          equ	3
    96     0000                     INDF            equ	0	;# 
    97     0001                     TMR0            equ	1	;# 
    98     0002                     PCL             equ	2	;# 
    99     0003                     STATUS          equ	3	;# 
   100     0004                     FSR             equ	4	;# 
   101     0005                     PORTA           equ	5	;# 
   102     0006                     PORTB           equ	6	;# 
   103     0007                     PORTC           equ	7	;# 
   104     0009                     PORTE           equ	9	;# 
   105     000A                     PCLATH          equ	10	;# 
   106     000B                     INTCON          equ	11	;# 
   107     000C                     PIR1            equ	12	;# 
   108     000D                     PIR2            equ	13	;# 
   109     000E                     TMR1            equ	14	;# 
   110     000E                     TMR1L           equ	14	;# 
   111     000F                     TMR1H           equ	15	;# 
   112     0010                     T1CON           equ	16	;# 
   113     0011                     TMR2            equ	17	;# 
   114     0012                     T2CON           equ	18	;# 
   115     0013                     SSPBUF          equ	19	;# 
   116     0014                     SSPCON          equ	20	;# 
   117     0015                     CCPR1           equ	21	;# 
   118     0015                     CCPR1L          equ	21	;# 
   119     0016                     CCPR1H          equ	22	;# 
   120     0017                     CCP1CON         equ	23	;# 
   121     0018                     RCSTA           equ	24	;# 
   122     0019                     TXREG           equ	25	;# 
   123     001A                     RCREG           equ	26	;# 
   124     001B                     CCPR2           equ	27	;# 
   125     001B                     CCPR2L          equ	27	;# 
   126     001C                     CCPR2H          equ	28	;# 
   127     001D                     CCP2CON         equ	29	;# 
   128     001E                     ADRESH          equ	30	;# 
   129     001F                     ADCON0          equ	31	;# 
   130     0081                     OPTION_REG      equ	129	;# 
   131     0085                     TRISA           equ	133	;# 
   132     0086                     TRISB           equ	134	;# 
   133     0087                     TRISC           equ	135	;# 
   134     0089                     TRISE           equ	137	;# 
   135     008C                     PIE1            equ	140	;# 
   136     008D                     PIE2            equ	141	;# 
   137     008E                     PCON            equ	142	;# 
   138     008F                     OSCCON          equ	143	;# 
   139     0090                     OSCTUNE         equ	144	;# 
   140     0091                     SSPCON2         equ	145	;# 
   141     0092                     PR2             equ	146	;# 
   142     0093                     SSPADD          equ	147	;# 
   143     0093                     SSPMSK          equ	147	;# 
   144     0093                     MSK             equ	147	;# 
   145     0094                     SSPSTAT         equ	148	;# 
   146     0095                     WPUB            equ	149	;# 
   147     0096                     IOCB            equ	150	;# 
   148     0097                     VRCON           equ	151	;# 
   149     0098                     TXSTA           equ	152	;# 
   150     0099                     SPBRG           equ	153	;# 
   151     009A                     SPBRGH          equ	154	;# 
   152     009B                     PWM1CON         equ	155	;# 
   153     009C                     ECCPAS          equ	156	;# 
   154     009D                     PSTRCON         equ	157	;# 
   155     009E                     ADRESL          equ	158	;# 
   156     009F                     ADCON1          equ	159	;# 
   157     0105                     WDTCON          equ	261	;# 
   158     0107                     CM1CON0         equ	263	;# 
   159     0108                     CM2CON0         equ	264	;# 
   160     0109                     CM2CON1         equ	265	;# 
   161     010C                     EEDATA          equ	268	;# 
   162     010C                     EEDAT           equ	268	;# 
   163     010D                     EEADR           equ	269	;# 
   164     010E                     EEDATH          equ	270	;# 
   165     010F                     EEADRH          equ	271	;# 
   166     0185                     SRCON           equ	389	;# 
   167     0187                     BAUDCTL         equ	391	;# 
   168     0188                     ANSEL           equ	392	;# 
   169     0189                     ANSELH          equ	393	;# 
   170     018C                     EECON1          equ	396	;# 
   171     018D                     EECON2          equ	397	;# 
   172     0000                     INDF            equ	0	;# 
   173     0001                     TMR0            equ	1	;# 
   174     0002                     PCL             equ	2	;# 
   175     0003                     STATUS          equ	3	;# 
   176     0004                     FSR             equ	4	;# 
   177     0005                     PORTA           equ	5	;# 
   178     0006                     PORTB           equ	6	;# 
   179     0007                     PORTC           equ	7	;# 
   180     0009                     PORTE           equ	9	;# 
   181     000A                     PCLATH          equ	10	;# 
   182     000B                     INTCON          equ	11	;# 
   183     000C                     PIR1            equ	12	;# 
   184     000D                     PIR2            equ	13	;# 
   185     000E                     TMR1            equ	14	;# 
   186     000E                     TMR1L           equ	14	;# 
   187     000F                     TMR1H           equ	15	;# 
   188     0010                     T1CON           equ	16	;# 
   189     0011                     TMR2            equ	17	;# 
   190     0012                     T2CON           equ	18	;# 
   191     0013                     SSPBUF          equ	19	;# 
   192     0014                     SSPCON          equ	20	;# 
   193     0015                     CCPR1           equ	21	;# 
   194     0015                     CCPR1L          equ	21	;# 
   195     0016                     CCPR1H          equ	22	;# 
   196     0017                     CCP1CON         equ	23	;# 
   197     0018                     RCSTA           equ	24	;# 
   198     0019                     TXREG           equ	25	;# 
   199     001A                     RCREG           equ	26	;# 
   200     001B                     CCPR2           equ	27	;# 
   201     001B                     CCPR2L          equ	27	;# 
   202     001C                     CCPR2H          equ	28	;# 
   203     001D                     CCP2CON         equ	29	;# 
   204     001E                     ADRESH          equ	30	;# 
   205     001F                     ADCON0          equ	31	;# 
   206     0081                     OPTION_REG      equ	129	;# 
   207     0085                     TRISA           equ	133	;# 
   208     0086                     TRISB           equ	134	;# 
   209     0087                     TRISC           equ	135	;# 
   210     0089                     TRISE           equ	137	;# 
   211     008C                     PIE1            equ	140	;# 
   212     008D                     PIE2            equ	141	;# 
   213     008E                     PCON            equ	142	;# 
   214     008F                     OSCCON          equ	143	;# 
   215     0090                     OSCTUNE         equ	144	;# 
   216     0091                     SSPCON2         equ	145	;# 
   217     0092                     PR2             equ	146	;# 
   218     0093                     SSPADD          equ	147	;# 
   219     0093                     SSPMSK          equ	147	;# 
   220     0093                     MSK             equ	147	;# 
   221     0094                     SSPSTAT         equ	148	;# 
   222     0095                     WPUB            equ	149	;# 
   223     0096                     IOCB            equ	150	;# 
   224     0097                     VRCON           equ	151	;# 
   225     0098                     TXSTA           equ	152	;# 
   226     0099                     SPBRG           equ	153	;# 
   227     009A                     SPBRGH          equ	154	;# 
   228     009B                     PWM1CON         equ	155	;# 
   229     009C                     ECCPAS          equ	156	;# 
   230     009D                     PSTRCON         equ	157	;# 
   231     009E                     ADRESL          equ	158	;# 
   232     009F                     ADCON1          equ	159	;# 
   233     0105                     WDTCON          equ	261	;# 
   234     0107                     CM1CON0         equ	263	;# 
   235     0108                     CM2CON0         equ	264	;# 
   236     0109                     CM2CON1         equ	265	;# 
   237     010C                     EEDATA          equ	268	;# 
   238     010C                     EEDAT           equ	268	;# 
   239     010D                     EEADR           equ	269	;# 
   240     010E                     EEDATH          equ	270	;# 
   241     010F                     EEADRH          equ	271	;# 
   242     0185                     SRCON           equ	389	;# 
   243     0187                     BAUDCTL         equ	391	;# 
   244     0188                     ANSEL           equ	392	;# 
   245     0189                     ANSELH          equ	393	;# 
   246     018C                     EECON1          equ	396	;# 
   247     018D                     EECON2          equ	397	;# 
   248     0000                     INDF            equ	0	;# 
   249     0001                     TMR0            equ	1	;# 
   250     0002                     PCL             equ	2	;# 
   251     0003                     STATUS          equ	3	;# 
   252     0004                     FSR             equ	4	;# 
   253     0005                     PORTA           equ	5	;# 
   254     0006                     PORTB           equ	6	;# 
   255     0007                     PORTC           equ	7	;# 
   256     0009                     PORTE           equ	9	;# 
   257     000A                     PCLATH          equ	10	;# 
   258     000B                     INTCON          equ	11	;# 
   259     000C                     PIR1            equ	12	;# 
   260     000D                     PIR2            equ	13	;# 
   261     000E                     TMR1            equ	14	;# 
   262     000E                     TMR1L           equ	14	;# 
   263     000F                     TMR1H           equ	15	;# 
   264     0010                     T1CON           equ	16	;# 
   265     0011                     TMR2            equ	17	;# 
   266     0012                     T2CON           equ	18	;# 
   267     0013                     SSPBUF          equ	19	;# 
   268     0014                     SSPCON          equ	20	;# 
   269     0015                     CCPR1           equ	21	;# 
   270     0015                     CCPR1L          equ	21	;# 
   271     0016                     CCPR1H          equ	22	;# 
   272     0017                     CCP1CON         equ	23	;# 
   273     0018                     RCSTA           equ	24	;# 
   274     0019                     TXREG           equ	25	;# 
   275     001A                     RCREG           equ	26	;# 
   276     001B                     CCPR2           equ	27	;# 
   277     001B                     CCPR2L          equ	27	;# 
   278     001C                     CCPR2H          equ	28	;# 
   279     001D                     CCP2CON         equ	29	;# 
   280     001E                     ADRESH          equ	30	;# 
   281     001F                     ADCON0          equ	31	;# 
   282     0081                     OPTION_REG      equ	129	;# 
   283     0085                     TRISA           equ	133	;# 
   284     0086                     TRISB           equ	134	;# 
   285     0087                     TRISC           equ	135	;# 
   286     0089                     TRISE           equ	137	;# 
   287     008C                     PIE1            equ	140	;# 
   288     008D                     PIE2            equ	141	;# 
   289     008E                     PCON            equ	142	;# 
   290     008F                     OSCCON          equ	143	;# 
   291     0090                     OSCTUNE         equ	144	;# 
   292     0091                     SSPCON2         equ	145	;# 
   293     0092                     PR2             equ	146	;# 
   294     0093                     SSPADD          equ	147	;# 
   295     0093                     SSPMSK          equ	147	;# 
   296     0093                     MSK             equ	147	;# 
   297     0094                     SSPSTAT         equ	148	;# 
   298     0095                     WPUB            equ	149	;# 
   299     0096                     IOCB            equ	150	;# 
   300     0097                     VRCON           equ	151	;# 
   301     0098                     TXSTA           equ	152	;# 
   302     0099                     SPBRG           equ	153	;# 
   303     009A                     SPBRGH          equ	154	;# 
   304     009B                     PWM1CON         equ	155	;# 
   305     009C                     ECCPAS          equ	156	;# 
   306     009D                     PSTRCON         equ	157	;# 
   307     009E                     ADRESL          equ	158	;# 
   308     009F                     ADCON1          equ	159	;# 
   309     0105                     WDTCON          equ	261	;# 
   310     0107                     CM1CON0         equ	263	;# 
   311     0108                     CM2CON0         equ	264	;# 
   312     0109                     CM2CON1         equ	265	;# 
   313     010C                     EEDATA          equ	268	;# 
   314     010C                     EEDAT           equ	268	;# 
   315     010D                     EEADR           equ	269	;# 
   316     010E                     EEDATH          equ	270	;# 
   317     010F                     EEADRH          equ	271	;# 
   318     0185                     SRCON           equ	389	;# 
   319     0187                     BAUDCTL         equ	391	;# 
   320     0188                     ANSEL           equ	392	;# 
   321     0189                     ANSELH          equ	393	;# 
   322     018C                     EECON1          equ	396	;# 
   323     018D                     EECON2          equ	397	;# 
   324     0000                     INDF            equ	0	;# 
   325     0001                     TMR0            equ	1	;# 
   326     0002                     PCL             equ	2	;# 
   327     0003                     STATUS          equ	3	;# 
   328     0004                     FSR             equ	4	;# 
   329     0005                     PORTA           equ	5	;# 
   330     0006                     PORTB           equ	6	;# 
   331     0007                     PORTC           equ	7	;# 
   332     0009                     PORTE           equ	9	;# 
   333     000A                     PCLATH          equ	10	;# 
   334     000B                     INTCON          equ	11	;# 
   335     000C                     PIR1            equ	12	;# 
   336     000D                     PIR2            equ	13	;# 
   337     000E                     TMR1            equ	14	;# 
   338     000E                     TMR1L           equ	14	;# 
   339     000F                     TMR1H           equ	15	;# 
   340     0010                     T1CON           equ	16	;# 
   341     0011                     TMR2            equ	17	;# 
   342     0012                     T2CON           equ	18	;# 
   343     0013                     SSPBUF          equ	19	;# 
   344     0014                     SSPCON          equ	20	;# 
   345     0015                     CCPR1           equ	21	;# 
   346     0015                     CCPR1L          equ	21	;# 
   347     0016                     CCPR1H          equ	22	;# 
   348     0017                     CCP1CON         equ	23	;# 
   349     0018                     RCSTA           equ	24	;# 
   350     0019                     TXREG           equ	25	;# 
   351     001A                     RCREG           equ	26	;# 
   352     001B                     CCPR2           equ	27	;# 
   353     001B                     CCPR2L          equ	27	;# 
   354     001C                     CCPR2H          equ	28	;# 
   355     001D                     CCP2CON         equ	29	;# 
   356     001E                     ADRESH          equ	30	;# 
   357     001F                     ADCON0          equ	31	;# 
   358     0081                     OPTION_REG      equ	129	;# 
   359     0085                     TRISA           equ	133	;# 
   360     0086                     TRISB           equ	134	;# 
   361     0087                     TRISC           equ	135	;# 
   362     0089                     TRISE           equ	137	;# 
   363     008C                     PIE1            equ	140	;# 
   364     008D                     PIE2            equ	141	;# 
   365     008E                     PCON            equ	142	;# 
   366     008F                     OSCCON          equ	143	;# 
   367     0090                     OSCTUNE         equ	144	;# 
   368     0091                     SSPCON2         equ	145	;# 
   369     0092                     PR2             equ	146	;# 
   370     0093                     SSPADD          equ	147	;# 
   371     0093                     SSPMSK          equ	147	;# 
   372     0093                     MSK             equ	147	;# 
   373     0094                     SSPSTAT         equ	148	;# 
   374     0095                     WPUB            equ	149	;# 
   375     0096                     IOCB            equ	150	;# 
   376     0097                     VRCON           equ	151	;# 
   377     0098                     TXSTA           equ	152	;# 
   378     0099                     SPBRG           equ	153	;# 
   379     009A                     SPBRGH          equ	154	;# 
   380     009B                     PWM1CON         equ	155	;# 
   381     009C                     ECCPAS          equ	156	;# 
   382     009D                     PSTRCON         equ	157	;# 
   383     009E                     ADRESL          equ	158	;# 
   384     009F                     ADCON1          equ	159	;# 
   385     0105                     WDTCON          equ	261	;# 
   386     0107                     CM1CON0         equ	263	;# 
   387     0108                     CM2CON0         equ	264	;# 
   388     0109                     CM2CON1         equ	265	;# 
   389     010C                     EEDATA          equ	268	;# 
   390     010C                     EEDAT           equ	268	;# 
   391     010D                     EEADR           equ	269	;# 
   392     010E                     EEDATH          equ	270	;# 
   393     010F                     EEADRH          equ	271	;# 
   394     0185                     SRCON           equ	389	;# 
   395     0187                     BAUDCTL         equ	391	;# 
   396     0188                     ANSEL           equ	392	;# 
   397     0189                     ANSELH          equ	393	;# 
   398     018C                     EECON1          equ	396	;# 
   399     018D                     EECON2          equ	397	;# 
   400     0000                     INDF            equ	0	;# 
   401     0001                     TMR0            equ	1	;# 
   402     0002                     PCL             equ	2	;# 
   403     0003                     STATUS          equ	3	;# 
   404     0004                     FSR             equ	4	;# 
   405     0005                     PORTA           equ	5	;# 
   406     0006                     PORTB           equ	6	;# 
   407     0007                     PORTC           equ	7	;# 
   408     0009                     PORTE           equ	9	;# 
   409     000A                     PCLATH          equ	10	;# 
   410     000B                     INTCON          equ	11	;# 
   411     000C                     PIR1            equ	12	;# 
   412     000D                     PIR2            equ	13	;# 
   413     000E                     TMR1            equ	14	;# 
   414     000E                     TMR1L           equ	14	;# 
   415     000F                     TMR1H           equ	15	;# 
   416     0010                     T1CON           equ	16	;# 
   417     0011                     TMR2            equ	17	;# 
   418     0012                     T2CON           equ	18	;# 
   419     0013                     SSPBUF          equ	19	;# 
   420     0014                     SSPCON          equ	20	;# 
   421     0015                     CCPR1           equ	21	;# 
   422     0015                     CCPR1L          equ	21	;# 
   423     0016                     CCPR1H          equ	22	;# 
   424     0017                     CCP1CON         equ	23	;# 
   425     0018                     RCSTA           equ	24	;# 
   426     0019                     TXREG           equ	25	;# 
   427     001A                     RCREG           equ	26	;# 
   428     001B                     CCPR2           equ	27	;# 
   429     001B                     CCPR2L          equ	27	;# 
   430     001C                     CCPR2H          equ	28	;# 
   431     001D                     CCP2CON         equ	29	;# 
   432     001E                     ADRESH          equ	30	;# 
   433     001F                     ADCON0          equ	31	;# 
   434     0081                     OPTION_REG      equ	129	;# 
   435     0085                     TRISA           equ	133	;# 
   436     0086                     TRISB           equ	134	;# 
   437     0087                     TRISC           equ	135	;# 
   438     0089                     TRISE           equ	137	;# 
   439     008C                     PIE1            equ	140	;# 
   440     008D                     PIE2            equ	141	;# 
   441     008E                     PCON            equ	142	;# 
   442     008F                     OSCCON          equ	143	;# 
   443     0090                     OSCTUNE         equ	144	;# 
   444     0091                     SSPCON2         equ	145	;# 
   445     0092                     PR2             equ	146	;# 
   446     0093                     SSPADD          equ	147	;# 
   447     0093                     SSPMSK          equ	147	;# 
   448     0093                     MSK             equ	147	;# 
   449     0094                     SSPSTAT         equ	148	;# 
   450     0095                     WPUB            equ	149	;# 
   451     0096                     IOCB            equ	150	;# 
   452     0097                     VRCON           equ	151	;# 
   453     0098                     TXSTA           equ	152	;# 
   454     0099                     SPBRG           equ	153	;# 
   455     009A                     SPBRGH          equ	154	;# 
   456     009B                     PWM1CON         equ	155	;# 
   457     009C                     ECCPAS          equ	156	;# 
   458     009D                     PSTRCON         equ	157	;# 
   459     009E                     ADRESL          equ	158	;# 
   460     009F                     ADCON1          equ	159	;# 
   461     0105                     WDTCON          equ	261	;# 
   462     0107                     CM1CON0         equ	263	;# 
   463     0108                     CM2CON0         equ	264	;# 
   464     0109                     CM2CON1         equ	265	;# 
   465     010C                     EEDATA          equ	268	;# 
   466     010C                     EEDAT           equ	268	;# 
   467     010D                     EEADR           equ	269	;# 
   468     010E                     EEDATH          equ	270	;# 
   469     010F                     EEADRH          equ	271	;# 
   470     0185                     SRCON           equ	389	;# 
   471     0187                     BAUDCTL         equ	391	;# 
   472     0188                     ANSEL           equ	392	;# 
   473     0189                     ANSELH          equ	393	;# 
   474     018C                     EECON1          equ	396	;# 
   475     018D                     EECON2          equ	397	;# 
   476     0000                     INDF            equ	0	;# 
   477     0001                     TMR0            equ	1	;# 
   478     0002                     PCL             equ	2	;# 
   479     0003                     STATUS          equ	3	;# 
   480     0004                     FSR             equ	4	;# 
   481     0005                     PORTA           equ	5	;# 
   482     0006                     PORTB           equ	6	;# 
   483     0007                     PORTC           equ	7	;# 
   484     0009                     PORTE           equ	9	;# 
   485     000A                     PCLATH          equ	10	;# 
   486     000B                     INTCON          equ	11	;# 
   487     000C                     PIR1            equ	12	;# 
   488     000D                     PIR2            equ	13	;# 
   489     000E                     TMR1            equ	14	;# 
   490     000E                     TMR1L           equ	14	;# 
   491     000F                     TMR1H           equ	15	;# 
   492     0010                     T1CON           equ	16	;# 
   493     0011                     TMR2            equ	17	;# 
   494     0012                     T2CON           equ	18	;# 
   495     0013                     SSPBUF          equ	19	;# 
   496     0014                     SSPCON          equ	20	;# 
   497     0015                     CCPR1           equ	21	;# 
   498     0015                     CCPR1L          equ	21	;# 
   499     0016                     CCPR1H          equ	22	;# 
   500     0017                     CCP1CON         equ	23	;# 
   501     0018                     RCSTA           equ	24	;# 
   502     0019                     TXREG           equ	25	;# 
   503     001A                     RCREG           equ	26	;# 
   504     001B                     CCPR2           equ	27	;# 
   505     001B                     CCPR2L          equ	27	;# 
   506     001C                     CCPR2H          equ	28	;# 
   507     001D                     CCP2CON         equ	29	;# 
   508     001E                     ADRESH          equ	30	;# 
   509     001F                     ADCON0          equ	31	;# 
   510     0081                     OPTION_REG      equ	129	;# 
   511     0085                     TRISA           equ	133	;# 
   512     0086                     TRISB           equ	134	;# 
   513     0087                     TRISC           equ	135	;# 
   514     0089                     TRISE           equ	137	;# 
   515     008C                     PIE1            equ	140	;# 
   516     008D                     PIE2            equ	141	;# 
   517     008E                     PCON            equ	142	;# 
   518     008F                     OSCCON          equ	143	;# 
   519     0090                     OSCTUNE         equ	144	;# 
   520     0091                     SSPCON2         equ	145	;# 
   521     0092                     PR2             equ	146	;# 
   522     0093                     SSPADD          equ	147	;# 
   523     0093                     SSPMSK          equ	147	;# 
   524     0093                     MSK             equ	147	;# 
   525     0094                     SSPSTAT         equ	148	;# 
   526     0095                     WPUB            equ	149	;# 
   527     0096                     IOCB            equ	150	;# 
   528     0097                     VRCON           equ	151	;# 
   529     0098                     TXSTA           equ	152	;# 
   530     0099                     SPBRG           equ	153	;# 
   531     009A                     SPBRGH          equ	154	;# 
   532     009B                     PWM1CON         equ	155	;# 
   533     009C                     ECCPAS          equ	156	;# 
   534     009D                     PSTRCON         equ	157	;# 
   535     009E                     ADRESL          equ	158	;# 
   536     009F                     ADCON1          equ	159	;# 
   537     0105                     WDTCON          equ	261	;# 
   538     0107                     CM1CON0         equ	263	;# 
   539     0108                     CM2CON0         equ	264	;# 
   540     0109                     CM2CON1         equ	265	;# 
   541     010C                     EEDATA          equ	268	;# 
   542     010C                     EEDAT           equ	268	;# 
   543     010D                     EEADR           equ	269	;# 
   544     010E                     EEDATH          equ	270	;# 
   545     010F                     EEADRH          equ	271	;# 
   546     0185                     SRCON           equ	389	;# 
   547     0187                     BAUDCTL         equ	391	;# 
   548     0188                     ANSEL           equ	392	;# 
   549     0189                     ANSELH          equ	393	;# 
   550     018C                     EECON1          equ	396	;# 
   551     018D                     EECON2          equ	397	;# 
   552     0000                     INDF            equ	0	;# 
   553     0001                     TMR0            equ	1	;# 
   554     0002                     PCL             equ	2	;# 
   555     0003                     STATUS          equ	3	;# 
   556     0004                     FSR             equ	4	;# 
   557     0005                     PORTA           equ	5	;# 
   558     0006                     PORTB           equ	6	;# 
   559     0007                     PORTC           equ	7	;# 
   560     0009                     PORTE           equ	9	;# 
   561     000A                     PCLATH          equ	10	;# 
   562     000B                     INTCON          equ	11	;# 
   563     000C                     PIR1            equ	12	;# 
   564     000D                     PIR2            equ	13	;# 
   565     000E                     TMR1            equ	14	;# 
   566     000E                     TMR1L           equ	14	;# 
   567     000F                     TMR1H           equ	15	;# 
   568     0010                     T1CON           equ	16	;# 
   569     0011                     TMR2            equ	17	;# 
   570     0012                     T2CON           equ	18	;# 
   571     0013                     SSPBUF          equ	19	;# 
   572     0014                     SSPCON          equ	20	;# 
   573     0015                     CCPR1           equ	21	;# 
   574     0015                     CCPR1L          equ	21	;# 
   575     0016                     CCPR1H          equ	22	;# 
   576     0017                     CCP1CON         equ	23	;# 
   577     0018                     RCSTA           equ	24	;# 
   578     0019                     TXREG           equ	25	;# 
   579     001A                     RCREG           equ	26	;# 
   580     001B                     CCPR2           equ	27	;# 
   581     001B                     CCPR2L          equ	27	;# 
   582     001C                     CCPR2H          equ	28	;# 
   583     001D                     CCP2CON         equ	29	;# 
   584     001E                     ADRESH          equ	30	;# 
   585     001F                     ADCON0          equ	31	;# 
   586     0081                     OPTION_REG      equ	129	;# 
   587     0085                     TRISA           equ	133	;# 
   588     0086                     TRISB           equ	134	;# 
   589     0087                     TRISC           equ	135	;# 
   590     0089                     TRISE           equ	137	;# 
   591     008C                     PIE1            equ	140	;# 
   592     008D                     PIE2            equ	141	;# 
   593     008E                     PCON            equ	142	;# 
   594     008F                     OSCCON          equ	143	;# 
   595     0090                     OSCTUNE         equ	144	;# 
   596     0091                     SSPCON2         equ	145	;# 
   597     0092                     PR2             equ	146	;# 
   598     0093                     SSPADD          equ	147	;# 
   599     0093                     SSPMSK          equ	147	;# 
   600     0093                     MSK             equ	147	;# 
   601     0094                     SSPSTAT         equ	148	;# 
   602     0095                     WPUB            equ	149	;# 
   603     0096                     IOCB            equ	150	;# 
   604     0097                     VRCON           equ	151	;# 
   605     0098                     TXSTA           equ	152	;# 
   606     0099                     SPBRG           equ	153	;# 
   607     009A                     SPBRGH          equ	154	;# 
   608     009B                     PWM1CON         equ	155	;# 
   609     009C                     ECCPAS          equ	156	;# 
   610     009D                     PSTRCON         equ	157	;# 
   611     009E                     ADRESL          equ	158	;# 
   612     009F                     ADCON1          equ	159	;# 
   613     0105                     WDTCON          equ	261	;# 
   614     0107                     CM1CON0         equ	263	;# 
   615     0108                     CM2CON0         equ	264	;# 
   616     0109                     CM2CON1         equ	265	;# 
   617     010C                     EEDATA          equ	268	;# 
   618     010C                     EEDAT           equ	268	;# 
   619     010D                     EEADR           equ	269	;# 
   620     010E                     EEDATH          equ	270	;# 
   621     010F                     EEADRH          equ	271	;# 
   622     0185                     SRCON           equ	389	;# 
   623     0187                     BAUDCTL         equ	391	;# 
   624     0188                     ANSEL           equ	392	;# 
   625     0189                     ANSELH          equ	393	;# 
   626     018C                     EECON1          equ	396	;# 
   627     018D                     EECON2          equ	397	;# 
   628     0000                     INDF            equ	0	;# 
   629     0001                     TMR0            equ	1	;# 
   630     0002                     PCL             equ	2	;# 
   631     0003                     STATUS          equ	3	;# 
   632     0004                     FSR             equ	4	;# 
   633     0005                     PORTA           equ	5	;# 
   634     0006                     PORTB           equ	6	;# 
   635     0007                     PORTC           equ	7	;# 
   636     0009                     PORTE           equ	9	;# 
   637     000A                     PCLATH          equ	10	;# 
   638     000B                     INTCON          equ	11	;# 
   639     000C                     PIR1            equ	12	;# 
   640     000D                     PIR2            equ	13	;# 
   641     000E                     TMR1            equ	14	;# 
   642     000E                     TMR1L           equ	14	;# 
   643     000F                     TMR1H           equ	15	;# 
   644     0010                     T1CON           equ	16	;# 
   645     0011                     TMR2            equ	17	;# 
   646     0012                     T2CON           equ	18	;# 
   647     0013                     SSPBUF          equ	19	;# 
   648     0014                     SSPCON          equ	20	;# 
   649     0015                     CCPR1           equ	21	;# 
   650     0015                     CCPR1L          equ	21	;# 
   651     0016                     CCPR1H          equ	22	;# 
   652     0017                     CCP1CON         equ	23	;# 
   653     0018                     RCSTA           equ	24	;# 
   654     0019                     TXREG           equ	25	;# 
   655     001A                     RCREG           equ	26	;# 
   656     001B                     CCPR2           equ	27	;# 
   657     001B                     CCPR2L          equ	27	;# 
   658     001C                     CCPR2H          equ	28	;# 
   659     001D                     CCP2CON         equ	29	;# 
   660     001E                     ADRESH          equ	30	;# 
   661     001F                     ADCON0          equ	31	;# 
   662     0081                     OPTION_REG      equ	129	;# 
   663     0085                     TRISA           equ	133	;# 
   664     0086                     TRISB           equ	134	;# 
   665     0087                     TRISC           equ	135	;# 
   666     0089                     TRISE           equ	137	;# 
   667     008C                     PIE1            equ	140	;# 
   668     008D                     PIE2            equ	141	;# 
   669     008E                     PCON            equ	142	;# 
   670     008F                     OSCCON          equ	143	;# 
   671     0090                     OSCTUNE         equ	144	;# 
   672     0091                     SSPCON2         equ	145	;# 
   673     0092                     PR2             equ	146	;# 
   674     0093                     SSPADD          equ	147	;# 
   675     0093                     SSPMSK          equ	147	;# 
   676     0093                     MSK             equ	147	;# 
   677     0094                     SSPSTAT         equ	148	;# 
   678     0095                     WPUB            equ	149	;# 
   679     0096                     IOCB            equ	150	;# 
   680     0097                     VRCON           equ	151	;# 
   681     0098                     TXSTA           equ	152	;# 
   682     0099                     SPBRG           equ	153	;# 
   683     009A                     SPBRGH          equ	154	;# 
   684     009B                     PWM1CON         equ	155	;# 
   685     009C                     ECCPAS          equ	156	;# 
   686     009D                     PSTRCON         equ	157	;# 
   687     009E                     ADRESL          equ	158	;# 
   688     009F                     ADCON1          equ	159	;# 
   689     0105                     WDTCON          equ	261	;# 
   690     0107                     CM1CON0         equ	263	;# 
   691     0108                     CM2CON0         equ	264	;# 
   692     0109                     CM2CON1         equ	265	;# 
   693     010C                     EEDATA          equ	268	;# 
   694     010C                     EEDAT           equ	268	;# 
   695     010D                     EEADR           equ	269	;# 
   696     010E                     EEDATH          equ	270	;# 
   697     010F                     EEADRH          equ	271	;# 
   698     0185                     SRCON           equ	389	;# 
   699     0187                     BAUDCTL         equ	391	;# 
   700     0188                     ANSEL           equ	392	;# 
   701     0189                     ANSELH          equ	393	;# 
   702     018C                     EECON1          equ	396	;# 
   703     018D                     EECON2          equ	397	;# 
   704     0000                     INDF            equ	0	;# 
   705     0001                     TMR0            equ	1	;# 
   706     0002                     PCL             equ	2	;# 
   707     0003                     STATUS          equ	3	;# 
   708     0004                     FSR             equ	4	;# 
   709     0005                     PORTA           equ	5	;# 
   710     0006                     PORTB           equ	6	;# 
   711     0007                     PORTC           equ	7	;# 
   712     0009                     PORTE           equ	9	;# 
   713     000A                     PCLATH          equ	10	;# 
   714     000B                     INTCON          equ	11	;# 
   715     000C                     PIR1            equ	12	;# 
   716     000D                     PIR2            equ	13	;# 
   717     000E                     TMR1            equ	14	;# 
   718     000E                     TMR1L           equ	14	;# 
   719     000F                     TMR1H           equ	15	;# 
   720     0010                     T1CON           equ	16	;# 
   721     0011                     TMR2            equ	17	;# 
   722     0012                     T2CON           equ	18	;# 
   723     0013                     SSPBUF          equ	19	;# 
   724     0014                     SSPCON          equ	20	;# 
   725     0015                     CCPR1           equ	21	;# 
   726     0015                     CCPR1L          equ	21	;# 
   727     0016                     CCPR1H          equ	22	;# 
   728     0017                     CCP1CON         equ	23	;# 
   729     0018                     RCSTA           equ	24	;# 
   730     0019                     TXREG           equ	25	;# 
   731     001A                     RCREG           equ	26	;# 
   732     001B                     CCPR2           equ	27	;# 
   733     001B                     CCPR2L          equ	27	;# 
   734     001C                     CCPR2H          equ	28	;# 
   735     001D                     CCP2CON         equ	29	;# 
   736     001E                     ADRESH          equ	30	;# 
   737     001F                     ADCON0          equ	31	;# 
   738     0081                     OPTION_REG      equ	129	;# 
   739     0085                     TRISA           equ	133	;# 
   740     0086                     TRISB           equ	134	;# 
   741     0087                     TRISC           equ	135	;# 
   742     0089                     TRISE           equ	137	;# 
   743     008C                     PIE1            equ	140	;# 
   744     008D                     PIE2            equ	141	;# 
   745     008E                     PCON            equ	142	;# 
   746     008F                     OSCCON          equ	143	;# 
   747     0090                     OSCTUNE         equ	144	;# 
   748     0091                     SSPCON2         equ	145	;# 
   749     0092                     PR2             equ	146	;# 
   750     0093                     SSPADD          equ	147	;# 
   751     0093                     SSPMSK          equ	147	;# 
   752     0093                     MSK             equ	147	;# 
   753     0094                     SSPSTAT         equ	148	;# 
   754     0095                     WPUB            equ	149	;# 
   755     0096                     IOCB            equ	150	;# 
   756     0097                     VRCON           equ	151	;# 
   757     0098                     TXSTA           equ	152	;# 
   758     0099                     SPBRG           equ	153	;# 
   759     009A                     SPBRGH          equ	154	;# 
   760     009B                     PWM1CON         equ	155	;# 
   761     009C                     ECCPAS          equ	156	;# 
   762     009D                     PSTRCON         equ	157	;# 
   763     009E                     ADRESL          equ	158	;# 
   764     009F                     ADCON1          equ	159	;# 
   765     0105                     WDTCON          equ	261	;# 
   766     0107                     CM1CON0         equ	263	;# 
   767     0108                     CM2CON0         equ	264	;# 
   768     0109                     CM2CON1         equ	265	;# 
   769     010C                     EEDATA          equ	268	;# 
   770     010C                     EEDAT           equ	268	;# 
   771     010D                     EEADR           equ	269	;# 
   772     010E                     EEDATH          equ	270	;# 
   773     010F                     EEADRH          equ	271	;# 
   774     0185                     SRCON           equ	389	;# 
   775     0187                     BAUDCTL         equ	391	;# 
   776     0188                     ANSEL           equ	392	;# 
   777     0189                     ANSELH          equ	393	;# 
   778     018C                     EECON1          equ	396	;# 
   779     018D                     EECON2          equ	397	;# 
   780                           
   781                           	psect	stringtext
   782     0100                     __pstringtext:
   783     0100                     stringtab:
   784     0100                     __stringtab:
   785                           
   786                           ;	String table - string pointers are 2 bytes each
   787     0100  1BFF               	btfsc	btemp+1,7
   788     0101  290A               	ljmp	stringcode
   789     0102  1383               	bcf	3,7
   790     0103  187F               	btfsc	btemp+1,0
   791     0104  1783               	bsf	3,7
   792     0105  0800               	movf	0,w
   793     0106  0A84               	incf	4,f
   794     0107  1903               	skipnz
   795     0108  0AFF               	incf	btemp+1,f
   796     0109  0008               	return
   797     010A                     stringcode:
   798     010A  087F               	movf	btemp+1,w
   799     010B  397F               	andlw	127
   800     010C  008A               	movwf	10
   801     010D  0804               	movf	4,w
   802     010E  0A84               	incf	4,f
   803     010F  1903               	skipnz
   804     0110  0AFF               	incf	btemp+1,f
   805     0111  0082               	movwf	2
   806     0112                     __stringbase:
   807     0112                     __end_of__stringtab:
   808     0112                     ReadVoltageAverage@vref:
   809     0112  34C4               	retlw	196
   810     0113  3409               	retlw	9
   811     0114  3400               	retlw	0
   812     0115  3400               	retlw	0
   813     0116                     __end_ofReadVoltageAverage@vref:
   814     0116                     _INA226_POWER_LSB_FACTOR:
   815     0116  3419               	retlw	25
   816     0117  3400               	retlw	0
   817     0118  3400               	retlw	0
   818     0119  3400               	retlw	0
   819     011A                     __end_of_INA226_POWER_LSB_FACTOR:
   820     011A                     _INA226_BUS_VOLTAGE_LSB:
   821     011A  34CF               	retlw	207
   822     011B  3404               	retlw	4
   823     011C  3400               	retlw	0
   824     011D  3400               	retlw	0
   825     011E                     __end_of_INA226_BUS_VOLTAGE_LSB:
   826     011E                     _cMaxConvTimeTblIdx:
   827     011E  3407               	retlw	7
   828     011F  3400               	retlw	0
   829     0120                     __end_of_cMaxConvTimeTblIdx:
   830     0120                     _cMaxSampleAvgTblIdx:
   831     0120  3407               	retlw	7
   832     0121  3400               	retlw	0
   833     0122                     __end_of_cMaxSampleAvgTblIdx:
   834     0122                     _cShuntVoltConvTimeIdxShift:
   835     0122  3403               	retlw	3
   836     0123  3400               	retlw	0
   837     0124                     __end_of_cShuntVoltConvTimeIdxShift:
   838     0124                     _cBusVoltConvTimeIdxShift:
   839     0124  3406               	retlw	6
   840     0125  3400               	retlw	0
   841     0126                     __end_of_cBusVoltConvTimeIdxShift:
   842     0126                     _cSampleAvgIdxShift:
   843     0126  3409               	retlw	9
   844     0127  3400               	retlw	0
   845     0128                     __end_of_cSampleAvgIdxShift:
   846     0128                     _cShuntVoltageConvTimeMask:
   847     0128  3438               	retlw	56
   848     0129  3400               	retlw	0
   849     012A                     __end_of_cShuntVoltageConvTimeMask:
   850     012A                     _cBusVoltageConvTimeMask:
   851     012A  34C0               	retlw	192
   852     012B  3401               	retlw	1
   853     012C                     __end_of_cBusVoltageConvTimeMask:
   854     012C                     _cSampleAvgMask:
   855     012C  3400               	retlw	0
   856     012D  340E               	retlw	14
   857     012E                     __end_of_cSampleAvgMask:
   858     012E                     _cAlertLatchingMode:
   859     012E  3401               	retlw	1
   860     012F  3400               	retlw	0
   861     0130                     __end_of_cAlertLatchingMode:
   862     0130                     _cAlertCauseMask:
   863     0130  341E               	retlw	30
   864     0131  3400               	retlw	0
   865     0132                     __end_of_cAlertCauseMask:
   866     0132                     _cAlertPinModeMask:
   867     0132  3400               	retlw	0
   868     0133  34FC               	retlw	252
   869     0134                     __end_of_cAlertPinModeMask:
   870     0134                     _cOperatingModeMask:
   871     0134  3407               	retlw	7
   872     0135  3400               	retlw	0
   873     0136                     __end_of_cOperatingModeMask:
   874     0136                     _cResetCommand:
   875     0136  3400               	retlw	0
   876     0137  3480               	retlw	128
   877     0138                     __end_of_cResetCommand:
   878     0138                     _INA226_CONFIG_DEFAULT:
   879     0138  3427               	retlw	39
   880     0139  3445               	retlw	69
   881     013A                     __end_of_INA226_CONFIG_DEFAULT:
   882     013A                     _INA226_DIE_ID_K:
   883     013A  3460               	retlw	96
   884     013B  3422               	retlw	34
   885     013C                     __end_of_INA226_DIE_ID_K:
   886     013C                     _INA226_MANUFACTURER_ID_K:
   887     013C  3449               	retlw	73
   888     013D  3454               	retlw	84
   889     013E                     __end_of_INA226_MANUFACTURER_ID_K:
   890     013E                     _INA226_I2C_TIMEOUT@ina226$F815:
   891     013E  34E8               	retlw	232
   892     013F  3403               	retlw	3
   893     0140                     __end_of_INA226_I2C_TIMEOUT@ina226$F815:
   894     0140                     _INA226_I2C_TIMEOUT:
   895     0140  34E8               	retlw	232
   896     0141  3403               	retlw	3
   897     0142                     __end_of_INA226_I2C_TIMEOUT:
   898     0142                     ReadVoltageAverage@num_samples:
   899     0142  3414               	retlw	20
   900     0143                     __end_ofReadVoltageAverage@num_samples:
   901     0143                     _INA226_DIE_ID:
   902     0143  34FF               	retlw	255
   903     0144                     __end_of_INA226_DIE_ID:
   904     0144                     _INA226_MANUFACTURER_ID:
   905     0144  34FE               	retlw	254
   906     0145                     __end_of_INA226_MANUFACTURER_ID:
   907     0145                     _INA226_ALERT_LIMIT:
   908     0145  3407               	retlw	7
   909     0146                     __end_of_INA226_ALERT_LIMIT:
   910     0146                     _INA226_MASK_ENABLE:
   911     0146  3406               	retlw	6
   912     0147                     __end_of_INA226_MASK_ENABLE:
   913     0147                     _INA226_CALIBRATION:
   914     0147  3405               	retlw	5
   915     0148                     __end_of_INA226_CALIBRATION:
   916     0148                     _INA226_CURRENT:
   917     0148  3404               	retlw	4
   918     0149                     __end_of_INA226_CURRENT:
   919     0149                     _INA226_POWER:
   920     0149  3403               	retlw	3
   921     014A                     __end_of_INA226_POWER:
   922     014A                     _INA226_BUS_VOLTAGE:
   923     014A  3402               	retlw	2
   924     014B                     __end_of_INA226_BUS_VOLTAGE:
   925     014B                     _INA226_SHUNT_VOLTAGE:
   926     014B  3401               	retlw	1
   927     014C                     __end_of_INA226_SHUNT_VOLTAGE:
   928     014C                     _INA226_CONFIG:
   929     014C  3400               	retlw	0
   930     014D                     __end_of_INA226_CONFIG:
   931     014D                     _INA226_DEFAULT_I2C_ADDRESS@ina226$F814:
   932     014D  3440               	retlw	64
   933     014E                     __end_of_INA226_DEFAULT_I2C_ADDRESS@ina226$F814:
   934     014E                     _INA226_DEFAULT_I2C_ADDRESS:
   935     014E  3440               	retlw	64
   936     014F                     __end_of_INA226_DEFAULT_I2C_ADDRESS:
   937     001E                     _ADRESH         set	30
   938     001F                     _ADCON0bits     set	31
   939     0019                     _TXREG          set	25
   940     0018                     _RCSTAbits      set	24
   941     0013                     _SSPBUF         set	19
   942     0014                     _SSPCONbits     set	20
   943     0010                     _T1CONbits      set	16
   944     000B                     _INTCONbits     set	11
   945     0005                     _PORTAbits      set	5
   946     0007                     _PORTCbits      set	7
   947     0006                     _PORTBbits      set	6
   948     005A                     _TMR0IF         set	90
   949     005D                     _TMR0IE         set	93
   950     009E                     _ADRESL         set	158
   951     009F                     _ADCON1bits     set	159
   952     0099                     _SPBRG          set	153
   953     0098                     _TXSTAbits      set	152
   954     0091                     _SSPCON2bits    set	145
   955     0094                     _SSPSTATbits    set	148
   956     0091                     _SSPCON2        set	145
   957     0093                     _SSPADD         set	147
   958     0081                     _OPTION_REGbits set	129
   959     008F                     _OSCCONbits     set	143
   960     048E                     _ACKSTAT        set	1166
   961     04C1                     _TRMT           set	1217
   962     048C                     _ACKEN          set	1164
   963     048D                     _ACKDT          set	1165
   964     048B                     _RCEN           set	1163
   965     0437                     _TRISB7         set	1079
   966     0436                     _TRISB6         set	1078
   967     0435                     _TRISB5         set	1077
   968     0434                     _TRISB4         set	1076
   969     0433                     _TRISB3         set	1075
   970     0432                     _TRISB2         set	1074
   971     0431                     _TRISB1         set	1073
   972     0430                     _TRISB0         set	1072
   973     042F                     _TRISA7         set	1071
   974     042E                     _TRISA6         set	1070
   975     042D                     _TRISA5         set	1069
   976     042C                     _TRISA4         set	1068
   977     042B                     _TRISA3         set	1067
   978     042A                     _TRISA2         set	1066
   979     0429                     _TRISA1         set	1065
   980     0428                     _TRISA0         set	1064
   981     043F                     _TRISC7         set	1087
   982     043E                     _TRISC6         set	1086
   983     043D                     _TRISC5         set	1085
   984     043C                     _TRISC4         set	1084
   985     043B                     _TRISC3         set	1083
   986     043A                     _TRISC2         set	1082
   987     0439                     _TRISC1         set	1081
   988     0438                     _TRISC0         set	1080
   989     0189                     _ANSELH         set	393
   990     0188                     _ANSEL          set	392
   991     014F                     STR_18:
   992     014F  3431               	retlw	49	;'1'
   993     0150  3432               	retlw	50	;'2'
   994     0151  3456               	retlw	86	;'V'
   995     0152  3420               	retlw	32	;' '
   996     0153  3442               	retlw	66	;'B'
   997     0154  3461               	retlw	97	;'a'
   998     0155  3474               	retlw	116	;'t'
   999     0156  3474               	retlw	116	;'t'
  1000     0157  3420               	retlw	32	;' '
  1001     0158  3476               	retlw	118	;'v'
  1002     0159  346F               	retlw	111	;'o'
  1003     015A  346C               	retlw	108	;'l'
  1004     015B  3474               	retlw	116	;'t'
  1005     015C  3461               	retlw	97	;'a'
  1006     015D  3467               	retlw	103	;'g'
  1007     015E  3465               	retlw	101	;'e'
  1008     015F  3420               	retlw	32	;' '
  1009     0160  3420               	retlw	32	;' '
  1010     0161  3456               	retlw	86	;'V'
  1011     0162  346F               	retlw	111	;'o'
  1012     0163  346C               	retlw	108	;'l'
  1013     0164  3474               	retlw	116	;'t'
  1014     0165  3461               	retlw	97	;'a'
  1015     0166  3467               	retlw	103	;'g'
  1016     0167  3465               	retlw	101	;'e'
  1017     0168  343A               	retlw	58	;':'
  1018     0169  3420               	retlw	32	;' '
  1019     016A  3425               	retlw	37	;'%'
  1020     016B  3464               	retlw	100	;'d'
  1021     016C  342E               	retlw	46	;'.'
  1022     016D  3425               	retlw	37	;'%'
  1023     016E  3464               	retlw	100	;'d'
  1024     016F  3456               	retlw	86	;'V'
  1025     0170  3420               	retlw	32	;' '
  1026     0171  340D               	retlw	13
  1027     0172  340A               	retlw	10
  1028     0173  3400               	retlw	0
  1029     0174                     STR_2:
  1030     0174  3432               	retlw	50	;'2'
  1031     0175  3434               	retlw	52	;'4'
  1032     0176  3456               	retlw	86	;'V'
  1033     0177  3420               	retlw	32	;' '
  1034     0178  3464               	retlw	100	;'d'
  1035     0179  3469               	retlw	105	;'i'
  1036     017A  3466               	retlw	102	;'f'
  1037     017B  3466               	retlw	102	;'f'
  1038     017C  3420               	retlw	32	;' '
  1039     017D  3476               	retlw	118	;'v'
  1040     017E  346F               	retlw	111	;'o'
  1041     017F  346C               	retlw	108	;'l'
  1042     0180  3474               	retlw	116	;'t'
  1043     0181  3461               	retlw	97	;'a'
  1044     0182  3467               	retlw	103	;'g'
  1045     0183  3465               	retlw	101	;'e'
  1046     0184  3420               	retlw	32	;' '
  1047     0185  3420               	retlw	32	;' '
  1048     0186  3456               	retlw	86	;'V'
  1049     0187  346F               	retlw	111	;'o'
  1050     0188  346C               	retlw	108	;'l'
  1051     0189  3474               	retlw	116	;'t'
  1052     018A  3461               	retlw	97	;'a'
  1053     018B  3467               	retlw	103	;'g'
  1054     018C  3465               	retlw	101	;'e'
  1055     018D  343A               	retlw	58	;':'
  1056     018E  3420               	retlw	32	;' '
  1057     018F  3425               	retlw	37	;'%'
  1058     0190  3464               	retlw	100	;'d'
  1059     0191  342E               	retlw	46	;'.'
  1060     0192  3425               	retlw	37	;'%'
  1061     0193  3464               	retlw	100	;'d'
  1062     0194  3456               	retlw	86	;'V'
  1063     0195  3420               	retlw	32	;' '
  1064     0196  340D               	retlw	13
  1065     0197  340A               	retlw	10
  1066     0198  3400               	retlw	0
  1067     0199                     STR_1:
  1068     0199  3432               	retlw	50	;'2'
  1069     019A  3434               	retlw	52	;'4'
  1070     019B  3456               	retlw	86	;'V'
  1071     019C  3420               	retlw	32	;' '
  1072     019D  3464               	retlw	100	;'d'
  1073     019E  3469               	retlw	105	;'i'
  1074     019F  3466               	retlw	102	;'f'
  1075     01A0  3466               	retlw	102	;'f'
  1076     01A1  3420               	retlw	32	;' '
  1077     01A2  3442               	retlw	66	;'B'
  1078     01A3  3461               	retlw	97	;'a'
  1079     01A4  3474               	retlw	116	;'t'
  1080     01A5  3474               	retlw	116	;'t'
  1081     01A6  3420               	retlw	32	;' '
  1082     01A7  3456               	retlw	86	;'V'
  1083     01A8  346F               	retlw	111	;'o'
  1084     01A9  346C               	retlw	108	;'l'
  1085     01AA  3474               	retlw	116	;'t'
  1086     01AB  3461               	retlw	97	;'a'
  1087     01AC  3467               	retlw	103	;'g'
  1088     01AD  3465               	retlw	101	;'e'
  1089     01AE  343A               	retlw	58	;':'
  1090     01AF  3420               	retlw	32	;' '
  1091     01B0  3425               	retlw	37	;'%'
  1092     01B1  3464               	retlw	100	;'d'
  1093     01B2  342E               	retlw	46	;'.'
  1094     01B3  3430               	retlw	48	;'0'
  1095     01B4  3425               	retlw	37	;'%'
  1096     01B5  3464               	retlw	100	;'d'
  1097     01B6  3456               	retlw	86	;'V'
  1098     01B7  3420               	retlw	32	;' '
  1099     01B8  340D               	retlw	13
  1100     01B9  340A               	retlw	10
  1101     01BA  3400               	retlw	0
  1102     01BB                     STR_17:
  1103     01BB  3431               	retlw	49	;'1'
  1104     01BC  3432               	retlw	50	;'2'
  1105     01BD  3456               	retlw	86	;'V'
  1106     01BE  3420               	retlw	32	;' '
  1107     01BF  3442               	retlw	66	;'B'
  1108     01C0  3461               	retlw	97	;'a'
  1109     01C1  3474               	retlw	116	;'t'
  1110     01C2  3474               	retlw	116	;'t'
  1111     01C3  3420               	retlw	32	;' '
  1112     01C4  3456               	retlw	86	;'V'
  1113     01C5  346F               	retlw	111	;'o'
  1114     01C6  346C               	retlw	108	;'l'
  1115     01C7  3474               	retlw	116	;'t'
  1116     01C8  3461               	retlw	97	;'a'
  1117     01C9  3467               	retlw	103	;'g'
  1118     01CA  3465               	retlw	101	;'e'
  1119     01CB  343A               	retlw	58	;':'
  1120     01CC  3420               	retlw	32	;' '
  1121     01CD  3425               	retlw	37	;'%'
  1122     01CE  3464               	retlw	100	;'d'
  1123     01CF  342E               	retlw	46	;'.'
  1124     01D0  3430               	retlw	48	;'0'
  1125     01D1  3425               	retlw	37	;'%'
  1126     01D2  3464               	retlw	100	;'d'
  1127     01D3  3456               	retlw	86	;'V'
  1128     01D4  3420               	retlw	32	;' '
  1129     01D5  340D               	retlw	13
  1130     01D6  340A               	retlw	10
  1131     01D7  3400               	retlw	0
  1132     01D8                     STR_10:
  1133     01D8  3449               	retlw	73	;'I'
  1134     01D9  344E               	retlw	78	;'N'
  1135     01DA  3441               	retlw	65	;'A'
  1136     01DB  3432               	retlw	50	;'2'
  1137     01DC  3432               	retlw	50	;'2'
  1138     01DD  3436               	retlw	54	;'6'
  1139     01DE  345F               	retlw	95	;'_'
  1140     01DF  3444               	retlw	68	;'D'
  1141     01E0  3449               	retlw	73	;'I'
  1142     01E1  3445               	retlw	69	;'E'
  1143     01E2  345F               	retlw	95	;'_'
  1144     01E3  3449               	retlw	73	;'I'
  1145     01E4  3444               	retlw	68	;'D'
  1146     01E5  345F               	retlw	95	;'_'
  1147     01E6  344D               	retlw	77	;'M'
  1148     01E7  3449               	retlw	73	;'I'
  1149     01E8  3453               	retlw	83	;'S'
  1150     01E9  344D               	retlw	77	;'M'
  1151     01EA  3441               	retlw	65	;'A'
  1152     01EB  3454               	retlw	84	;'T'
  1153     01EC  3443               	retlw	67	;'C'
  1154     01ED  3448               	retlw	72	;'H'
  1155     01EE  3420               	retlw	32	;' '
  1156     01EF  340D               	retlw	13
  1157     01F0  340A               	retlw	10
  1158     01F1  3400               	retlw	0
  1159     01F2                     STR_12:
  1160     01F2  3449               	retlw	73	;'I'
  1161     01F3  3432               	retlw	50	;'2'
  1162     01F4  3443               	retlw	67	;'C'
  1163     01F5  345F               	retlw	95	;'_'
  1164     01F6  3454               	retlw	84	;'T'
  1165     01F7  3452               	retlw	82	;'R'
  1166     01F8  3441               	retlw	65	;'A'
  1167     01F9  344E               	retlw	78	;'N'
  1168     01FA  3453               	retlw	83	;'S'
  1169     01FB  344D               	retlw	77	;'M'
  1170     01FC  3449               	retlw	73	;'I'
  1171     01FD  3453               	retlw	83	;'S'
  1172     01FE  3453               	retlw	83	;'S'
  1173     01FF  3449               	retlw	73	;'I'
  1174     0200  344F               	retlw	79	;'O'
  1175     0201  344E               	retlw	78	;'N'
  1176     0202  345F               	retlw	95	;'_'
  1177     0203  3445               	retlw	69	;'E'
  1178     0204  3452               	retlw	82	;'R'
  1179     0205  3452               	retlw	82	;'R'
  1180     0206  344F               	retlw	79	;'O'
  1181     0207  3452               	retlw	82	;'R'
  1182     0208  3420               	retlw	32	;' '
  1183     0209  340D               	retlw	13
  1184     020A  340A               	retlw	10
  1185     020B  3400               	retlw	0
  1186     020C                     STR_9:
  1187     020C  3449               	retlw	73	;'I'
  1188     020D  344E               	retlw	78	;'N'
  1189     020E  3441               	retlw	65	;'A'
  1190     020F  3432               	retlw	50	;'2'
  1191     0210  3432               	retlw	50	;'2'
  1192     0211  3436               	retlw	54	;'6'
  1193     0212  345F               	retlw	95	;'_'
  1194     0213  3454               	retlw	84	;'T'
  1195     0214  3449               	retlw	73	;'I'
  1196     0215  345F               	retlw	95	;'_'
  1197     0216  3449               	retlw	73	;'I'
  1198     0217  3444               	retlw	68	;'D'
  1199     0218  345F               	retlw	95	;'_'
  1200     0219  344D               	retlw	77	;'M'
  1201     021A  3449               	retlw	73	;'I'
  1202     021B  3453               	retlw	83	;'S'
  1203     021C  344D               	retlw	77	;'M'
  1204     021D  3441               	retlw	65	;'A'
  1205     021E  3454               	retlw	84	;'T'
  1206     021F  3443               	retlw	67	;'C'
  1207     0220  3448               	retlw	72	;'H'
  1208     0221  3420               	retlw	32	;' '
  1209     0222  340D               	retlw	13
  1210     0223  340A               	retlw	10
  1211     0224  3400               	retlw	0
  1212     0225                     STR_15:
  1213     0225  3449               	retlw	73	;'I'
  1214     0226  344E               	retlw	78	;'N'
  1215     0227  3456               	retlw	86	;'V'
  1216     0228  3441               	retlw	65	;'A'
  1217     0229  344C               	retlw	76	;'L'
  1218     022A  3449               	retlw	73	;'I'
  1219     022B  3444               	retlw	68	;'D'
  1220     022C  345F               	retlw	95	;'_'
  1221     022D  3449               	retlw	73	;'I'
  1222     022E  3432               	retlw	50	;'2'
  1223     022F  3443               	retlw	67	;'C'
  1224     0230  345F               	retlw	95	;'_'
  1225     0231  3441               	retlw	65	;'A'
  1226     0232  3444               	retlw	68	;'D'
  1227     0233  3444               	retlw	68	;'D'
  1228     0234  3452               	retlw	82	;'R'
  1229     0235  3445               	retlw	69	;'E'
  1230     0236  3453               	retlw	83	;'S'
  1231     0237  3453               	retlw	83	;'S'
  1232     0238  3420               	retlw	32	;' '
  1233     0239  340D               	retlw	13
  1234     023A  340A               	retlw	10
  1235     023B  3400               	retlw	0
  1236     023C                     STR_14:
  1237     023C  344E               	retlw	78	;'N'
  1238     023D  344F               	retlw	79	;'O'
  1239     023E  3454               	retlw	84	;'T'
  1240     023F  345F               	retlw	95	;'_'
  1241     0240  3449               	retlw	73	;'I'
  1242     0241  344E               	retlw	78	;'N'
  1243     0242  3449               	retlw	73	;'I'
  1244     0243  3454               	retlw	84	;'T'
  1245     0244  3449               	retlw	73	;'I'
  1246     0245  3441               	retlw	65	;'A'
  1247     0246  344C               	retlw	76	;'L'
  1248     0247  3449               	retlw	73	;'I'
  1249     0248  345A               	retlw	90	;'Z'
  1250     0249  3445               	retlw	69	;'E'
  1251     024A  3444               	retlw	68	;'D'
  1252     024B  3420               	retlw	32	;' '
  1253     024C  340D               	retlw	13
  1254     024D  340A               	retlw	10
  1255     024E  3400               	retlw	0
  1256     024F                     STR_4:
  1257     024F  3462               	retlw	98	;'b'
  1258     0250  3461               	retlw	97	;'a'
  1259     0251  346C               	retlw	108	;'l'
  1260     0252  3461               	retlw	97	;'a'
  1261     0253  346E               	retlw	110	;'n'
  1262     0254  3463               	retlw	99	;'c'
  1263     0255  3465               	retlw	101	;'e'
  1264     0256  3420               	retlw	32	;' '
  1265     0257  346F               	retlw	111	;'o'
  1266     0258  3466               	retlw	102	;'f'
  1267     0259  3466               	retlw	102	;'f'
  1268     025A  3420               	retlw	32	;' '
  1269     025B  3431               	retlw	49	;'1'
  1270     025C  3432               	retlw	50	;'2'
  1271     025D  3476               	retlw	118	;'v'
  1272     025E  3420               	retlw	32	;' '
  1273     025F  340A               	retlw	10
  1274     0260  340D               	retlw	13
  1275     0261  3400               	retlw	0
  1276     0262                     STR_6:
  1277     0262  3462               	retlw	98	;'b'
  1278     0263  3461               	retlw	97	;'a'
  1279     0264  346C               	retlw	108	;'l'
  1280     0265  3461               	retlw	97	;'a'
  1281     0266  346E               	retlw	110	;'n'
  1282     0267  3463               	retlw	99	;'c'
  1283     0268  3465               	retlw	101	;'e'
  1284     0269  3420               	retlw	32	;' '
  1285     026A  346F               	retlw	111	;'o'
  1286     026B  3466               	retlw	102	;'f'
  1287     026C  3466               	retlw	102	;'f'
  1288     026D  3420               	retlw	32	;' '
  1289     026E  3432               	retlw	50	;'2'
  1290     026F  3434               	retlw	52	;'4'
  1291     0270  3476               	retlw	118	;'v'
  1292     0271  3420               	retlw	32	;' '
  1293     0272  340A               	retlw	10
  1294     0273  340D               	retlw	13
  1295     0274  3400               	retlw	0
  1296     0275                     STR_3:
  1297     0275  3462               	retlw	98	;'b'
  1298     0276  3461               	retlw	97	;'a'
  1299     0277  346C               	retlw	108	;'l'
  1300     0278  3461               	retlw	97	;'a'
  1301     0279  346E               	retlw	110	;'n'
  1302     027A  3463               	retlw	99	;'c'
  1303     027B  3465               	retlw	101	;'e'
  1304     027C  3420               	retlw	32	;' '
  1305     027D  346F               	retlw	111	;'o'
  1306     027E  346E               	retlw	110	;'n'
  1307     027F  3420               	retlw	32	;' '
  1308     0280  3431               	retlw	49	;'1'
  1309     0281  3432               	retlw	50	;'2'
  1310     0282  3476               	retlw	118	;'v'
  1311     0283  3420               	retlw	32	;' '
  1312     0284  340A               	retlw	10
  1313     0285  340D               	retlw	13
  1314     0286  3400               	retlw	0
  1315     0287                     STR_5:
  1316     0287  3462               	retlw	98	;'b'
  1317     0288  3461               	retlw	97	;'a'
  1318     0289  346C               	retlw	108	;'l'
  1319     028A  3461               	retlw	97	;'a'
  1320     028B  346E               	retlw	110	;'n'
  1321     028C  3463               	retlw	99	;'c'
  1322     028D  3465               	retlw	101	;'e'
  1323     028E  3420               	retlw	32	;' '
  1324     028F  346F               	retlw	111	;'o'
  1325     0290  346E               	retlw	110	;'n'
  1326     0291  3420               	retlw	32	;' '
  1327     0292  3432               	retlw	50	;'2'
  1328     0293  3434               	retlw	52	;'4'
  1329     0294  3476               	retlw	118	;'v'
  1330     0295  3420               	retlw	32	;' '
  1331     0296  340A               	retlw	10
  1332     0297  340D               	retlw	13
  1333     0298  3400               	retlw	0
  1334     0299                     STR_13:
  1335     0299  3442               	retlw	66	;'B'
  1336     029A  3441               	retlw	65	;'A'
  1337     029B  3444               	retlw	68	;'D'
  1338     029C  345F               	retlw	95	;'_'
  1339     029D  3450               	retlw	80	;'P'
  1340     029E  3441               	retlw	65	;'A'
  1341     029F  3452               	retlw	82	;'R'
  1342     02A0  3441               	retlw	65	;'A'
  1343     02A1  344D               	retlw	77	;'M'
  1344     02A2  3445               	retlw	69	;'E'
  1345     02A3  3454               	retlw	84	;'T'
  1346     02A4  3445               	retlw	69	;'E'
  1347     02A5  3452               	retlw	82	;'R'
  1348     02A6  3420               	retlw	32	;' '
  1349     02A7  340D               	retlw	13
  1350     02A8  340A               	retlw	10
  1351     02A9  3400               	retlw	0
  1352     02AA                     STR_16:
  1353     02AA  3455               	retlw	85	;'U'
  1354     02AB  344E               	retlw	78	;'N'
  1355     02AC  344B               	retlw	75	;'K'
  1356     02AD  344E               	retlw	78	;'N'
  1357     02AE  344F               	retlw	79	;'O'
  1358     02AF  3457               	retlw	87	;'W'
  1359     02B0  344E               	retlw	78	;'N'
  1360     02B1  345F               	retlw	95	;'_'
  1361     02B2  3445               	retlw	69	;'E'
  1362     02B3  3452               	retlw	82	;'R'
  1363     02B4  3452               	retlw	82	;'R'
  1364     02B5  344F               	retlw	79	;'O'
  1365     02B6  3452               	retlw	82	;'R'
  1366     02B7  3420               	retlw	32	;' '
  1367     02B8  340D               	retlw	13
  1368     02B9  340A               	retlw	10
  1369     02BA  3400               	retlw	0
  1370     02BB                     STR_11:
  1371     02BB  3443               	retlw	67	;'C'
  1372     02BC  344F               	retlw	79	;'O'
  1373     02BD  344E               	retlw	78	;'N'
  1374     02BE  3446               	retlw	70	;'F'
  1375     02BF  3449               	retlw	73	;'I'
  1376     02C0  3447               	retlw	71	;'G'
  1377     02C1  345F               	retlw	95	;'_'
  1378     02C2  3445               	retlw	69	;'E'
  1379     02C3  3452               	retlw	82	;'R'
  1380     02C4  3452               	retlw	82	;'R'
  1381     02C5  344F               	retlw	79	;'O'
  1382     02C6  3452               	retlw	82	;'R'
  1383     02C7  3420               	retlw	32	;' '
  1384     02C8  340D               	retlw	13
  1385     02C9  340A               	retlw	10
  1386     02CA  3400               	retlw	0
  1387     02CB                     STR_8:
  1388     02CB  3446               	retlw	70	;'F'
  1389     02CC  3441               	retlw	65	;'A'
  1390     02CD  3449               	retlw	73	;'I'
  1391     02CE  344C               	retlw	76	;'L'
  1392     02CF  3420               	retlw	32	;' '
  1393     02D0  340D               	retlw	13
  1394     02D1  340A               	retlw	10
  1395     02D2  3400               	retlw	0
  1396     02D3                     STR_7:
  1397     02D3  344F               	retlw	79	;'O'
  1398     02D4  344B               	retlw	75	;'K'
  1399     02D5  3420               	retlw	32	;' '
  1400     02D6  340D               	retlw	13
  1401     02D7  340A               	retlw	10
  1402     02D8  3400               	retlw	0
  1403                           
  1404                           	psect	cinit
  1405     000F                     start_initialization:	
  1406                           ; #config settings
  1407                           
  1408     000F                     __initialization:
  1409                           
  1410                           ; Clear objects allocated to COMMON
  1411     000F  01FA               	clrf	__pbssCOMMON& (0+127)
  1412     0010  01FB               	clrf	(__pbssCOMMON+1)& (0+127)
  1413                           
  1414                           ; Clear objects allocated to BANK0
  1415     0011  1283               	bcf	3,5	;RP0=0, select bank0
  1416     0012  1303               	bcf	3,6	;RP1=0, select bank0
  1417     0013  01E4               	clrf	__pbssBANK0& (0+127)
  1418     0014  01E5               	clrf	(__pbssBANK0+1)& (0+127)
  1419     0015  01E6               	clrf	(__pbssBANK0+2)& (0+127)
  1420     0016  01E7               	clrf	(__pbssBANK0+3)& (0+127)
  1421     0017  01E8               	clrf	(__pbssBANK0+4)& (0+127)
  1422     0018  01E9               	clrf	(__pbssBANK0+5)& (0+127)
  1423     0019  01EA               	clrf	(__pbssBANK0+6)& (0+127)
  1424                           
  1425                           ; Clear objects allocated to BANK1
  1426     001A  1383               	bcf	3,7	;select IRP bank0
  1427     001B  30A0               	movlw	low __pbssBANK1
  1428     001C  0084               	movwf	4
  1429     001D  30C0               	movlw	low (__pbssBANK1+32)
  1430     001E  120A  118A  27F8  120A  118A  	fcall	clear_ram0
  1431     0023                     end_of_initialization:	
  1432                           ;End of C runtime variable initialization code
  1433                           
  1434     0023                     __end_of__initialization:
  1435     0023  0183               	clrf	3
  1436     0024  120A  118A  2AD9   	ljmp	_main	;jump to C main() function
  1437                           
  1438                           	psect	bssCOMMON
  1439     007A                     __pbssCOMMON:
  1440     007A                     _g_timer_led_blink:
  1441     007A                     	ds	2
  1442                           
  1443                           	psect	bssBANK0
  1444     0064                     __pbssBANK0:
  1445     0064                     _width:
  1446     0064                     	ds	2
  1447     0066                     _prec:
  1448     0066                     	ds	2
  1449     0068                     _g_flag:
  1450     0068                     	ds	2
  1451     006A                     _flags:
  1452     006A                     	ds	1
  1453                           
  1454                           	psect	bssBANK1
  1455     00A0                     __pbssBANK1:
  1456     00A0                     _dbuf:
  1457     00A0                     	ds	32
  1458                           
  1459                           	psect	clrtext
  1460     07F8                     clear_ram0:	
  1461                           ;	Called with FSR containing the base address, and
  1462                           ;	W with the last address+1
  1463                           
  1464     07F8  0064               	clrwdt	;clear the watchdog before getting into this loop
  1465     07F9                     clrloop0:
  1466     07F9  0180               	clrf	0	;clear RAM location pointed to by FSR
  1467     07FA  0A84               	incf	4,f	;increment pointer
  1468     07FB  0604               	xorwf	4,w	;XOR with final address
  1469     07FC  1903               	btfsc	3,2	;have we reached the end yet?
  1470     07FD  3400               	retlw	0	;all done for this memory range, return
  1471     07FE  0604               	xorwf	4,w	;XOR again to restore value
  1472     07FF  2FF9               	goto	clrloop0	;do the next byte
  1473                           
  1474                           	psect	cstackBANK1
  1475     00C0                     __pcstackBANK1:
  1476     00C0                     main@voltage_12V:
  1477                           
  1478                           ; 2 bytes @ 0x0
  1479     00C0                     	ds	2
  1480     00C2                     main@bus_voltage:
  1481                           
  1482                           ; 2 bytes @ 0x2
  1483     00C2                     	ds	2
  1484     00C4                     main@voltage_24V_diff:
  1485                           
  1486                           ; 2 bytes @ 0x4
  1487     00C4                     	ds	2
  1488     00C6                     main@ina226:
  1489                           
  1490                           ; 14 bytes @ 0x6
  1491     00C6                     	ds	14
  1492                           
  1493                           	psect	cstackCOMMON
  1494     0070                     __pcstackCOMMON:
  1495     0070                     ?_Global_Init:
  1496     0070                     ?_Interrupt_Init:	
  1497                           ; 1 bytes @ 0x0
  1498                           
  1499     0070                     ?_I2C_Init:	
  1500                           ; 1 bytes @ 0x0
  1501                           
  1502     0070                     ?_SendErrorStatus:	
  1503                           ; 1 bytes @ 0x0
  1504                           
  1505     0070                     ?_ADC_Init:	
  1506                           ; 1 bytes @ 0x0
  1507                           
  1508     0070                     ?_AutoFox_INA226_CheckI2cAddress:	
  1509                           ; 1 bytes @ 0x0
  1510                           
  1511     0070                     ?_main:	
  1512                           ; 1 bytes @ 0x0
  1513                           
  1514     0070                     ?_ISR:	
  1515                           ; 1 bytes @ 0x0
  1516                           
  1517     0070                     ?_I2C_Master_Wait:	
  1518                           ; 1 bytes @ 0x0
  1519                           
  1520     0070                     ?_I2C_Master_Start:	
  1521                           ; 1 bytes @ 0x0
  1522                           
  1523     0070                     ?_I2C_Master_Stop:	
  1524                           ; 1 bytes @ 0x0
  1525                           
  1526     0070                     ?_I2C_Master_Read:	
  1527                           ; 1 bytes @ 0x0
  1528                           
  1529     0070                     ?_SendUART_debug:	
  1530                           ; 1 bytes @ 0x0
  1531                           
  1532     0070                     ?_putch:	
  1533                           ; 1 bytes @ 0x0
  1534                           
  1535     0070                     ??_ISR:	
  1536                           ; 1 bytes @ 0x0
  1537                           
  1538                           
  1539                           ; 1 bytes @ 0x0
  1540     0070                     	ds	2
  1541     0072                     ?_AutoFox_INA226_Constructor:
  1542     0072                     ?_I2C_Master_Write:	
  1543                           ; 1 bytes @ 0x2
  1544                           
  1545     0072                     ?_ADC_Read_ADC_Result:	
  1546                           ; 1 bytes @ 0x2
  1547                           
  1548     0072                     ?___awdiv:	
  1549                           ; 2 bytes @ 0x2
  1550                           
  1551     0072                     ?___awmod:	
  1552                           ; 2 bytes @ 0x2
  1553                           
  1554     0072                     ?___lwdiv:	
  1555                           ; 2 bytes @ 0x2
  1556                           
  1557     0072                     ?___lwmod:	
  1558                           ; 2 bytes @ 0x2
  1559                           
  1560     0072                     ?___lmul:	
  1561                           ; 2 bytes @ 0x2
  1562                           
  1563     0072                     I2C_Master_Write@data:	
  1564                           ; 4 bytes @ 0x2
  1565                           
  1566     0072                     AutoFox_INA226_Constructor@this:	
  1567                           ; 2 bytes @ 0x2
  1568                           
  1569     0072                     ___awdiv@divisor:	
  1570                           ; 2 bytes @ 0x2
  1571                           
  1572     0072                     ___awmod@divisor:	
  1573                           ; 2 bytes @ 0x2
  1574                           
  1575     0072                     ___lwdiv@divisor:	
  1576                           ; 2 bytes @ 0x2
  1577                           
  1578     0072                     ___lwmod@divisor:	
  1579                           ; 2 bytes @ 0x2
  1580                           
  1581     0072                     ___lmul@multiplier:	
  1582                           ; 2 bytes @ 0x2
  1583                           
  1584     0072                     ??_Global_Init:	
  1585                           ; 4 bytes @ 0x2
  1586                           
  1587     0072                     ??_Interrupt_Init:	
  1588                           ; 1 bytes @ 0x2
  1589                           
  1590     0072                     ??_I2C_Init:	
  1591                           ; 1 bytes @ 0x2
  1592                           
  1593     0072                     ??_ADC_Init:	
  1594                           ; 1 bytes @ 0x2
  1595                           
  1596     0072                     ??_I2C_Master_Wait:	
  1597                           ; 1 bytes @ 0x2
  1598                           
  1599     0072                     ??_I2C_Master_Start:	
  1600                           ; 1 bytes @ 0x2
  1601                           
  1602     0072                     ??_I2C_Master_Stop:	
  1603                           ; 1 bytes @ 0x2
  1604                           
  1605     0072                     ??_I2C_Master_Read:	
  1606                           ; 1 bytes @ 0x2
  1607                           
  1608     0072                     ??_SendUART_debug:	
  1609                           ; 1 bytes @ 0x2
  1610                           
  1611                           
  1612                           ; 1 bytes @ 0x2
  1613     0072                     	ds	1
  1614     0073                     SendUART_debug@data:
  1615                           
  1616                           ; 1 bytes @ 0x3
  1617     0073                     	ds	1
  1618     0074                     ?_AutoFox_INA226_WriteRegister:
  1619     0074                     I2C_Master_Read@ack:	
  1620                           ; 1 bytes @ 0x4
  1621                           
  1622     0074                     SendUART_debug@i:	
  1623                           ; 1 bytes @ 0x4
  1624                           
  1625     0074                     AutoFox_INA226_WriteRegister@this:	
  1626                           ; 1 bytes @ 0x4
  1627                           
  1628     0074                     ADC_Read_ADC_Result@adcResult:	
  1629                           ; 2 bytes @ 0x4
  1630                           
  1631     0074                     ___awdiv@dividend:	
  1632                           ; 2 bytes @ 0x4
  1633                           
  1634     0074                     ___awmod@dividend:	
  1635                           ; 2 bytes @ 0x4
  1636                           
  1637     0074                     ___lwdiv@dividend:	
  1638                           ; 2 bytes @ 0x4
  1639                           
  1640     0074                     ___lwmod@dividend:	
  1641                           ; 2 bytes @ 0x4
  1642                           
  1643     0074                     ??_AutoFox_INA226_Constructor:	
  1644                           ; 2 bytes @ 0x4
  1645                           
  1646     0074                     ??_AutoFox_INA226_CheckI2cAddress:	
  1647                           ; 1 bytes @ 0x4
  1648                           
  1649     0074                     ??_I2C_Master_Write:	
  1650                           ; 1 bytes @ 0x4
  1651                           
  1652     0074                     ??_ADC_Read_ADC_Result:	
  1653                           ; 1 bytes @ 0x4
  1654                           
  1655                           
  1656                           ; 1 bytes @ 0x4
  1657     0074                     	ds	1
  1658     0075                     putch@txData:
  1659     0075                     I2C_Master_Read@data:	
  1660                           ; 1 bytes @ 0x5
  1661                           
  1662     0075                     ??_SendErrorStatus:	
  1663                           ; 2 bytes @ 0x5
  1664                           
  1665     0075                     ??_putch:	
  1666                           ; 1 bytes @ 0x5
  1667                           
  1668                           
  1669                           ; 1 bytes @ 0x5
  1670     0075                     	ds	1
  1671     0076                     ?_fputc:
  1672     0076                     AutoFox_INA226_CheckI2cAddress@aI2C_Address:	
  1673                           ; 2 bytes @ 0x6
  1674                           
  1675     0076                     AutoFox_INA226_WriteRegister@aRegister:	
  1676                           ; 1 bytes @ 0x6
  1677                           
  1678     0076                     ___awdiv@counter:	
  1679                           ; 1 bytes @ 0x6
  1680                           
  1681     0076                     ___awmod@counter:	
  1682                           ; 1 bytes @ 0x6
  1683                           
  1684     0076                     ___lwmod@counter:	
  1685                           ; 1 bytes @ 0x6
  1686                           
  1687     0076                     ___lwdiv@quotient:	
  1688                           ; 1 bytes @ 0x6
  1689                           
  1690     0076                     fputc@c:	
  1691                           ; 2 bytes @ 0x6
  1692                           
  1693     0076                     ___lmul@multiplicand:	
  1694                           ; 2 bytes @ 0x6
  1695                           
  1696     0076                     ??___awdiv:	
  1697                           ; 4 bytes @ 0x6
  1698                           
  1699     0076                     ??___awmod:	
  1700                           ; 1 bytes @ 0x6
  1701                           
  1702     0076                     ??___lwdiv:	
  1703                           ; 1 bytes @ 0x6
  1704                           
  1705     0076                     ??___lwmod:	
  1706                           ; 1 bytes @ 0x6
  1707                           
  1708                           
  1709                           ; 1 bytes @ 0x6
  1710     0076                     	ds	1
  1711     0077                     SendErrorStatus@err:
  1712     0077                     ___awdiv@sign:	
  1713                           ; 1 bytes @ 0x7
  1714                           
  1715     0077                     ___awmod@sign:	
  1716                           ; 1 bytes @ 0x7
  1717                           
  1718     0077                     AutoFox_INA226_WriteRegister@aValue:	
  1719                           ; 1 bytes @ 0x7
  1720                           
  1721                           
  1722                           ; 2 bytes @ 0x7
  1723     0077                     	ds	1
  1724     0078                     ?_abs:
  1725     0078                     ___lwdiv@counter:	
  1726                           ; 2 bytes @ 0x8
  1727                           
  1728     0078                     fputc@fp:	
  1729                           ; 1 bytes @ 0x8
  1730                           
  1731     0078                     SendErrorStatus@errorMsg:	
  1732                           ; 1 bytes @ 0x8
  1733                           
  1734     0078                     ___awdiv@quotient:	
  1735                           ; 2 bytes @ 0x8
  1736                           
  1737     0078                     abs@a:	
  1738                           ; 2 bytes @ 0x8
  1739                           
  1740                           
  1741                           ; 2 bytes @ 0x8
  1742     0078                     	ds	1
  1743     0079                     AutoFox_INA226_ConfigureNumSampleAveraging@s:
  1744                           
  1745                           ; 1 bytes @ 0x9
  1746     0079                     	ds	1
  1747     007A                     ??_AutoFox_INA226_GetBusVoltage_V:
  1748     007A                     ??_DisplayVoltage:	
  1749                           ; 1 bytes @ 0xA
  1750                           
  1751     007A                     ??_printf:	
  1752                           ; 1 bytes @ 0xA
  1753                           
  1754     007A                     ??_vfprintf:	
  1755                           ; 1 bytes @ 0xA
  1756                           
  1757                           
  1758                           	psect	cstackBANK0
  1759     0020                     __pcstackBANK0:	
  1760                           ; 1 bytes @ 0xA
  1761                           
  1762     0020                     ?_AutoFox_INA226_ReadRegister:
  1763     0020                     AutoFox_INA226_ReadRegister@this:	
  1764                           ; 1 bytes @ 0x0
  1765                           
  1766     0020                     ??_AutoFox_INA226_WriteRegister:	
  1767                           ; 2 bytes @ 0x0
  1768                           
  1769     0020                     ??_fputc:	
  1770                           ; 1 bytes @ 0x0
  1771                           
  1772     0020                     ??_abs:	
  1773                           ; 1 bytes @ 0x0
  1774                           
  1775     0020                     ??___lmul:	
  1776                           ; 1 bytes @ 0x0
  1777                           
  1778                           
  1779                           ; 1 bytes @ 0x0
  1780     0020                     	ds	1
  1781     0021                     ___lmul@product:
  1782                           
  1783                           ; 4 bytes @ 0x1
  1784     0021                     	ds	1
  1785     0022                     AutoFox_INA226_ReadRegister@aRegister:
  1786                           
  1787                           ; 1 bytes @ 0x2
  1788     0022                     	ds	1
  1789     0023                     AutoFox_INA226_ReadRegister@aValue_p:
  1790                           
  1791                           ; 2 bytes @ 0x3
  1792     0023                     	ds	1
  1793     0024                     AutoFox_INA226_WriteRegister@buffer:
  1794                           
  1795                           ; 3 bytes @ 0x4
  1796     0024                     	ds	1
  1797     0025                     ?_vfpfcnvrt:
  1798     0025                     ?___lldiv:	
  1799                           ; 1 bytes @ 0x5
  1800                           
  1801     0025                     vfpfcnvrt@fp:	
  1802                           ; 4 bytes @ 0x5
  1803                           
  1804     0025                     ___lldiv@divisor:	
  1805                           ; 1 bytes @ 0x5
  1806                           
  1807     0025                     ??_AutoFox_INA226_ReadRegister:	
  1808                           ; 4 bytes @ 0x5
  1809                           
  1810                           
  1811                           ; 1 bytes @ 0x5
  1812     0025                     	ds	1
  1813     0026                     vfpfcnvrt@fmt:
  1814                           
  1815                           ; 1 bytes @ 0x6
  1816     0026                     	ds	1
  1817     0027                     vfpfcnvrt@ap:
  1818                           
  1819                           ; 1 bytes @ 0x7
  1820     0027                     	ds	1
  1821     0028                     ??_vfpfcnvrt:
  1822                           
  1823                           ; 1 bytes @ 0x8
  1824     0028                     	ds	1
  1825     0029                     ?_AutoFox_INA226_ConfigureVoltageConversionTime:
  1826     0029                     ?_AutoFox_INA226_ConfigureNumSampleAveraging:	
  1827                           ; 1 bytes @ 0x9
  1828                           
  1829     0029                     AutoFox_INA226_ConfigureVoltageConversionTime@this:	
  1830                           ; 1 bytes @ 0x9
  1831                           
  1832     0029                     AutoFox_INA226_ConfigureNumSampleAveraging@this:	
  1833                           ; 2 bytes @ 0x9
  1834                           
  1835     0029                     ___lldiv@dividend:	
  1836                           ; 2 bytes @ 0x9
  1837                           
  1838                           
  1839                           ; 4 bytes @ 0x9
  1840     0029                     	ds	2
  1841     002B                     AutoFox_INA226_ConfigureVoltageConversionTime@aIndexToConversionTimeTable:
  1842     002B                     AutoFox_INA226_ConfigureNumSampleAveraging@aIndexToSampleAverageTable:	
  1843                           ; 2 bytes @ 0xB
  1844                           
  1845                           
  1846                           ; 2 bytes @ 0xB
  1847     002B                     	ds	1
  1848     002C                     vfpfcnvrt@done:
  1849                           
  1850                           ; 1 bytes @ 0xC
  1851     002C                     	ds	1
  1852     002D                     vfpfcnvrt@cp:
  1853     002D                     ??_AutoFox_INA226_ConfigureVoltageConversionTime:	
  1854                           ; 2 bytes @ 0xD
  1855                           
  1856     002D                     ??_AutoFox_INA226_ConfigureNumSampleAveraging:	
  1857                           ; 1 bytes @ 0xD
  1858                           
  1859     002D                     ??___lldiv:	
  1860                           ; 1 bytes @ 0xD
  1861                           
  1862                           
  1863                           ; 1 bytes @ 0xD
  1864     002D                     	ds	1
  1865     002E                     ___lldiv@quotient:
  1866                           
  1867                           ; 4 bytes @ 0xE
  1868     002E                     	ds	1
  1869     002F                     vfpfcnvrt@convarg:
  1870                           
  1871                           ; 4 bytes @ 0xF
  1872     002F                     	ds	2
  1873     0031                     AutoFox_INA226_ConfigureVoltageConversionTime@theMergedBusAndShuntConvTimeIndicies:
  1874                           
  1875                           ; 2 bytes @ 0x11
  1876     0031                     	ds	1
  1877     0032                     ___lldiv@counter:
  1878                           
  1879                           ; 1 bytes @ 0x12
  1880     0032                     	ds	1
  1881     0033                     ?_AutoFox_INA226_setupCalibration:
  1882     0033                     ?_AutoFox_INA226_GetBusVoltage_V:	
  1883                           ; 1 bytes @ 0x13
  1884                           
  1885     0033                     ?_ReadVoltageAverage:	
  1886                           ; 2 bytes @ 0x13
  1887                           
  1888     0033                     AutoFox_INA226_ConfigureVoltageConversionTime@s:	
  1889                           ; 2 bytes @ 0x13
  1890                           
  1891     0033                     vfpfcnvrt@c:	
  1892                           ; 1 bytes @ 0x13
  1893                           
  1894     0033                     AutoFox_INA226_setupCalibration@this:	
  1895                           ; 1 bytes @ 0x13
  1896                           
  1897     0033                     AutoFox_INA226_GetBusVoltage_V@this:	
  1898                           ; 2 bytes @ 0x13
  1899                           
  1900                           
  1901                           ; 2 bytes @ 0x13
  1902     0033                     	ds	1
  1903     0034                     ?_vfprintf:
  1904     0034                     vfprintf@fp:	
  1905                           ; 2 bytes @ 0x14
  1906                           
  1907                           
  1908                           ; 1 bytes @ 0x14
  1909     0034                     	ds	1
  1910     0035                     AutoFox_INA226_setupCalibration@aShuntResistor_mOhms:
  1911     0035                     vfprintf@fmt:	
  1912                           ; 2 bytes @ 0x15
  1913                           
  1914     0035                     AutoFox_INA226_GetBusVoltage_V@theRegisterValue:	
  1915                           ; 2 bytes @ 0x15
  1916                           
  1917     0035                     ??_ReadVoltageAverage:	
  1918                           ; 4 bytes @ 0x15
  1919                           
  1920                           
  1921                           ; 1 bytes @ 0x15
  1922     0035                     	ds	2
  1923     0037                     vfprintf@ap:
  1924     0037                     AutoFox_INA226_setupCalibration@aMaxCurrent_Amps:	
  1925                           ; 1 bytes @ 0x17
  1926                           
  1927                           
  1928                           ; 4 bytes @ 0x17
  1929     0037                     	ds	1
  1930     0038                     vfprintf@cfmt:
  1931                           
  1932                           ; 2 bytes @ 0x18
  1933     0038                     	ds	1
  1934     0039                     ReadVoltageAverage@R2:
  1935                           
  1936                           ; 4 bytes @ 0x19
  1937     0039                     	ds	1
  1938     003A                     ?_printf:
  1939     003A                     printf@fmt:	
  1940                           ; 2 bytes @ 0x1A
  1941                           
  1942                           
  1943                           ; 2 bytes @ 0x1A
  1944     003A                     	ds	1
  1945     003B                     ??_AutoFox_INA226_setupCalibration:
  1946                           
  1947                           ; 1 bytes @ 0x1B
  1948     003B                     	ds	2
  1949     003D                     ReadVoltageAverage@sample:
  1950                           
  1951                           ; 2 bytes @ 0x1D
  1952     003D                     	ds	2
  1953     003F                     ReadVoltageAverage@sum:
  1954                           
  1955                           ; 4 bytes @ 0x1F
  1956     003F                     	ds	1
  1957     0040                     printf@ap:
  1958                           
  1959                           ; 1 bytes @ 0x20
  1960     0040                     	ds	3
  1961     0043                     ReadVoltageAverage@i:
  1962     0043                     AutoFox_INA226_setupCalibration@theCal:	
  1963                           ; 1 bytes @ 0x23
  1964                           
  1965                           
  1966                           ; 4 bytes @ 0x23
  1967     0043                     	ds	1
  1968     0044                     ReadVoltageAverage@R1:
  1969                           
  1970                           ; 4 bytes @ 0x24
  1971     0044                     	ds	3
  1972     0047                     AutoFox_INA226_setupCalibration@theCurrentLSB_uA:
  1973                           
  1974                           ; 4 bytes @ 0x27
  1975     0047                     	ds	1
  1976     0048                     ReadVoltageAverage@average:
  1977                           
  1978                           ; 4 bytes @ 0x28
  1979     0048                     	ds	3
  1980     004B                     ?_AutoFox_INA226_Init:
  1981     004B                     AutoFox_INA226_Init@this:	
  1982                           ; 1 bytes @ 0x2B
  1983                           
  1984                           
  1985                           ; 2 bytes @ 0x2B
  1986     004B                     	ds	1
  1987     004C                     ?_DisplayVoltage:
  1988                           
  1989                           ; 2 bytes @ 0x2C
  1990     004C                     	ds	1
  1991     004D                     AutoFox_INA226_Init@aI2C_Address:
  1992                           
  1993                           ; 1 bytes @ 0x2D
  1994     004D                     	ds	1
  1995     004E                     AutoFox_INA226_Init@aShuntResistor_mOhms:
  1996     004E                     DisplayVoltage@voltage:	
  1997                           ; 2 bytes @ 0x2E
  1998                           
  1999                           
  2000                           ; 2 bytes @ 0x2E
  2001     004E                     	ds	2
  2002     0050                     AutoFox_INA226_Init@aMaxCurrent_Amps:
  2003                           
  2004                           ; 4 bytes @ 0x30
  2005     0050                     	ds	4
  2006     0054                     ??_AutoFox_INA226_Init:
  2007                           
  2008                           ; 1 bytes @ 0x34
  2009     0054                     	ds	4
  2010     0058                     AutoFox_INA226_Init@s:
  2011                           
  2012                           ; 1 bytes @ 0x38
  2013     0058                     	ds	1
  2014     0059                     AutoFox_INA226_Init@s_865:
  2015                           
  2016                           ; 1 bytes @ 0x39
  2017     0059                     	ds	1
  2018     005A                     AutoFox_INA226_Init@s_866:
  2019                           
  2020                           ; 1 bytes @ 0x3A
  2021     005A                     	ds	1
  2022     005B                     AutoFox_INA226_Init@s_867:
  2023                           
  2024                           ; 1 bytes @ 0x3B
  2025     005B                     	ds	1
  2026     005C                     AutoFox_INA226_Init@s_868:
  2027                           
  2028                           ; 1 bytes @ 0x3C
  2029     005C                     	ds	1
  2030     005D                     AutoFox_INA226_Init@s_869:
  2031                           
  2032                           ; 1 bytes @ 0x3D
  2033     005D                     	ds	1
  2034     005E                     AutoFox_INA226_Init@s_870:
  2035                           
  2036                           ; 1 bytes @ 0x3E
  2037     005E                     	ds	1
  2038     005F                     AutoFox_INA226_Init@theINA226_ID:
  2039                           
  2040                           ; 2 bytes @ 0x3F
  2041     005F                     	ds	2
  2042     0061                     ??_main:
  2043                           
  2044                           ; 1 bytes @ 0x41
  2045     0061                     	ds	3
  2046                           
  2047                           	psect	maintext
  2048     02D9                     __pmaintext:	
  2049 ;;
  2050 ;;Main: autosize = 0, tempsize = 3, incstack = 0, save=0
  2051 ;;
  2052 ;; *************** function _main *****************
  2053 ;; Defined at:
  2054 ;;		line 21 in file "main.c"
  2055 ;; Parameters:    Size  Location     Type
  2056 ;;		None
  2057 ;; Auto vars:     Size  Location     Type
  2058 ;;  ina226         14    6[BANK1 ] struct AutoFox_INA226
  2059 ;;  voltage_24V_    2    4[BANK1 ] unsigned short 
  2060 ;;  bus_voltage     2    2[BANK1 ] unsigned short 
  2061 ;;  voltage_12V     2    0[BANK1 ] unsigned short 
  2062 ;; Return value:  Size  Location     Type
  2063 ;;                  1    wreg      void 
  2064 ;; Registers used:
  2065 ;;		wreg, fsr0l, fsr0h, status,2, status,0, btemp+1, pclath, cstack
  2066 ;; Tracked objects:
  2067 ;;		On entry : B00/0
  2068 ;;		On exit  : 0/0
  2069 ;;		Unchanged: 0/0
  2070 ;; Data sizes:     COMMON   BANK0   BANK1   BANK3   BANK2
  2071 ;;      Params:         0       0       0       0       0
  2072 ;;      Locals:         0       0      20       0       0
  2073 ;;      Temps:          0       3       0       0       0
  2074 ;;      Totals:         0       3      20       0       0
  2075 ;;Total ram usage:       23 bytes
  2076 ;; Hardware stack levels required when called: 8
  2077 ;; This function calls:
  2078 ;;		_ADC_Init
  2079 ;;		_AutoFox_INA226_ConfigureNumSampleAveraging
  2080 ;;		_AutoFox_INA226_ConfigureVoltageConversionTime
  2081 ;;		_AutoFox_INA226_Constructor
  2082 ;;		_AutoFox_INA226_GetBusVoltage_V
  2083 ;;		_AutoFox_INA226_Init
  2084 ;;		_DisplayVoltage
  2085 ;;		_Global_Init
  2086 ;;		_I2C_Init
  2087 ;;		_Interrupt_Init
  2088 ;;		_SendErrorStatus
  2089 ;;		___lwdiv
  2090 ;;		___lwmod
  2091 ;;		_printf
  2092 ;; This function is called by:
  2093 ;;		Startup code after reset
  2094 ;; This function uses a non-reentrant model
  2095 ;;
  2096                           
  2097     02D9                     _main:	
  2098                           ;psect for function _main
  2099                           
  2100     02D9                     l3597:	
  2101                           ;incstack = 0
  2102                           ; Regs used in _main: [wreg-fsr0h+status,2+status,0+btemp+1+pclath+cstack]
  2103                           
  2104                           
  2105                           ;main.c: 23:     AutoFox_INA226 ina226;;main.c: 25:     AutoFox_INA226_Constructor(&ina2
      +                          26);
  2106     02D9  30C6               	movlw	low main@ina226
  2107     02DA  00F2               	movwf	AutoFox_INA226_Constructor@this
  2108     02DB  3000               	movlw	high main@ina226
  2109     02DC  00F3               	movwf	AutoFox_INA226_Constructor@this+1
  2110     02DD  120A  158A  2324  120A  118A  	fcall	_AutoFox_INA226_Constructor
  2111     02E2                     l3599:
  2112                           
  2113                           ;main.c: 26:     Global_Init();
  2114     02E2  120A  118A  20D0  120A  118A  	fcall	_Global_Init
  2115     02E7                     l3601:
  2116                           
  2117                           ;main.c: 27:     Interrupt_Init();
  2118     02E7  160A  118A  279F  120A  118A  	fcall	_Interrupt_Init
  2119     02EC                     l3603:
  2120                           
  2121                           ;main.c: 28:     I2C_Init();
  2122     02EC  160A  118A  2791  120A  118A  	fcall	_I2C_Init
  2123     02F1                     l3605:
  2124                           
  2125                           ;main.c: 29:     PORTBbits.RB7=0;
  2126     02F1  1283               	bcf	3,5	;RP0=0, select bank0
  2127     02F2  1303               	bcf	3,6	;RP1=0, select bank0
  2128     02F3  1386               	bcf	6,7	;volatile
  2129     02F4                     l3607:
  2130                           
  2131                           ;main.c: 30:     PORTBbits.RB6=0;
  2132     02F4  1306               	bcf	6,6	;volatile
  2133     02F5                     l3609:
  2134                           
  2135                           ;main.c: 31:     PORTCbits.RC0=1;
  2136     02F5  1407               	bsf	7,0	;volatile
  2137     02F6                     l3611:
  2138                           
  2139                           ;main.c: 32:     PORTAbits.RA6=1;
  2140     02F6  1705               	bsf	5,6	;volatile
  2141     02F7                     l3613:
  2142     02F7  30C6               	movlw	low main@ina226
  2143     02F8  00CB               	movwf	AutoFox_INA226_Init@this
  2144     02F9  3000               	movlw	high main@ina226
  2145     02FA  00CC               	movwf	AutoFox_INA226_Init@this+1
  2146     02FB  3040               	movlw	64
  2147     02FC  00CD               	movwf	AutoFox_INA226_Init@aI2C_Address
  2148     02FD  3002               	movlw	2
  2149     02FE  00CE               	movwf	AutoFox_INA226_Init@aShuntResistor_mOhms
  2150     02FF  3000               	movlw	0
  2151     0300  00CF               	movwf	AutoFox_INA226_Init@aShuntResistor_mOhms+1
  2152     0301  3000               	movlw	0
  2153     0302  00D3               	movwf	AutoFox_INA226_Init@aMaxCurrent_Amps+3
  2154     0303  3000               	movlw	0
  2155     0304  00D2               	movwf	AutoFox_INA226_Init@aMaxCurrent_Amps+2
  2156     0305  3000               	movlw	0
  2157     0306  00D1               	movwf	AutoFox_INA226_Init@aMaxCurrent_Amps+1
  2158     0307  3032               	movlw	50
  2159     0308  00D0               	movwf	AutoFox_INA226_Init@aMaxCurrent_Amps
  2160     0309  120A  158A  25E6  120A  118A  	fcall	_AutoFox_INA226_Init
  2161     030E  120A  158A  244B  120A  118A  	fcall	_SendErrorStatus
  2162     0313                     l3615:
  2163                           
  2164                           ;main.c: 35:     SendErrorStatus(AutoFox_INA226_ConfigureVoltageConversionTime(&ina226, 
      +                          0b111));
  2165     0313  30C6               	movlw	low main@ina226
  2166     0314  1283               	bcf	3,5	;RP0=0, select bank0
  2167     0315  1303               	bcf	3,6	;RP1=0, select bank0
  2168     0316  00A9               	movwf	AutoFox_INA226_ConfigureVoltageConversionTime@this
  2169     0317  3000               	movlw	high main@ina226
  2170     0318  00AA               	movwf	AutoFox_INA226_ConfigureVoltageConversionTime@this+1
  2171     0319  3007               	movlw	7
  2172     031A  00AB               	movwf	AutoFox_INA226_ConfigureVoltageConversionTime@aIndexToConversionTimeTable
  2173     031B  3000               	movlw	0
  2174     031C  00AC               	movwf	AutoFox_INA226_ConfigureVoltageConversionTime@aIndexToConversionTimeTable+1
  2175     031D  120A  118A  275A  120A  118A  	fcall	_AutoFox_INA226_ConfigureVoltageConversionTime
  2176     0322  120A  158A  244B  120A  118A  	fcall	_SendErrorStatus
  2177     0327                     l3617:
  2178                           
  2179                           ;main.c: 36:     SendErrorStatus(AutoFox_INA226_ConfigureNumSampleAveraging(&ina226, 0b0
      +                          10));
  2180     0327  30C6               	movlw	low main@ina226
  2181     0328  1283               	bcf	3,5	;RP0=0, select bank0
  2182     0329  1303               	bcf	3,6	;RP1=0, select bank0
  2183     032A  00A9               	movwf	AutoFox_INA226_ConfigureNumSampleAveraging@this
  2184     032B  3000               	movlw	high main@ina226
  2185     032C  00AA               	movwf	AutoFox_INA226_ConfigureNumSampleAveraging@this+1
  2186     032D  3002               	movlw	2
  2187     032E  00AB               	movwf	AutoFox_INA226_ConfigureNumSampleAveraging@aIndexToSampleAverageTable
  2188     032F  3000               	movlw	0
  2189     0330  00AC               	movwf	AutoFox_INA226_ConfigureNumSampleAveraging@aIndexToSampleAverageTable+1
  2190     0331  120A  158A  24D0  120A  118A  	fcall	_AutoFox_INA226_ConfigureNumSampleAveraging
  2191     0336  120A  158A  244B  120A  118A  	fcall	_SendErrorStatus
  2192     033B                     l3619:
  2193                           
  2194                           ;main.c: 38:     uint16_t bus_voltage, voltage_24V_diff, voltage_12V;;main.c: 39:     AD
      +                          C_Init();
  2195     033B  120A  158A  2000  120A  118A  	fcall	_ADC_Init
  2196     0340                     l3621:
  2197                           
  2198                           ;main.c: 42:     {;main.c: 44:         bus_voltage=AutoFox_INA226_GetBusVoltage_V(&ina22
      +                          6);
  2199     0340  30C6               	movlw	low main@ina226
  2200     0341  1283               	bcf	3,5	;RP0=0, select bank0
  2201     0342  1303               	bcf	3,6	;RP1=0, select bank0
  2202     0343  00B3               	movwf	AutoFox_INA226_GetBusVoltage_V@this
  2203     0344  3000               	movlw	high main@ina226
  2204     0345  00B4               	movwf	AutoFox_INA226_GetBusVoltage_V@this+1
  2205     0346  120A  158A  21CE  120A  118A  	fcall	_AutoFox_INA226_GetBusVoltage_V
  2206     034B  1283               	bcf	3,5	;RP0=0, select bank0
  2207     034C  1303               	bcf	3,6	;RP1=0, select bank0
  2208     034D  0834               	movf	?_AutoFox_INA226_GetBusVoltage_V+1,w
  2209     034E  1683               	bsf	3,5	;RP0=1, select bank1
  2210     034F  1303               	bcf	3,6	;RP1=0, select bank1
  2211     0350  00C3               	movwf	(main@bus_voltage+1)^(0+128)
  2212     0351  1283               	bcf	3,5	;RP0=0, select bank0
  2213     0352  1303               	bcf	3,6	;RP1=0, select bank0
  2214     0353  0833               	movf	?_AutoFox_INA226_GetBusVoltage_V,w
  2215     0354  1683               	bsf	3,5	;RP0=1, select bank1
  2216     0355  1303               	bcf	3,6	;RP1=0, select bank1
  2217     0356  00C2               	movwf	main@bus_voltage^(0+128)
  2218     0357                     l3623:
  2219                           
  2220                           ;main.c: 46:         if (bus_voltage%100 < 10)
  2221     0357  3064               	movlw	100
  2222     0358  00F2               	movwf	___lwmod@divisor
  2223     0359  3000               	movlw	0
  2224     035A  00F3               	movwf	___lwmod@divisor+1
  2225     035B  0843               	movf	(main@bus_voltage+1)^(0+128),w
  2226     035C  00F5               	movwf	___lwmod@dividend+1
  2227     035D  0842               	movf	main@bus_voltage^(0+128),w
  2228     035E  00F4               	movwf	___lwmod@dividend
  2229     035F  120A  158A  20C8  120A  118A  	fcall	___lwmod
  2230     0364                     l3627:
  2231                           
  2232                           ;main.c: 55:         voltage_24V_diff=bus_voltage - DisplayVoltage();
  2233     0364  120A  158A  255B  120A  118A  	fcall	_DisplayVoltage
  2234     0369  1283               	bcf	3,5	;RP0=0, select bank0
  2235     036A  1303               	bcf	3,6	;RP1=0, select bank0
  2236     036B  084C               	movf	?_DisplayVoltage,w
  2237     036C  1683               	bsf	3,5	;RP0=1, select bank1
  2238     036D  1303               	bcf	3,6	;RP1=0, select bank1
  2239     036E  0242               	subwf	main@bus_voltage^(0+128),w
  2240     036F  00C4               	movwf	main@voltage_24V_diff^(0+128)
  2241     0370  1283               	bcf	3,5	;RP0=0, select bank0
  2242     0371  1303               	bcf	3,6	;RP1=0, select bank0
  2243     0372  084D               	movf	?_DisplayVoltage+1,w
  2244     0373  1C03               	skipc
  2245     0374  0A4D               	incf	?_DisplayVoltage+1,w
  2246     0375  1683               	bsf	3,5	;RP0=1, select bank1
  2247     0376  1303               	bcf	3,6	;RP1=0, select bank1
  2248     0377  0243               	subwf	(main@bus_voltage+1)^(0+128),w
  2249     0378  00C5               	movwf	(main@voltage_24V_diff+1)^(0+128)
  2250     0379                     l3629:
  2251                           
  2252                           ;main.c: 58:         if (voltage_24V_diff%100 < 10)
  2253     0379  3064               	movlw	100
  2254     037A  00F2               	movwf	___lwmod@divisor
  2255     037B  3000               	movlw	0
  2256     037C  00F3               	movwf	___lwmod@divisor+1
  2257     037D  0845               	movf	(main@voltage_24V_diff+1)^(0+128),w
  2258     037E  00F5               	movwf	___lwmod@dividend+1
  2259     037F  0844               	movf	main@voltage_24V_diff^(0+128),w
  2260     0380  00F4               	movwf	___lwmod@dividend
  2261     0381  120A  158A  20C8  120A  118A  	fcall	___lwmod
  2262     0386  3000               	movlw	0
  2263     0387  0273               	subwf	?___lwmod+1,w
  2264     0388  300A               	movlw	10
  2265     0389  1903               	skipnz
  2266     038A  0272               	subwf	?___lwmod,w
  2267     038B  1803               	skipnc
  2268     038C  2B8E               	goto	u3101
  2269     038D  2B8F               	goto	u3100
  2270     038E                     u3101:
  2271     038E  2BC5               	goto	l3633
  2272     038F                     u3100:
  2273     038F                     l3631:
  2274                           
  2275                           ;main.c: 59:         {;main.c: 60:             printf("24V diff Batt Voltage: %d.0%dV \r
      +                          \n", voltage_24V_diff / 100, voltage_24V_diff % 100);
  2276     038F  3099               	movlw	low (STR_1| (0+32768))
  2277     0390  1283               	bcf	3,5	;RP0=0, select bank0
  2278     0391  1303               	bcf	3,6	;RP1=0, select bank0
  2279     0392  00BA               	movwf	printf@fmt
  2280     0393  3081               	movlw	high (STR_1| (0+32768))
  2281     0394  00BB               	movwf	printf@fmt+1
  2282     0395  3064               	movlw	100
  2283     0396  00F2               	movwf	___lwdiv@divisor
  2284     0397  3000               	movlw	0
  2285     0398  00F3               	movwf	___lwdiv@divisor+1
  2286     0399  1683               	bsf	3,5	;RP0=1, select bank1
  2287     039A  1303               	bcf	3,6	;RP1=0, select bank1
  2288     039B  0845               	movf	(main@voltage_24V_diff+1)^(0+128),w
  2289     039C  00F5               	movwf	___lwdiv@dividend+1
  2290     039D  0844               	movf	main@voltage_24V_diff^(0+128),w
  2291     039E  00F4               	movwf	___lwdiv@dividend
  2292     039F  120A  158A  2100  120A  118A  	fcall	___lwdiv
  2293     03A4  0873               	movf	?___lwdiv+1,w
  2294     03A5  1283               	bcf	3,5	;RP0=0, select bank0
  2295     03A6  1303               	bcf	3,6	;RP1=0, select bank0
  2296     03A7  00BD               	movwf	?_printf+3
  2297     03A8  0872               	movf	?___lwdiv,w
  2298     03A9  00BC               	movwf	?_printf+2
  2299     03AA  3064               	movlw	100
  2300     03AB  00F2               	movwf	___lwmod@divisor
  2301     03AC  3000               	movlw	0
  2302     03AD  00F3               	movwf	___lwmod@divisor+1
  2303     03AE  1683               	bsf	3,5	;RP0=1, select bank1
  2304     03AF  1303               	bcf	3,6	;RP1=0, select bank1
  2305     03B0  0845               	movf	(main@voltage_24V_diff+1)^(0+128),w
  2306     03B1  00F5               	movwf	___lwmod@dividend+1
  2307     03B2  0844               	movf	main@voltage_24V_diff^(0+128),w
  2308     03B3  00F4               	movwf	___lwmod@dividend
  2309     03B4  120A  158A  20C8  120A  118A  	fcall	___lwmod
  2310     03B9  0873               	movf	?___lwmod+1,w
  2311     03BA  1283               	bcf	3,5	;RP0=0, select bank0
  2312     03BB  1303               	bcf	3,6	;RP1=0, select bank0
  2313     03BC  00BF               	movwf	?_printf+5
  2314     03BD  0872               	movf	?___lwmod,w
  2315     03BE  00BE               	movwf	?_printf+4
  2316     03BF  160A  118A  27AF  120A  118A  	fcall	_printf
  2317                           
  2318                           ;main.c: 61:         } else
  2319     03C4  2BFA               	goto	l3635
  2320     03C5                     l3633:
  2321                           
  2322                           ;main.c: 62:         {;main.c: 63:             printf("24V diff voltage  Voltage: %d.%dV
      +                           \r\n", voltage_24V_diff / 100, voltage_24V_diff % 100);
  2323     03C5  3074               	movlw	low (STR_2| (0+32768))
  2324     03C6  1283               	bcf	3,5	;RP0=0, select bank0
  2325     03C7  1303               	bcf	3,6	;RP1=0, select bank0
  2326     03C8  00BA               	movwf	printf@fmt
  2327     03C9  3081               	movlw	high (STR_2| (0+32768))
  2328     03CA  00BB               	movwf	printf@fmt+1
  2329     03CB  3064               	movlw	100
  2330     03CC  00F2               	movwf	___lwdiv@divisor
  2331     03CD  3000               	movlw	0
  2332     03CE  00F3               	movwf	___lwdiv@divisor+1
  2333     03CF  1683               	bsf	3,5	;RP0=1, select bank1
  2334     03D0  1303               	bcf	3,6	;RP1=0, select bank1
  2335     03D1  0845               	movf	(main@voltage_24V_diff+1)^(0+128),w
  2336     03D2  00F5               	movwf	___lwdiv@dividend+1
  2337     03D3  0844               	movf	main@voltage_24V_diff^(0+128),w
  2338     03D4  00F4               	movwf	___lwdiv@dividend
  2339     03D5  120A  158A  2100  120A  118A  	fcall	___lwdiv
  2340     03DA  0873               	movf	?___lwdiv+1,w
  2341     03DB  1283               	bcf	3,5	;RP0=0, select bank0
  2342     03DC  1303               	bcf	3,6	;RP1=0, select bank0
  2343     03DD  00BD               	movwf	?_printf+3
  2344     03DE  0872               	movf	?___lwdiv,w
  2345     03DF  00BC               	movwf	?_printf+2
  2346     03E0  3064               	movlw	100
  2347     03E1  00F2               	movwf	___lwmod@divisor
  2348     03E2  3000               	movlw	0
  2349     03E3  00F3               	movwf	___lwmod@divisor+1
  2350     03E4  1683               	bsf	3,5	;RP0=1, select bank1
  2351     03E5  1303               	bcf	3,6	;RP1=0, select bank1
  2352     03E6  0845               	movf	(main@voltage_24V_diff+1)^(0+128),w
  2353     03E7  00F5               	movwf	___lwmod@dividend+1
  2354     03E8  0844               	movf	main@voltage_24V_diff^(0+128),w
  2355     03E9  00F4               	movwf	___lwmod@dividend
  2356     03EA  120A  158A  20C8  120A  118A  	fcall	___lwmod
  2357     03EF  0873               	movf	?___lwmod+1,w
  2358     03F0  1283               	bcf	3,5	;RP0=0, select bank0
  2359     03F1  1303               	bcf	3,6	;RP1=0, select bank0
  2360     03F2  00BF               	movwf	?_printf+5
  2361     03F3  0872               	movf	?___lwmod,w
  2362     03F4  00BE               	movwf	?_printf+4
  2363     03F5  160A  118A  27AF  120A  118A  	fcall	_printf
  2364     03FA                     l3635:
  2365                           
  2366                           ;main.c: 70:     if (voltage_12V > (voltage_24V_diff + 100)) {
  2367     03FA  1683               	bsf	3,5	;RP0=1, select bank1
  2368     03FB  1303               	bcf	3,6	;RP1=0, select bank1
  2369     03FC  0844               	movf	main@voltage_24V_diff^(0+128),w
  2370     03FD  3E64               	addlw	100
  2371     03FE  1283               	bcf	3,5	;RP0=0, select bank0
  2372     03FF  1303               	bcf	3,6	;RP1=0, select bank0
  2373     0400  00E1               	movwf	??_main
  2374     0401  1683               	bsf	3,5	;RP0=1, select bank1
  2375     0402  1303               	bcf	3,6	;RP1=0, select bank1
  2376     0403  0845               	movf	(main@voltage_24V_diff+1)^(0+128),w
  2377     0404  1803               	skipnc
  2378     0405  3E01               	addlw	1
  2379     0406  3E00               	addlw	0
  2380     0407  1283               	bcf	3,5	;RP0=0, select bank0
  2381     0408  1303               	bcf	3,6	;RP1=0, select bank0
  2382     0409  00E2               	movwf	??_main+1
  2383     040A  1683               	bsf	3,5	;RP0=1, select bank1
  2384     040B  1303               	bcf	3,6	;RP1=0, select bank1
  2385     040C  0841               	movf	(main@voltage_12V+1)^(0+128),w
  2386     040D  1283               	bcf	3,5	;RP0=0, select bank0
  2387     040E  1303               	bcf	3,6	;RP1=0, select bank0
  2388     040F  0262               	subwf	??_main+1,w
  2389     0410  1D03               	skipz
  2390     0411  2C18               	goto	u3115
  2391     0412  1683               	bsf	3,5	;RP0=1, select bank1
  2392     0413  1303               	bcf	3,6	;RP1=0, select bank1
  2393     0414  0840               	movf	main@voltage_12V^(0+128),w
  2394     0415  1283               	bcf	3,5	;RP0=0, select bank0
  2395     0416  1303               	bcf	3,6	;RP1=0, select bank0
  2396     0417  0261               	subwf	??_main,w
  2397     0418                     u3115:
  2398     0418  1803               	skipnc
  2399     0419  2C1B               	goto	u3111
  2400     041A  2C1C               	goto	u3110
  2401     041B                     u3111:
  2402     041B  2C27               	goto	l46
  2403     041C                     u3110:
  2404     041C                     l3637:
  2405                           
  2406                           ;main.c: 71:         PORTBbits.RB4=1;
  2407     041C  1606               	bsf	6,4	;volatile
  2408     041D                     l3639:
  2409                           
  2410                           ;main.c: 72:         printf("balance on 12v \n\r");
  2411     041D  3075               	movlw	low (STR_3| (0+32768))
  2412     041E  00BA               	movwf	printf@fmt
  2413     041F  3082               	movlw	high (STR_3| (0+32768))
  2414     0420  00BB               	movwf	printf@fmt+1
  2415     0421  160A  118A  27AF  120A  118A  	fcall	_printf
  2416                           
  2417                           ;main.c: 73:     } else {
  2418     0426  2C31               	goto	l3643
  2419     0427                     l46:
  2420                           
  2421                           ;main.c: 74:         PORTBbits.RB4=0;
  2422     0427  1206               	bcf	6,4	;volatile
  2423     0428                     l3641:
  2424                           
  2425                           ;main.c: 75:         printf("balance off 12v \n\r");
  2426     0428  304F               	movlw	low (STR_4| (0+32768))
  2427     0429  00BA               	movwf	printf@fmt
  2428     042A  3082               	movlw	high (STR_4| (0+32768))
  2429     042B  00BB               	movwf	printf@fmt+1
  2430     042C  160A  118A  27AF  120A  118A  	fcall	_printf
  2431     0431                     l3643:
  2432                           
  2433                           ;main.c: 79:     if (voltage_24V_diff > (voltage_12V + 100)) {
  2434     0431  1683               	bsf	3,5	;RP0=1, select bank1
  2435     0432  1303               	bcf	3,6	;RP1=0, select bank1
  2436     0433  0840               	movf	main@voltage_12V^(0+128),w
  2437     0434  3E64               	addlw	100
  2438     0435  1283               	bcf	3,5	;RP0=0, select bank0
  2439     0436  1303               	bcf	3,6	;RP1=0, select bank0
  2440     0437  00E1               	movwf	??_main
  2441     0438  1683               	bsf	3,5	;RP0=1, select bank1
  2442     0439  1303               	bcf	3,6	;RP1=0, select bank1
  2443     043A  0841               	movf	(main@voltage_12V+1)^(0+128),w
  2444     043B  1803               	skipnc
  2445     043C  3E01               	addlw	1
  2446     043D  3E00               	addlw	0
  2447     043E  1283               	bcf	3,5	;RP0=0, select bank0
  2448     043F  1303               	bcf	3,6	;RP1=0, select bank0
  2449     0440  00E2               	movwf	??_main+1
  2450     0441  1683               	bsf	3,5	;RP0=1, select bank1
  2451     0442  1303               	bcf	3,6	;RP1=0, select bank1
  2452     0443  0845               	movf	(main@voltage_24V_diff+1)^(0+128),w
  2453     0444  1283               	bcf	3,5	;RP0=0, select bank0
  2454     0445  1303               	bcf	3,6	;RP1=0, select bank0
  2455     0446  0262               	subwf	??_main+1,w
  2456     0447  1D03               	skipz
  2457     0448  2C4F               	goto	u3125
  2458     0449  1683               	bsf	3,5	;RP0=1, select bank1
  2459     044A  1303               	bcf	3,6	;RP1=0, select bank1
  2460     044B  0844               	movf	main@voltage_24V_diff^(0+128),w
  2461     044C  1283               	bcf	3,5	;RP0=0, select bank0
  2462     044D  1303               	bcf	3,6	;RP1=0, select bank0
  2463     044E  0261               	subwf	??_main,w
  2464     044F                     u3125:
  2465     044F  1803               	skipnc
  2466     0450  2C52               	goto	u3121
  2467     0451  2C53               	goto	u3120
  2468     0452                     u3121:
  2469     0452  2C5E               	goto	l48
  2470     0453                     u3120:
  2471     0453                     l3645:
  2472                           
  2473                           ;main.c: 80:         PORTBbits.RB5=1;
  2474     0453  1686               	bsf	6,5	;volatile
  2475     0454                     l3647:
  2476                           
  2477                           ;main.c: 81:          printf("balance on 24v \n\r");
  2478     0454  3087               	movlw	low (STR_5| (0+32768))
  2479     0455  00BA               	movwf	printf@fmt
  2480     0456  3082               	movlw	high (STR_5| (0+32768))
  2481     0457  00BB               	movwf	printf@fmt+1
  2482     0458  160A  118A  27AF  120A  118A  	fcall	_printf
  2483                           
  2484                           ;main.c: 82:     } else {
  2485     045D  2C68               	goto	l3651
  2486     045E                     l48:
  2487                           
  2488                           ;main.c: 83:         PORTBbits.RB5=0;
  2489     045E  1286               	bcf	6,5	;volatile
  2490     045F                     l3649:
  2491                           
  2492                           ;main.c: 84:          printf("balance off 24v \n\r");
  2493     045F  3062               	movlw	low (STR_6| (0+32768))
  2494     0460  00BA               	movwf	printf@fmt
  2495     0461  3082               	movlw	high (STR_6| (0+32768))
  2496     0462  00BB               	movwf	printf@fmt+1
  2497     0463  160A  118A  27AF  120A  118A  	fcall	_printf
  2498     0468                     l3651:
  2499                           
  2500                           ;main.c: 88:         _delay((unsigned long)((1000)*(8000000/4000.0)));
  2501     0468  300B               	movlw	11
  2502     0469  1283               	bcf	3,5	;RP0=0, select bank0
  2503     046A  1303               	bcf	3,6	;RP1=0, select bank0
  2504     046B  00E3               	movwf	??_main+2
  2505     046C  3026               	movlw	38
  2506     046D  00E2               	movwf	??_main+1
  2507     046E  305D               	movlw	93
  2508     046F  00E1               	movwf	??_main
  2509     0470                     u3297:
  2510     0470  0BE1               	decfsz	??_main,f
  2511     0471  2C70               	goto	u3297
  2512     0472  0BE2               	decfsz	??_main+1,f
  2513     0473  2C70               	goto	u3297
  2514     0474  0BE3               	decfsz	??_main+2,f
  2515     0475  2C70               	goto	u3297
  2516     0476  2B40               	goto	l3621
  2517     0477  120A  118A  280C   	ljmp	start
  2518     047A                     __end_of_main:
  2519                           
  2520                           	psect	text1
  2521     0C4B                     __ptext1:	
  2522 ;; *************** function _SendErrorStatus *****************
  2523 ;; Defined at:
  2524 ;;		line 450 in file "ina226.c"
  2525 ;; Parameters:    Size  Location     Type
  2526 ;;  err             1    wreg     enum E1803
  2527 ;; Auto vars:     Size  Location     Type
  2528 ;;  err             1    7[COMMON] enum E1803
  2529 ;;  errorMsg        2    8[COMMON] PTR unsigned char 
  2530 ;;		 -> STR_16(17), STR_15(23), STR_14(19), STR_13(17), 
  2531 ;;		 -> STR_12(26), STR_11(16), STR_10(26), STR_9(25), 
  2532 ;;		 -> STR_8(8), STR_7(6), 
  2533 ;; Return value:  Size  Location     Type
  2534 ;;                  1    wreg      void 
  2535 ;; Registers used:
  2536 ;;		wreg, fsr0l, fsr0h, status,2, status,0, btemp+1, pclath, cstack
  2537 ;; Tracked objects:
  2538 ;;		On entry : 0/0
  2539 ;;		On exit  : 0/0
  2540 ;;		Unchanged: 0/0
  2541 ;; Data sizes:     COMMON   BANK0   BANK1   BANK3   BANK2
  2542 ;;      Params:         0       0       0       0       0
  2543 ;;      Locals:         3       0       0       0       0
  2544 ;;      Temps:          2       0       0       0       0
  2545 ;;      Totals:         5       0       0       0       0
  2546 ;;Total ram usage:        5 bytes
  2547 ;; Hardware stack levels used: 1
  2548 ;; Hardware stack levels required when called: 2
  2549 ;; This function calls:
  2550 ;;		_SendUART_debug
  2551 ;; This function is called by:
  2552 ;;		_main
  2553 ;; This function uses a non-reentrant model
  2554 ;;
  2555                           
  2556     0C4B                     _SendErrorStatus:	
  2557                           ;psect for function _SendErrorStatus
  2558                           
  2559                           
  2560                           ;incstack = 0
  2561                           ; Regs used in _SendErrorStatus: [wreg-fsr0h+status,2+status,0+btemp+1+pclath+cstack]
  2562                           ;SendErrorStatus@err stored from wreg
  2563     0C4B  00F7               	movwf	SendErrorStatus@err
  2564     0C4C                     l2761:
  2565                           
  2566                           ;ina226.c: 450: void SendErrorStatus(status err);ina226.c: 451: {;ina226.c: 452:     uns
      +                          igned char *errorMsg;;ina226.c: 455:     switch(err)
  2567     0C4C  2C7F               	goto	l2785
  2568     0C4D                     l2763:
  2569                           
  2570                           ;ina226.c: 458:             errorMsg = (unsigned char*)"OK \r\n";
  2571     0C4D  30D3               	movlw	low (STR_7| (0+32768))
  2572     0C4E  00F8               	movwf	SendErrorStatus@errorMsg
  2573     0C4F  3082               	movlw	high (STR_7| (0+32768))
  2574     0C50  00F9               	movwf	SendErrorStatus@errorMsg+1
  2575                           
  2576                           ;ina226.c: 459:             break;
  2577     0C51  2CBF               	goto	l2791
  2578     0C52                     l2765:
  2579                           
  2580                           ;ina226.c: 461:             errorMsg = (unsigned char*)"FAIL \r\n";
  2581     0C52  30CB               	movlw	low (STR_8| (0+32768))
  2582     0C53  00F8               	movwf	SendErrorStatus@errorMsg
  2583     0C54  3082               	movlw	high (STR_8| (0+32768))
  2584     0C55  00F9               	movwf	SendErrorStatus@errorMsg+1
  2585                           
  2586                           ;ina226.c: 462:             break;
  2587     0C56  2CBF               	goto	l2791
  2588     0C57                     l2767:
  2589                           
  2590                           ;ina226.c: 464:             errorMsg = (unsigned char*)"INA226_TI_ID_MISMATCH \r\n";
  2591     0C57  300C               	movlw	low (STR_9| (0+32768))
  2592     0C58  00F8               	movwf	SendErrorStatus@errorMsg
  2593     0C59  3082               	movlw	high (STR_9| (0+32768))
  2594     0C5A  00F9               	movwf	SendErrorStatus@errorMsg+1
  2595                           
  2596                           ;ina226.c: 465:             break;
  2597     0C5B  2CBF               	goto	l2791
  2598     0C5C                     l2769:
  2599                           
  2600                           ;ina226.c: 467:             errorMsg = (unsigned char*)"INA226_DIE_ID_MISMATCH \r\n";
  2601     0C5C  30D8               	movlw	low (STR_10| (0+32768))
  2602     0C5D  00F8               	movwf	SendErrorStatus@errorMsg
  2603     0C5E  3081               	movlw	high (STR_10| (0+32768))
  2604     0C5F  00F9               	movwf	SendErrorStatus@errorMsg+1
  2605                           
  2606                           ;ina226.c: 468:             break;
  2607     0C60  2CBF               	goto	l2791
  2608     0C61                     l2771:
  2609                           
  2610                           ;ina226.c: 470:             errorMsg = (unsigned char*)"CONFIG_ERROR \r\n";
  2611     0C61  30BB               	movlw	low (STR_11| (0+32768))
  2612     0C62  00F8               	movwf	SendErrorStatus@errorMsg
  2613     0C63  3082               	movlw	high (STR_11| (0+32768))
  2614     0C64  00F9               	movwf	SendErrorStatus@errorMsg+1
  2615                           
  2616                           ;ina226.c: 471:             break;
  2617     0C65  2CBF               	goto	l2791
  2618     0C66                     l2773:
  2619                           
  2620                           ;ina226.c: 473:             errorMsg = (unsigned char*)"I2C_TRANSMISSION_ERROR \r\n";
  2621     0C66  30F2               	movlw	low (STR_12| (0+32768))
  2622     0C67  00F8               	movwf	SendErrorStatus@errorMsg
  2623     0C68  3081               	movlw	high (STR_12| (0+32768))
  2624     0C69  00F9               	movwf	SendErrorStatus@errorMsg+1
  2625                           
  2626                           ;ina226.c: 474:             break;
  2627     0C6A  2CBF               	goto	l2791
  2628     0C6B                     l2775:
  2629                           
  2630                           ;ina226.c: 476:             errorMsg = (unsigned char*)"BAD_PARAMETER \r\n";
  2631     0C6B  3099               	movlw	low (STR_13| (0+32768))
  2632     0C6C  00F8               	movwf	SendErrorStatus@errorMsg
  2633     0C6D  3082               	movlw	high (STR_13| (0+32768))
  2634     0C6E  00F9               	movwf	SendErrorStatus@errorMsg+1
  2635                           
  2636                           ;ina226.c: 477:             break;
  2637     0C6F  2CBF               	goto	l2791
  2638     0C70                     l2777:
  2639                           
  2640                           ;ina226.c: 479:             errorMsg = (unsigned char*)"NOT_INITIALIZED \r\n";
  2641     0C70  303C               	movlw	low (STR_14| (0+32768))
  2642     0C71  00F8               	movwf	SendErrorStatus@errorMsg
  2643     0C72  3082               	movlw	high (STR_14| (0+32768))
  2644     0C73  00F9               	movwf	SendErrorStatus@errorMsg+1
  2645                           
  2646                           ;ina226.c: 480:             break;
  2647     0C74  2CBF               	goto	l2791
  2648     0C75                     l2779:
  2649                           
  2650                           ;ina226.c: 482:             errorMsg = (unsigned char*)"INVALID_I2C_ADDRESS \r\n";
  2651     0C75  3025               	movlw	low (STR_15| (0+32768))
  2652     0C76  00F8               	movwf	SendErrorStatus@errorMsg
  2653     0C77  3082               	movlw	high (STR_15| (0+32768))
  2654     0C78  00F9               	movwf	SendErrorStatus@errorMsg+1
  2655                           
  2656                           ;ina226.c: 483:             break;
  2657     0C79  2CBF               	goto	l2791
  2658     0C7A                     l2781:
  2659                           
  2660                           ;ina226.c: 485:             errorMsg = (unsigned char*)"UNKNOWN_ERROR \r\n";
  2661     0C7A  30AA               	movlw	low (STR_16| (0+32768))
  2662     0C7B  00F8               	movwf	SendErrorStatus@errorMsg
  2663     0C7C  3082               	movlw	high (STR_16| (0+32768))
  2664     0C7D  00F9               	movwf	SendErrorStatus@errorMsg+1
  2665                           
  2666                           ;ina226.c: 486:             break;
  2667     0C7E  2CBF               	goto	l2791
  2668     0C7F                     l2785:
  2669     0C7F  0877               	movf	SendErrorStatus@err,w
  2670     0C80  00F5               	movwf	??_SendErrorStatus
  2671     0C81  01F6               	clrf	??_SendErrorStatus+1
  2672     0C82  1BF5               	btfsc	??_SendErrorStatus,7
  2673     0C83  03F6               	decf	??_SendErrorStatus+1,f
  2674                           
  2675                           ; Switch on 2 bytes has been partitioned into a top level switch of size 1, and 2 sub-sw
      +                          itches
  2676                           ; Switch size 1, requested type "simple"
  2677                           ; Number of cases is 2, Range of values is 0 to 255
  2678                           ; switch strategies available:
  2679                           ; Name         Instructions Cycles
  2680                           ; simple_byte            7     4 (average)
  2681                           ; jumptable            260     6 (fixed)
  2682                           ;	Chosen strategy is simple_byte
  2683     0C84  0876               	movf	??_SendErrorStatus+1,w
  2684     0C85  3A00               	xorlw	0	; case 0
  2685     0C86  1903               	skipnz
  2686     0C87  2C8C               	goto	l3861
  2687     0C88  3AFF               	xorlw	255	; case 255
  2688     0C89  1903               	skipnz
  2689     0C8A  2C91               	goto	l3863
  2690     0C8B  2C7A               	goto	l2781
  2691     0C8C                     l3861:
  2692                           
  2693                           ; Switch size 1, requested type "simple"
  2694                           ; Number of cases is 1, Range of values is 0 to 0
  2695                           ; switch strategies available:
  2696                           ; Name         Instructions Cycles
  2697                           ; simple_byte            4     3 (average)
  2698                           ; direct_byte           11     8 (fixed)
  2699                           ; jumptable            260     6 (fixed)
  2700                           ;	Chosen strategy is simple_byte
  2701     0C8C  0875               	movf	??_SendErrorStatus,w
  2702     0C8D  3A00               	xorlw	0	; case 0
  2703     0C8E  1903               	skipnz
  2704     0C8F  2C4D               	goto	l2763
  2705     0C90  2C7A               	goto	l2781
  2706     0C91                     l3863:
  2707                           
  2708                           ; Switch size 1, requested type "simple"
  2709                           ; Number of cases is 8, Range of values is 248 to 255
  2710                           ; switch strategies available:
  2711                           ; Name         Instructions Cycles
  2712                           ; simple_byte           25    13 (average)
  2713                           ; direct_byte           31     7 (fixed)
  2714                           ; jumptable            263     9 (fixed)
  2715                           ;	Chosen strategy is simple_byte
  2716     0C91  0875               	movf	??_SendErrorStatus,w
  2717     0C92  3AF8               	xorlw	248	; case 248
  2718     0C93  1903               	skipnz
  2719     0C94  2C75               	goto	l2779
  2720     0C95  3A01               	xorlw	1	; case 249
  2721     0C96  1903               	skipnz
  2722     0C97  2C70               	goto	l2777
  2723     0C98  3A03               	xorlw	3	; case 250
  2724     0C99  1903               	skipnz
  2725     0C9A  2C6B               	goto	l2775
  2726     0C9B  3A01               	xorlw	1	; case 251
  2727     0C9C  1903               	skipnz
  2728     0C9D  2C66               	goto	l2773
  2729     0C9E  3A07               	xorlw	7	; case 252
  2730     0C9F  1903               	skipnz
  2731     0CA0  2C61               	goto	l2771
  2732     0CA1  3A01               	xorlw	1	; case 253
  2733     0CA2  1903               	skipnz
  2734     0CA3  2C5C               	goto	l2769
  2735     0CA4  3A03               	xorlw	3	; case 254
  2736     0CA5  1903               	skipnz
  2737     0CA6  2C57               	goto	l2767
  2738     0CA7  3A01               	xorlw	1	; case 255
  2739     0CA8  1903               	skipnz
  2740     0CA9  2C52               	goto	l2765
  2741     0CAA  2C7A               	goto	l2781
  2742     0CAB                     l2787:
  2743                           
  2744                           ;ina226.c: 491:     {;ina226.c: 492:         SendUART_debug(*errorMsg);
  2745     0CAB  0879               	movf	SendErrorStatus@errorMsg+1,w
  2746     0CAC  00FF               	movwf	btemp+1
  2747     0CAD  0878               	movf	SendErrorStatus@errorMsg,w
  2748     0CAE  0084               	movwf	4
  2749     0CAF  120A  118A  2100  120A  158A  	fcall	stringtab
  2750     0CB4  120A  158A  2142  120A  158A  	fcall	_SendUART_debug
  2751     0CB9                     l2789:
  2752                           
  2753                           ;ina226.c: 493:         errorMsg++;
  2754     0CB9  3001               	movlw	1
  2755     0CBA  07F8               	addwf	SendErrorStatus@errorMsg,f
  2756     0CBB  1803               	skipnc
  2757     0CBC  0AF9               	incf	SendErrorStatus@errorMsg+1,f
  2758     0CBD  3000               	movlw	0
  2759     0CBE  07F9               	addwf	SendErrorStatus@errorMsg+1,f
  2760     0CBF                     l2791:
  2761                           
  2762                           ;ina226.c: 490:     while (*errorMsg)
  2763     0CBF  0879               	movf	SendErrorStatus@errorMsg+1,w
  2764     0CC0  1283               	bcf	3,5	;RP0=0, select bank0
  2765     0CC1  1303               	bcf	3,6	;RP1=0, select bank0
  2766     0CC2  00FF               	movwf	btemp+1
  2767     0CC3  0878               	movf	SendErrorStatus@errorMsg,w
  2768     0CC4  0084               	movwf	4
  2769     0CC5  120A  118A  2100  120A  158A  	fcall	stringtab
  2770     0CCA  3A00               	xorlw	0
  2771     0CCB  1D03               	skipz
  2772     0CCC  2CCE               	goto	u2151
  2773     0CCD  2CCF               	goto	u2150
  2774     0CCE                     u2151:
  2775     0CCE  2CAB               	goto	l2787
  2776     0CCF                     u2150:
  2777     0CCF                     l440:
  2778     0CCF  0008               	return
  2779     0CD0                     __end_of_SendErrorStatus:
  2780                           
  2781                           	psect	text2
  2782     179F                     __ptext2:	
  2783 ;; *************** function _Interrupt_Init *****************
  2784 ;; Defined at:
  2785 ;;		line 7 in file "interrupts.c"
  2786 ;; Parameters:    Size  Location     Type
  2787 ;;		None
  2788 ;; Auto vars:     Size  Location     Type
  2789 ;;		None
  2790 ;; Return value:  Size  Location     Type
  2791 ;;                  1    wreg      void 
  2792 ;; Registers used:
  2793 ;;		wreg, status,2, status,0
  2794 ;; Tracked objects:
  2795 ;;		On entry : 0/0
  2796 ;;		On exit  : 0/0
  2797 ;;		Unchanged: 0/0
  2798 ;; Data sizes:     COMMON   BANK0   BANK1   BANK3   BANK2
  2799 ;;      Params:         0       0       0       0       0
  2800 ;;      Locals:         0       0       0       0       0
  2801 ;;      Temps:          0       0       0       0       0
  2802 ;;      Totals:         0       0       0       0       0
  2803 ;;Total ram usage:        0 bytes
  2804 ;; Hardware stack levels used: 1
  2805 ;; Hardware stack levels required when called: 1
  2806 ;; This function calls:
  2807 ;;		Nothing
  2808 ;; This function is called by:
  2809 ;;		_main
  2810 ;; This function uses a non-reentrant model
  2811 ;;
  2812                           
  2813     179F                     _Interrupt_Init:	
  2814                           ;psect for function _Interrupt_Init
  2815                           
  2816     179F                     l2651:	
  2817                           ;incstack = 0
  2818                           ; Regs used in _Interrupt_Init: [wreg+status,2+status,0]
  2819                           
  2820                           
  2821                           ;interrupts.c: 10:     OPTION_REGbits.T0CS=0;
  2822     179F  1683               	bsf	3,5	;RP0=1, select bank1
  2823     17A0  1303               	bcf	3,6	;RP1=0, select bank1
  2824     17A1  1281               	bcf	1,5	;volatile
  2825                           
  2826                           ;interrupts.c: 11:     OPTION_REGbits.PSA=0;
  2827     17A2  1181               	bcf	1,3	;volatile
  2828     17A3                     l2653:
  2829                           
  2830                           ;interrupts.c: 12:     OPTION_REGbits.PS=0b000;
  2831     17A3  30F8               	movlw	-8
  2832     17A4  0581               	andwf	1,f	;volatile
  2833     17A5                     l2655:
  2834                           
  2835                           ;interrupts.c: 13:     INTCONbits.T0IE=0;
  2836     17A5  128B               	bcf	11,5	;volatile
  2837     17A6                     l2657:
  2838                           
  2839                           ;interrupts.c: 16:     T1CONbits.TMR1ON=0;
  2840     17A6  1283               	bcf	3,5	;RP0=0, select bank0
  2841     17A7  1303               	bcf	3,6	;RP1=0, select bank0
  2842     17A8  1010               	bcf	16,0	;volatile
  2843     17A9                     l2659:
  2844                           
  2845                           ;interrupts.c: 17:     T1CONbits.TMR1CS=0;
  2846     17A9  1090               	bcf	16,1	;volatile
  2847                           
  2848                           ;interrupts.c: 18:     T1CONbits.T1CKPS=0b00;
  2849     17AA  30CF               	movlw	-49
  2850     17AB  0590               	andwf	16,f	;volatile
  2851     17AC                     l2661:
  2852                           
  2853                           ;interrupts.c: 21:     INTCONbits.GIE=1;
  2854     17AC  178B               	bsf	11,7	;volatile
  2855     17AD                     l2663:
  2856                           
  2857                           ;interrupts.c: 22:     INTCONbits.PEIE=1;
  2858     17AD  170B               	bsf	11,6	;volatile
  2859     17AE                     l126:
  2860     17AE  0008               	return
  2861     17AF                     __end_of_Interrupt_Init:
  2862                           
  2863                           	psect	text3
  2864     1791                     __ptext3:	
  2865 ;; *************** function _I2C_Init *****************
  2866 ;; Defined at:
  2867 ;;		line 18 in file "hw_i2c.c"
  2868 ;; Parameters:    Size  Location     Type
  2869 ;;		None
  2870 ;; Auto vars:     Size  Location     Type
  2871 ;;		None
  2872 ;; Return value:  Size  Location     Type
  2873 ;;                  1    wreg      void 
  2874 ;; Registers used:
  2875 ;;		wreg, status,2, status,0
  2876 ;; Tracked objects:
  2877 ;;		On entry : 0/0
  2878 ;;		On exit  : 0/0
  2879 ;;		Unchanged: 0/0
  2880 ;; Data sizes:     COMMON   BANK0   BANK1   BANK3   BANK2
  2881 ;;      Params:         0       0       0       0       0
  2882 ;;      Locals:         0       0       0       0       0
  2883 ;;      Temps:          0       0       0       0       0
  2884 ;;      Totals:         0       0       0       0       0
  2885 ;;Total ram usage:        0 bytes
  2886 ;; Hardware stack levels used: 1
  2887 ;; Hardware stack levels required when called: 1
  2888 ;; This function calls:
  2889 ;;		Nothing
  2890 ;; This function is called by:
  2891 ;;		_main
  2892 ;; This function uses a non-reentrant model
  2893 ;;
  2894                           
  2895     1791                     _I2C_Init:	
  2896                           ;psect for function _I2C_Init
  2897                           
  2898     1791                     l2665:	
  2899                           ;incstack = 0
  2900                           ; Regs used in _I2C_Init: [wreg+status,2+status,0]
  2901                           
  2902                           
  2903                           ;hw_i2c.c: 21:     SSPCONbits.SSPEN=1;
  2904     1791  1283               	bcf	3,5	;RP0=0, select bank0
  2905     1792  1303               	bcf	3,6	;RP1=0, select bank0
  2906     1793  1694               	bsf	20,5	;volatile
  2907     1794                     l2667:
  2908                           
  2909                           ;hw_i2c.c: 22:     SSPCONbits.SSPM=0b1000;
  2910     1794  0814               	movf	20,w	;volatile
  2911     1795  39F0               	andlw	-16
  2912     1796  3808               	iorlw	8
  2913     1797  0094               	movwf	20	;volatile
  2914     1798                     l2669:
  2915                           
  2916                           ;hw_i2c.c: 23:     SSPADD=19;
  2917     1798  3013               	movlw	19
  2918     1799  1683               	bsf	3,5	;RP0=1, select bank1
  2919     179A  1303               	bcf	3,6	;RP1=0, select bank1
  2920     179B  0093               	movwf	19	;volatile
  2921     179C                     l2671:
  2922                           
  2923                           ;hw_i2c.c: 49:     SSPCON2=0;
  2924     179C  0191               	clrf	17	;volatile
  2925     179D                     l2673:
  2926                           
  2927                           ;hw_i2c.c: 51:     SSPSTATbits.SMP=1;
  2928     179D  1794               	bsf	20,7	;volatile
  2929     179E                     l160:
  2930     179E  0008               	return
  2931     179F                     __end_of_I2C_Init:
  2932                           
  2933                           	psect	text4
  2934     00D0                     __ptext4:	
  2935 ;; *************** function _Global_Init *****************
  2936 ;; Defined at:
  2937 ;;		line 5 in file "inits.c"
  2938 ;; Parameters:    Size  Location     Type
  2939 ;;		None
  2940 ;; Auto vars:     Size  Location     Type
  2941 ;;		None
  2942 ;; Return value:  Size  Location     Type
  2943 ;;                  1    wreg      void 
  2944 ;; Registers used:
  2945 ;;		wreg, status,2, status,0
  2946 ;; Tracked objects:
  2947 ;;		On entry : 0/0
  2948 ;;		On exit  : 0/0
  2949 ;;		Unchanged: 0/0
  2950 ;; Data sizes:     COMMON   BANK0   BANK1   BANK3   BANK2
  2951 ;;      Params:         0       0       0       0       0
  2952 ;;      Locals:         0       0       0       0       0
  2953 ;;      Temps:          0       0       0       0       0
  2954 ;;      Totals:         0       0       0       0       0
  2955 ;;Total ram usage:        0 bytes
  2956 ;; Hardware stack levels used: 1
  2957 ;; Hardware stack levels required when called: 1
  2958 ;; This function calls:
  2959 ;;		Nothing
  2960 ;; This function is called by:
  2961 ;;		_main
  2962 ;; This function uses a non-reentrant model
  2963 ;;
  2964                           
  2965     00D0                     _Global_Init:	
  2966                           ;psect for function _Global_Init
  2967                           
  2968     00D0                     l2589:	
  2969                           ;incstack = 0
  2970                           ; Regs used in _Global_Init: [wreg+status,2+status,0]
  2971                           
  2972                           
  2973                           ;inits.c: 8:     OSCCONbits.IRCF=0b111;
  2974     00D0  3070               	movlw	112
  2975     00D1  1683               	bsf	3,5	;RP0=1, select bank1
  2976     00D2  1303               	bcf	3,6	;RP1=0, select bank1
  2977     00D3  048F               	iorwf	15,f	;volatile
  2978     00D4                     l2591:
  2979                           
  2980                           ;inits.c: 9:     OSCCONbits.OSTS=0;
  2981     00D4  118F               	bcf	15,3	;volatile
  2982     00D5                     l2593:
  2983                           
  2984                           ;inits.c: 10:     OSCCONbits.SCS=1;
  2985     00D5  140F               	bsf	15,0	;volatile
  2986     00D6                     l2595:
  2987                           
  2988                           ;inits.c: 17:     ANSEL=0b10101111;
  2989     00D6  30AF               	movlw	175
  2990     00D7  1683               	bsf	3,5	;RP0=1, select bank3
  2991     00D8  1703               	bsf	3,6	;RP1=1, select bank3
  2992     00D9  0088               	movwf	8	;volatile
  2993     00DA                     l2597:
  2994                           
  2995                           ;inits.c: 18:     ANSELH=0x00;
  2996     00DA  0189               	clrf	9	;volatile
  2997     00DB                     l2599:
  2998                           
  2999                           ;inits.c: 20:     TRISC0=0;
  3000     00DB  1683               	bsf	3,5	;RP0=1, select bank1
  3001     00DC  1303               	bcf	3,6	;RP1=0, select bank1
  3002     00DD  1007               	bcf	7,0	;volatile
  3003     00DE                     l2601:
  3004                           
  3005                           ;inits.c: 21:     TRISC1=0;
  3006     00DE  1087               	bcf	7,1	;volatile
  3007     00DF                     l2603:
  3008                           
  3009                           ;inits.c: 22:     TRISC2=0;
  3010     00DF  1107               	bcf	7,2	;volatile
  3011     00E0                     l2605:
  3012                           
  3013                           ;inits.c: 23:     TRISC3=1;
  3014     00E0  1587               	bsf	7,3	;volatile
  3015     00E1                     l2607:
  3016                           
  3017                           ;inits.c: 24:     TRISC4=1;
  3018     00E1  1607               	bsf	7,4	;volatile
  3019     00E2                     l2609:
  3020                           
  3021                           ;inits.c: 25:     TRISC5=0;
  3022     00E2  1287               	bcf	7,5	;volatile
  3023     00E3                     l2611:
  3024                           
  3025                           ;inits.c: 26:     TRISC6=0;
  3026     00E3  1307               	bcf	7,6	;volatile
  3027     00E4                     l2613:
  3028                           
  3029                           ;inits.c: 27:     TRISC7=1;
  3030     00E4  1787               	bsf	7,7	;volatile
  3031     00E5                     l2615:
  3032                           
  3033                           ;inits.c: 29:     TRISA0=1;
  3034     00E5  1405               	bsf	5,0	;volatile
  3035     00E6                     l2617:
  3036                           
  3037                           ;inits.c: 30:     TRISA1=1;
  3038     00E6  1485               	bsf	5,1	;volatile
  3039     00E7                     l2619:
  3040                           
  3041                           ;inits.c: 31:     TRISA2=1;
  3042     00E7  1505               	bsf	5,2	;volatile
  3043     00E8                     l2621:
  3044                           
  3045                           ;inits.c: 32:     TRISA3=1;
  3046     00E8  1585               	bsf	5,3	;volatile
  3047     00E9                     l2623:
  3048                           
  3049                           ;inits.c: 33:     TRISA4=0;
  3050     00E9  1205               	bcf	5,4	;volatile
  3051     00EA                     l2625:
  3052                           
  3053                           ;inits.c: 34:     TRISA5=1;
  3054     00EA  1685               	bsf	5,5	;volatile
  3055     00EB                     l2627:
  3056                           
  3057                           ;inits.c: 35:     TRISA6=0;
  3058     00EB  1305               	bcf	5,6	;volatile
  3059     00EC                     l2629:
  3060                           
  3061                           ;inits.c: 36:     TRISA7=1;
  3062     00EC  1785               	bsf	5,7	;volatile
  3063     00ED                     l2631:
  3064                           
  3065                           ;inits.c: 38:     TRISB0=0;
  3066     00ED  1006               	bcf	6,0	;volatile
  3067     00EE                     l2633:
  3068                           
  3069                           ;inits.c: 39:     TRISB1=0;
  3070     00EE  1086               	bcf	6,1	;volatile
  3071     00EF                     l2635:
  3072                           
  3073                           ;inits.c: 40:     TRISB2=0;
  3074     00EF  1106               	bcf	6,2	;volatile
  3075     00F0                     l2637:
  3076                           
  3077                           ;inits.c: 41:     TRISB3=0;
  3078     00F0  1186               	bcf	6,3	;volatile
  3079     00F1                     l2639:
  3080                           
  3081                           ;inits.c: 42:     TRISB4=0;
  3082     00F1  1206               	bcf	6,4	;volatile
  3083     00F2                     l2641:
  3084                           
  3085                           ;inits.c: 43:     TRISB5=0;
  3086     00F2  1286               	bcf	6,5	;volatile
  3087     00F3                     l2643:
  3088                           
  3089                           ;inits.c: 44:     TRISB6=0;
  3090     00F3  1306               	bcf	6,6	;volatile
  3091     00F4                     l2645:
  3092                           
  3093                           ;inits.c: 45:     TRISB7=0;
  3094     00F4  1386               	bcf	6,7	;volatile
  3095     00F5                     l2647:
  3096                           
  3097                           ;inits.c: 47:     PORTBbits.RB5=0;
  3098     00F5  1283               	bcf	3,5	;RP0=0, select bank0
  3099     00F6  1303               	bcf	3,6	;RP1=0, select bank0
  3100     00F7  1286               	bcf	6,5	;volatile
  3101     00F8                     l2649:
  3102                           
  3103                           ;inits.c: 48:     PORTBbits.RB4=0;
  3104     00F8  1206               	bcf	6,4	;volatile
  3105     00F9                     l111:
  3106     00F9  0008               	return
  3107     00FA                     __end_of_Global_Init:
  3108                           
  3109                           	psect	text5
  3110     0D5B                     __ptext5:	
  3111 ;; *************** function _DisplayVoltage *****************
  3112 ;; Defined at:
  3113 ;;		line 97 in file "adc.c"
  3114 ;; Parameters:    Size  Location     Type
  3115 ;;		None
  3116 ;; Auto vars:     Size  Location     Type
  3117 ;;  voltage         2   46[BANK0 ] unsigned int 
  3118 ;; Return value:  Size  Location     Type
  3119 ;;                  2   44[BANK0 ] unsigned int 
  3120 ;; Registers used:
  3121 ;;		wreg, fsr0l, fsr0h, status,2, status,0, btemp+1, pclath, cstack
  3122 ;; Tracked objects:
  3123 ;;		On entry : 0/0
  3124 ;;		On exit  : 0/0
  3125 ;;		Unchanged: 0/0
  3126 ;; Data sizes:     COMMON   BANK0   BANK1   BANK3   BANK2
  3127 ;;      Params:         0       2       0       0       0
  3128 ;;      Locals:         0       2       0       0       0
  3129 ;;      Temps:          0       0       0       0       0
  3130 ;;      Totals:         0       4       0       0       0
  3131 ;;Total ram usage:        4 bytes
  3132 ;; Hardware stack levels used: 1
  3133 ;; Hardware stack levels required when called: 7
  3134 ;; This function calls:
  3135 ;;		_ReadVoltageAverage
  3136 ;;		___lwdiv
  3137 ;;		___lwmod
  3138 ;;		_printf
  3139 ;; This function is called by:
  3140 ;;		_main
  3141 ;; This function uses a non-reentrant model
  3142 ;;
  3143                           
  3144     0D5B                     _DisplayVoltage:	
  3145                           ;psect for function _DisplayVoltage
  3146                           
  3147     0D5B                     l3587:	
  3148                           ;incstack = 0
  3149                           ; Regs used in _DisplayVoltage: [wreg-fsr0h+status,2+status,0+btemp+1+pclath+cstack]
  3150                           
  3151                           
  3152                           ;adc.c: 99:     unsigned int voltage = ReadVoltageAverage() ;
  3153     0D5B  120A  118A  247A  120A  158A  	fcall	_ReadVoltageAverage
  3154     0D60  1283               	bcf	3,5	;RP0=0, select bank0
  3155     0D61  1303               	bcf	3,6	;RP1=0, select bank0
  3156     0D62  0834               	movf	?_ReadVoltageAverage+1,w
  3157     0D63  00CF               	movwf	DisplayVoltage@voltage+1
  3158     0D64  0833               	movf	?_ReadVoltageAverage,w
  3159     0D65  00CE               	movwf	DisplayVoltage@voltage
  3160                           
  3161                           ;adc.c: 101:     if (voltage%100 < 10)
  3162     0D66  3064               	movlw	100
  3163     0D67  00F2               	movwf	___lwmod@divisor
  3164     0D68  3000               	movlw	0
  3165     0D69  00F3               	movwf	___lwmod@divisor+1
  3166     0D6A  084F               	movf	DisplayVoltage@voltage+1,w
  3167     0D6B  00F5               	movwf	___lwmod@dividend+1
  3168     0D6C  084E               	movf	DisplayVoltage@voltage,w
  3169     0D6D  00F4               	movwf	___lwmod@dividend
  3170     0D6E  120A  158A  20C8  120A  158A  	fcall	___lwmod
  3171     0D73  3000               	movlw	0
  3172     0D74  0273               	subwf	?___lwmod+1,w
  3173     0D75  300A               	movlw	10
  3174     0D76  1903               	skipnz
  3175     0D77  0272               	subwf	?___lwmod,w
  3176     0D78  1803               	skipnc
  3177     0D79  2D7B               	goto	u3091
  3178     0D7A  2D7C               	goto	u3090
  3179     0D7B                     u3091:
  3180     0D7B  2DAE               	goto	l3591
  3181     0D7C                     u3090:
  3182     0D7C                     l3589:
  3183                           
  3184                           ;adc.c: 102:     {;adc.c: 103:         printf("12V Batt Voltage: %d.0%dV \r\n", voltage 
      +                          / 100, voltage % 100);
  3185     0D7C  30BB               	movlw	low (STR_17| (0+32768))
  3186     0D7D  1283               	bcf	3,5	;RP0=0, select bank0
  3187     0D7E  1303               	bcf	3,6	;RP1=0, select bank0
  3188     0D7F  00BA               	movwf	printf@fmt
  3189     0D80  3081               	movlw	high (STR_17| (0+32768))
  3190     0D81  00BB               	movwf	printf@fmt+1
  3191     0D82  3064               	movlw	100
  3192     0D83  00F2               	movwf	___lwdiv@divisor
  3193     0D84  3000               	movlw	0
  3194     0D85  00F3               	movwf	___lwdiv@divisor+1
  3195     0D86  084F               	movf	DisplayVoltage@voltage+1,w
  3196     0D87  00F5               	movwf	___lwdiv@dividend+1
  3197     0D88  084E               	movf	DisplayVoltage@voltage,w
  3198     0D89  00F4               	movwf	___lwdiv@dividend
  3199     0D8A  120A  158A  2100  120A  158A  	fcall	___lwdiv
  3200     0D8F  0873               	movf	?___lwdiv+1,w
  3201     0D90  1283               	bcf	3,5	;RP0=0, select bank0
  3202     0D91  1303               	bcf	3,6	;RP1=0, select bank0
  3203     0D92  00BD               	movwf	?_printf+3
  3204     0D93  0872               	movf	?___lwdiv,w
  3205     0D94  00BC               	movwf	?_printf+2
  3206     0D95  3064               	movlw	100
  3207     0D96  00F2               	movwf	___lwmod@divisor
  3208     0D97  3000               	movlw	0
  3209     0D98  00F3               	movwf	___lwmod@divisor+1
  3210     0D99  084F               	movf	DisplayVoltage@voltage+1,w
  3211     0D9A  00F5               	movwf	___lwmod@dividend+1
  3212     0D9B  084E               	movf	DisplayVoltage@voltage,w
  3213     0D9C  00F4               	movwf	___lwmod@dividend
  3214     0D9D  120A  158A  20C8  120A  158A  	fcall	___lwmod
  3215     0DA2  0873               	movf	?___lwmod+1,w
  3216     0DA3  1283               	bcf	3,5	;RP0=0, select bank0
  3217     0DA4  1303               	bcf	3,6	;RP1=0, select bank0
  3218     0DA5  00BF               	movwf	?_printf+5
  3219     0DA6  0872               	movf	?___lwmod,w
  3220     0DA7  00BE               	movwf	?_printf+4
  3221     0DA8  160A  118A  27AF  120A  158A  	fcall	_printf
  3222                           
  3223                           ;adc.c: 104:     } else
  3224     0DAD  2DDF               	goto	l3593
  3225     0DAE                     l3591:
  3226                           
  3227                           ;adc.c: 105:     {;adc.c: 106:         printf("12V Batt voltage  Voltage: %d.%dV \r\n", 
      +                          voltage / 100, voltage % 100);
  3228     0DAE  304F               	movlw	low (STR_18| (0+32768))
  3229     0DAF  1283               	bcf	3,5	;RP0=0, select bank0
  3230     0DB0  1303               	bcf	3,6	;RP1=0, select bank0
  3231     0DB1  00BA               	movwf	printf@fmt
  3232     0DB2  3081               	movlw	high (STR_18| (0+32768))
  3233     0DB3  00BB               	movwf	printf@fmt+1
  3234     0DB4  3064               	movlw	100
  3235     0DB5  00F2               	movwf	___lwdiv@divisor
  3236     0DB6  3000               	movlw	0
  3237     0DB7  00F3               	movwf	___lwdiv@divisor+1
  3238     0DB8  084F               	movf	DisplayVoltage@voltage+1,w
  3239     0DB9  00F5               	movwf	___lwdiv@dividend+1
  3240     0DBA  084E               	movf	DisplayVoltage@voltage,w
  3241     0DBB  00F4               	movwf	___lwdiv@dividend
  3242     0DBC  120A  158A  2100  120A  158A  	fcall	___lwdiv
  3243     0DC1  0873               	movf	?___lwdiv+1,w
  3244     0DC2  1283               	bcf	3,5	;RP0=0, select bank0
  3245     0DC3  1303               	bcf	3,6	;RP1=0, select bank0
  3246     0DC4  00BD               	movwf	?_printf+3
  3247     0DC5  0872               	movf	?___lwdiv,w
  3248     0DC6  00BC               	movwf	?_printf+2
  3249     0DC7  3064               	movlw	100
  3250     0DC8  00F2               	movwf	___lwmod@divisor
  3251     0DC9  3000               	movlw	0
  3252     0DCA  00F3               	movwf	___lwmod@divisor+1
  3253     0DCB  084F               	movf	DisplayVoltage@voltage+1,w
  3254     0DCC  00F5               	movwf	___lwmod@dividend+1
  3255     0DCD  084E               	movf	DisplayVoltage@voltage,w
  3256     0DCE  00F4               	movwf	___lwmod@dividend
  3257     0DCF  120A  158A  20C8  120A  158A  	fcall	___lwmod
  3258     0DD4  0873               	movf	?___lwmod+1,w
  3259     0DD5  1283               	bcf	3,5	;RP0=0, select bank0
  3260     0DD6  1303               	bcf	3,6	;RP1=0, select bank0
  3261     0DD7  00BF               	movwf	?_printf+5
  3262     0DD8  0872               	movf	?___lwmod,w
  3263     0DD9  00BE               	movwf	?_printf+4
  3264     0DDA  160A  118A  27AF  120A  158A  	fcall	_printf
  3265     0DDF                     l3593:
  3266                           
  3267                           ;adc.c: 109:     return voltage;
  3268     0DDF  1283               	bcf	3,5	;RP0=0, select bank0
  3269     0DE0  1303               	bcf	3,6	;RP1=0, select bank0
  3270     0DE1  084F               	movf	DisplayVoltage@voltage+1,w
  3271     0DE2  00CD               	movwf	?_DisplayVoltage+1
  3272     0DE3  084E               	movf	DisplayVoltage@voltage,w
  3273     0DE4  00CC               	movwf	?_DisplayVoltage
  3274     0DE5                     l475:
  3275     0DE5  0008               	return
  3276     0DE6                     __end_of_DisplayVoltage:
  3277                           
  3278                           	psect	text6
  3279     17AF                     __ptext6:	
  3280 ;; *************** function _printf *****************
  3281 ;; Defined at:
  3282 ;;		line 5 in file "C:\Program Files\Microchip\xc8\v2.50\pic\sources\c99\common\printf.c"
  3283 ;; Parameters:    Size  Location     Type
  3284 ;;  fmt             2   26[BANK0 ] PTR const unsigned char 
  3285 ;;		 -> STR_18(37), STR_17(29), STR_6(19), STR_5(18), 
  3286 ;;		 -> STR_4(19), STR_3(18), STR_2(37), STR_1(34), 
  3287 ;; Auto vars:     Size  Location     Type
  3288 ;;  ret             2    0        int 
  3289 ;;  ap              1   32[BANK0 ] PTR void [1]
  3290 ;;		 -> ?_printf(2), 
  3291 ;; Return value:  Size  Location     Type
  3292 ;;                  2   26[BANK0 ] int 
  3293 ;; Registers used:
  3294 ;;		wreg, fsr0l, fsr0h, status,2, status,0, btemp+1, pclath, cstack
  3295 ;; Tracked objects:
  3296 ;;		On entry : 0/0
  3297 ;;		On exit  : 0/0
  3298 ;;		Unchanged: 0/0
  3299 ;; Data sizes:     COMMON   BANK0   BANK1   BANK3   BANK2
  3300 ;;      Params:         0       6       0       0       0
  3301 ;;      Locals:         0       1       0       0       0
  3302 ;;      Temps:          0       0       0       0       0
  3303 ;;      Totals:         0       7       0       0       0
  3304 ;;Total ram usage:        7 bytes
  3305 ;; Hardware stack levels used: 1
  3306 ;; Hardware stack levels required when called: 6
  3307 ;; This function calls:
  3308 ;;		_vfprintf
  3309 ;; This function is called by:
  3310 ;;		_main
  3311 ;;		_DisplayVoltage
  3312 ;; This function uses a non-reentrant model
  3313 ;;
  3314                           
  3315     17AF                     _printf:	
  3316                           ;psect for function _printf
  3317                           
  3318     17AF                     l3341:	
  3319                           ;incstack = 0
  3320                           ; Regs used in _printf: [wreg-fsr0h+status,2+status,0+btemp+1+pclath+cstack]
  3321                           
  3322     17AF  303C               	movlw	(low ((?_printf| 0+2)))& (0+255)
  3323     17B0  1283               	bcf	3,5	;RP0=0, select bank0
  3324     17B1  1303               	bcf	3,6	;RP1=0, select bank0
  3325     17B2  00C0               	movwf	printf@ap
  3326     17B3                     l3343:
  3327     17B3  01B4               	clrf	vfprintf@fp
  3328     17B4  083A               	movf	printf@fmt,w
  3329     17B5  00B5               	movwf	vfprintf@fmt
  3330     17B6  083B               	movf	printf@fmt+1,w
  3331     17B7  00B6               	movwf	vfprintf@fmt+1
  3332     17B8  3040               	movlw	(low (printf@ap| 0))& (0+255)
  3333     17B9  00B7               	movwf	vfprintf@ap
  3334     17BA  120A  158A  201E  160A  118A  	fcall	_vfprintf
  3335     17BF                     l1024:
  3336     17BF  0008               	return
  3337     17C0                     __end_of_printf:
  3338                           
  3339                           	psect	text7
  3340     081E                     __ptext7:	
  3341 ;; *************** function _vfprintf *****************
  3342 ;; Defined at:
  3343 ;;		line 1817 in file "C:\Program Files\Microchip\xc8\v2.50\pic\sources\c99\common\doprnt.c"
  3344 ;; Parameters:    Size  Location     Type
  3345 ;;  fp              1   20[BANK0 ] PTR struct _IO_FILE
  3346 ;;		 -> NULL(0), 
  3347 ;;  fmt             2   21[BANK0 ] PTR const unsigned char 
  3348 ;;		 -> STR_18(37), STR_17(29), STR_6(19), STR_5(18), 
  3349 ;;		 -> STR_4(19), STR_3(18), STR_2(37), STR_1(34), 
  3350 ;;  ap              1   23[BANK0 ] PTR PTR void 
  3351 ;;		 -> printf@ap(1), 
  3352 ;; Auto vars:     Size  Location     Type
  3353 ;;  cfmt            2   24[BANK0 ] PTR unsigned char 
  3354 ;;		 -> STR_18(37), STR_17(29), STR_6(19), STR_5(18), 
  3355 ;;		 -> STR_4(19), STR_3(18), STR_2(37), STR_1(34), 
  3356 ;; Return value:  Size  Location     Type
  3357 ;;                  2   20[BANK0 ] int 
  3358 ;; Registers used:
  3359 ;;		wreg, fsr0l, fsr0h, status,2, status,0, btemp+1, pclath, cstack
  3360 ;; Tracked objects:
  3361 ;;		On entry : 0/0
  3362 ;;		On exit  : 0/0
  3363 ;;		Unchanged: 0/0
  3364 ;; Data sizes:     COMMON   BANK0   BANK1   BANK3   BANK2
  3365 ;;      Params:         0       4       0       0       0
  3366 ;;      Locals:         0       2       0       0       0
  3367 ;;      Temps:          0       0       0       0       0
  3368 ;;      Totals:         0       6       0       0       0
  3369 ;;Total ram usage:        6 bytes
  3370 ;; Hardware stack levels used: 1
  3371 ;; Hardware stack levels required when called: 5
  3372 ;; This function calls:
  3373 ;;		_vfpfcnvrt
  3374 ;; This function is called by:
  3375 ;;		_printf
  3376 ;; This function uses a non-reentrant model
  3377 ;;
  3378                           
  3379     081E                     _vfprintf:	
  3380                           ;psect for function _vfprintf
  3381                           
  3382     081E                     l3331:	
  3383                           ;incstack = 0
  3384                           ; Regs used in _vfprintf: [wreg-fsr0h+status,2+status,0+btemp+1+pclath+cstack]
  3385                           
  3386                           
  3387                           ;C:\Program Files\Microchip\xc8\v2.50\pic\sources\c99\common\doprnt.c: 1817: int vfprint
      +                          f(FILE *fp, const char *fmt, va_list ap);C:\Program Files\Microchip\xc8\v2.50\pic\source
      +                          s\c99\common\doprnt.c: 1818: {;C:\Program Files\Microchip\xc8\v2.50\pic\sources\c99\comm
      +                          on\doprnt.c: 1820:     char *cfmt;;C:\Program Files\Microchip\xc8\v2.50\pic\sources\c99\
      +                          common\doprnt.c: 1822:     cfmt = (char *)fmt;
  3388     081E  1283               	bcf	3,5	;RP0=0, select bank0
  3389     081F  1303               	bcf	3,6	;RP1=0, select bank0
  3390     0820  0835               	movf	vfprintf@fmt,w
  3391     0821  00B8               	movwf	vfprintf@cfmt
  3392     0822  0836               	movf	vfprintf@fmt+1,w
  3393     0823  00B9               	movwf	vfprintf@cfmt+1
  3394                           
  3395                           ;C:\Program Files\Microchip\xc8\v2.50\pic\sources\c99\common\doprnt.c: 1826:     while (
      +                          *cfmt) {
  3396     0824  2830               	goto	l3335
  3397     0825                     l3333:
  3398                           
  3399                           ;C:\Program Files\Microchip\xc8\v2.50\pic\sources\c99\common\doprnt.c: 1830:    vfpfcnvr
      +                          t(fp, &cfmt, ap);
  3400     0825  0834               	movf	vfprintf@fp,w
  3401     0826  00A5               	movwf	vfpfcnvrt@fp
  3402     0827  3038               	movlw	(low (vfprintf@cfmt| 0))& (0+255)
  3403     0828  00A6               	movwf	vfpfcnvrt@fmt
  3404     0829  0837               	movf	vfprintf@ap,w
  3405     082A  00A7               	movwf	vfpfcnvrt@ap
  3406     082B  120A  158A  26EE  120A  158A  	fcall	_vfpfcnvrt
  3407     0830                     l3335:
  3408                           
  3409                           ;C:\Program Files\Microchip\xc8\v2.50\pic\sources\c99\common\doprnt.c: 1826:     while (
      +                          *cfmt) {
  3410     0830  1283               	bcf	3,5	;RP0=0, select bank0
  3411     0831  1303               	bcf	3,6	;RP1=0, select bank0
  3412     0832  0839               	movf	vfprintf@cfmt+1,w
  3413     0833  00FF               	movwf	btemp+1
  3414     0834  0838               	movf	vfprintf@cfmt,w
  3415     0835  0084               	movwf	4
  3416     0836  120A  118A  2100  120A  158A  	fcall	stringtab
  3417     083B  3A00               	xorlw	0
  3418     083C  1D03               	skipz
  3419     083D  283F               	goto	u2811
  3420     083E  2840               	goto	u2810
  3421     083F                     u2811:
  3422     083F  2825               	goto	l3333
  3423     0840                     u2810:
  3424     0840                     l3337:
  3425                           
  3426                           ;C:\Program Files\Microchip\xc8\v2.50\pic\sources\c99\common\doprnt.c: 1835:  return 0;
  3427     0840  01B4               	clrf	?_vfprintf
  3428     0841  01B5               	clrf	?_vfprintf+1
  3429     0842                     l1068:
  3430     0842  0008               	return
  3431     0843                     __end_of_vfprintf:
  3432                           
  3433                           	psect	text8
  3434     0EEE                     __ptext8:	
  3435 ;; *************** function _vfpfcnvrt *****************
  3436 ;; Defined at:
  3437 ;;		line 1177 in file "C:\Program Files\Microchip\xc8\v2.50\pic\sources\c99\common\doprnt.c"
  3438 ;; Parameters:    Size  Location     Type
  3439 ;;  fp              1    5[BANK0 ] PTR struct _IO_FILE
  3440 ;;		 -> NULL(0), 
  3441 ;;  fmt             1    6[BANK0 ] PTR PTR unsigned char 
  3442 ;;		 -> vfprintf@cfmt(2), 
  3443 ;;  ap              1    7[BANK0 ] PTR PTR void 
  3444 ;;		 -> printf@ap(1), 
  3445 ;; Auto vars:     Size  Location     Type
  3446 ;;  convarg         4   15[BANK0 ] struct .
  3447 ;;  cp              2   13[BANK0 ] PTR unsigned char 
  3448 ;;		 -> STR_18(37), STR_17(29), STR_6(19), STR_5(18), 
  3449 ;;		 -> STR_4(19), STR_3(18), STR_2(37), STR_1(34), 
  3450 ;;  c               1   19[BANK0 ] unsigned char 
  3451 ;;  done            1   12[BANK0 ] _Bool 
  3452 ;; Return value:  Size  Location     Type
  3453 ;;                  1    wreg      void 
  3454 ;; Registers used:
  3455 ;;		wreg, fsr0l, fsr0h, status,2, status,0, btemp+1, pclath, cstack
  3456 ;; Tracked objects:
  3457 ;;		On entry : 0/0
  3458 ;;		On exit  : 0/0
  3459 ;;		Unchanged: 0/0
  3460 ;; Data sizes:     COMMON   BANK0   BANK1   BANK3   BANK2
  3461 ;;      Params:         0       3       0       0       0
  3462 ;;      Locals:         0       8       0       0       0
  3463 ;;      Temps:          0       4       0       0       0
  3464 ;;      Totals:         0      15       0       0       0
  3465 ;;Total ram usage:       15 bytes
  3466 ;; Hardware stack levels used: 1
  3467 ;; Hardware stack levels required when called: 4
  3468 ;; This function calls:
  3469 ;;		___awdiv
  3470 ;;		___awmod
  3471 ;;		_abs
  3472 ;;		_fputc
  3473 ;; This function is called by:
  3474 ;;		_vfprintf
  3475 ;; This function uses a non-reentrant model
  3476 ;;
  3477                           
  3478     0EEE                     _vfpfcnvrt:	
  3479                           ;psect for function _vfpfcnvrt
  3480                           
  3481     0EEE                     l3203:	
  3482                           ;incstack = 0
  3483                           ; Regs used in _vfpfcnvrt: [wreg-fsr0h+status,2+status,0+btemp+1+pclath+cstack]
  3484                           
  3485                           
  3486                           ;C:\Program Files\Microchip\xc8\v2.50\pic\sources\c99\common\doprnt.c: 1177: vfpfcnvrt(F
      +                          ILE *fp, char *fmt[], va_list ap);C:\Program Files\Microchip\xc8\v2.50\pic\sources\c99\c
      +                          ommon\doprnt.c: 1178: {;C:\Program Files\Microchip\xc8\v2.50\pic\sources\c99\common\dopr
      +                          nt.c: 1179:     char c, *cp;;C:\Program Files\Microchip\xc8\v2.50\pic\sources\c99\common
      +                          \doprnt.c: 1180:     _Bool done;;C:\Program Files\Microchip\xc8\v2.50\pic\sources\c99\co
      +                          mmon\doprnt.c: 1188:  } convarg;;C:\Program Files\Microchip\xc8\v2.50\pic\sources\c99\co
      +                          mmon\doprnt.c: 1201:     if ((*fmt)[0] == '%') {
  3487     0EEE  1283               	bcf	3,5	;RP0=0, select bank0
  3488     0EEF  1303               	bcf	3,6	;RP1=0, select bank0
  3489     0EF0  0826               	movf	vfpfcnvrt@fmt,w
  3490     0EF1  0084               	movwf	4
  3491     0EF2  1383               	bcf	3,7	;select IRP bank0
  3492     0EF3  0800               	movf	0,w
  3493     0EF4  00A8               	movwf	??_vfpfcnvrt
  3494     0EF5  0A84               	incf	4,f
  3495     0EF6  0800               	movf	0,w
  3496     0EF7  00A9               	movwf	??_vfpfcnvrt+1
  3497     0EF8  0829               	movf	??_vfpfcnvrt+1,w
  3498     0EF9  00FF               	movwf	btemp+1
  3499     0EFA  0828               	movf	??_vfpfcnvrt,w
  3500     0EFB  0084               	movwf	4
  3501     0EFC  120A  118A  2100  120A  158A  	fcall	stringtab
  3502     0F01  3A25               	xorlw	37
  3503     0F02  1D03               	skipz
  3504     0F03  2F05               	goto	u2571
  3505     0F04  2F06               	goto	u2570
  3506     0F05                     u2571:
  3507     0F05  2FE0               	goto	l3249
  3508     0F06                     u2570:
  3509     0F06                     l3205:
  3510                           
  3511                           ;C:\Program Files\Microchip\xc8\v2.50\pic\sources\c99\common\doprnt.c: 1202:         ++*
      +                          fmt;
  3512     0F06  0826               	movf	vfpfcnvrt@fmt,w
  3513     0F07  0084               	movwf	4
  3514     0F08  3001               	movlw	1
  3515     0F09  1383               	bcf	3,7	;select IRP bank0
  3516     0F0A  0780               	addwf	0,f
  3517     0F0B  0A84               	incf	4,f
  3518     0F0C  1803               	skipnc
  3519     0F0D  0A80               	incf	0,f
  3520     0F0E                     l3207:
  3521                           
  3522                           ;C:\Program Files\Microchip\xc8\v2.50\pic\sources\c99\common\doprnt.c: 1204:         fla
      +                          gs = width = 0;
  3523     0F0E  01E4               	clrf	_width
  3524     0F0F  01E5               	clrf	_width+1
  3525     0F10  3000               	movlw	0
  3526     0F11  00EA               	movwf	_flags
  3527     0F12                     l3209:
  3528                           
  3529                           ;C:\Program Files\Microchip\xc8\v2.50\pic\sources\c99\common\doprnt.c: 1205:         pre
      +                          c = -1;
  3530     0F12  30FF               	movlw	255
  3531     0F13  00E6               	movwf	_prec
  3532     0F14  30FF               	movlw	255
  3533     0F15  00E7               	movwf	_prec+1
  3534     0F16                     l3211:
  3535                           
  3536                           ;C:\Program Files\Microchip\xc8\v2.50\pic\sources\c99\common\doprnt.c: 1291:   cp = *fmt
      +                          ;
  3537     0F16  0826               	movf	vfpfcnvrt@fmt,w
  3538     0F17  0084               	movwf	4
  3539     0F18  0800               	movf	0,w
  3540     0F19  00AD               	movwf	vfpfcnvrt@cp
  3541     0F1A  0A84               	incf	4,f
  3542     0F1B  0800               	movf	0,w
  3543     0F1C  0384               	decf	4,f
  3544     0F1D  00AE               	movwf	vfpfcnvrt@cp+1
  3545     0F1E                     l3213:
  3546                           
  3547                           ;C:\Program Files\Microchip\xc8\v2.50\pic\sources\c99\common\doprnt.c: 1361:   if (*cp =
      +                          = 'd' || *cp == 'i') {
  3548     0F1E  082E               	movf	vfpfcnvrt@cp+1,w
  3549     0F1F  00FF               	movwf	btemp+1
  3550     0F20  082D               	movf	vfpfcnvrt@cp,w
  3551     0F21  0084               	movwf	4
  3552     0F22  120A  118A  2100  120A  158A  	fcall	stringtab
  3553     0F27  3A64               	xorlw	100
  3554     0F28  1903               	skipnz
  3555     0F29  2F2B               	goto	u2581
  3556     0F2A  2F2C               	goto	u2580
  3557     0F2B                     u2581:
  3558     0F2B  2F3A               	goto	l3217
  3559     0F2C                     u2580:
  3560     0F2C                     l3215:
  3561     0F2C  082E               	movf	vfpfcnvrt@cp+1,w
  3562     0F2D  00FF               	movwf	btemp+1
  3563     0F2E  082D               	movf	vfpfcnvrt@cp,w
  3564     0F2F  0084               	movwf	4
  3565     0F30  120A  118A  2100  120A  158A  	fcall	stringtab
  3566     0F35  3A69               	xorlw	105
  3567     0F36  1D03               	skipz
  3568     0F37  2F39               	goto	u2591
  3569     0F38  2F3A               	goto	u2590
  3570     0F39                     u2591:
  3571     0F39  2FD5               	goto	l3245
  3572     0F3A                     u2590:
  3573     0F3A                     l3217:
  3574                           
  3575                           ;C:\Program Files\Microchip\xc8\v2.50\pic\sources\c99\common\doprnt.c: 1404:    convarg.
      +                          sint = (vfpf_sint_t)(int)(*(int *)__va_arg(*(int **)ap, (int)0));
  3576     0F3A  0827               	movf	vfpfcnvrt@ap,w
  3577     0F3B  0084               	movwf	4
  3578     0F3C  1383               	bcf	3,7	;select IRP bank0
  3579     0F3D  0800               	movf	0,w
  3580     0F3E  00FF               	movwf	btemp+1
  3581     0F3F  3002               	movlw	2
  3582     0F40  0780               	addwf	0,f
  3583     0F41  087F               	movf	btemp+1,w
  3584     0F42  0084               	movwf	4
  3585     0F43  0800               	movf	0,w
  3586     0F44  00AF               	movwf	vfpfcnvrt@convarg
  3587     0F45  0A84               	incf	4,f
  3588     0F46  0800               	movf	0,w
  3589     0F47  00B0               	movwf	vfpfcnvrt@convarg+1
  3590     0F48                     l3219:
  3591                           
  3592                           ;C:\Program Files\Microchip\xc8\v2.50\pic\sources\c99\common\doprnt.c: 1406:    *fmt = c
      +                          p+1;
  3593     0F48  3001               	movlw	1
  3594     0F49  00A8               	movwf	??_vfpfcnvrt
  3595     0F4A  0828               	movf	??_vfpfcnvrt,w
  3596     0F4B  072D               	addwf	vfpfcnvrt@cp,w
  3597     0F4C  00AA               	movwf	??_vfpfcnvrt+2
  3598     0F4D  082E               	movf	vfpfcnvrt@cp+1,w
  3599     0F4E  00A9               	movwf	??_vfpfcnvrt+1
  3600     0F4F  1803               	skipnc
  3601     0F50  0AA9               	incf	??_vfpfcnvrt+1,f
  3602     0F51  1BA8               	btfsc	??_vfpfcnvrt,7
  3603     0F52  03A9               	decf	??_vfpfcnvrt+1,f
  3604     0F53  0829               	movf	??_vfpfcnvrt+1,w
  3605     0F54  00AB               	movwf	??_vfpfcnvrt+3
  3606     0F55  0826               	movf	vfpfcnvrt@fmt,w
  3607     0F56  0084               	movwf	4
  3608     0F57  082A               	movf	??_vfpfcnvrt+2,w
  3609     0F58  0080               	movwf	0
  3610     0F59  082B               	movf	??_vfpfcnvrt+3,w
  3611     0F5A  0A84               	incf	4,f
  3612     0F5B  0080               	movwf	0
  3613     0F5C  0384               	decf	4,f
  3614     0F5D                     l3221:
  3615                           
  3616                           ;C:\Program Files\Microchip\xc8\v2.50\pic\sources\c99\common\doprnt.c: 1408:    c = size
      +                          of(dbuf);
  3617     0F5D  3020               	movlw	32
  3618     0F5E  00B3               	movwf	vfpfcnvrt@c
  3619     0F5F                     l3223:
  3620                           
  3621                           ;C:\Program Files\Microchip\xc8\v2.50\pic\sources\c99\common\doprnt.c: 1409:    done = c
      +                          onvarg.sint < 0;
  3622     0F5F  1BB0               	btfsc	vfpfcnvrt@convarg+1,7
  3623     0F60  2F62               	goto	u2601
  3624     0F61  2F64               	goto	u2600
  3625     0F62                     u2601:
  3626     0F62  3001               	movlw	1
  3627     0F63  2F65               	goto	u2610
  3628     0F64                     u2600:
  3629     0F64  3000               	movlw	0
  3630     0F65                     u2610:
  3631     0F65  00AC               	movwf	vfpfcnvrt@done
  3632     0F66                     l3225:
  3633                           
  3634                           ;C:\Program Files\Microchip\xc8\v2.50\pic\sources\c99\common\doprnt.c: 1411:     dbuf[--
      +                          c] = abs(convarg.sint % 10) + '0';
  3635     0F66  3001               	movlw	1
  3636     0F67  02B3               	subwf	vfpfcnvrt@c,f
  3637     0F68  0833               	movf	vfpfcnvrt@c,w
  3638     0F69  3EA0               	addlw	(low (_dbuf| 0))& (0+255)
  3639     0F6A  0084               	movwf	4
  3640     0F6B  300A               	movlw	10
  3641     0F6C  00F2               	movwf	___awmod@divisor
  3642     0F6D  3000               	movlw	0
  3643     0F6E  00F3               	movwf	___awmod@divisor+1
  3644     0F6F  0830               	movf	vfpfcnvrt@convarg+1,w
  3645     0F70  00F5               	movwf	___awmod@dividend+1
  3646     0F71  082F               	movf	vfpfcnvrt@convarg,w
  3647     0F72  00F4               	movwf	___awmod@dividend
  3648     0F73  120A  158A  221C  120A  158A  	fcall	___awmod
  3649     0F78  0873               	movf	?___awmod+1,w
  3650     0F79  00F9               	movwf	abs@a+1
  3651     0F7A  0872               	movf	?___awmod,w
  3652     0F7B  00F8               	movwf	abs@a
  3653     0F7C  160A  118A  27D2  120A  158A  	fcall	_abs
  3654     0F81  0878               	movf	?_abs,w
  3655     0F82  3E30               	addlw	48
  3656     0F83  1383               	bcf	3,7	;select IRP bank1
  3657     0F84  0080               	movwf	0
  3658     0F85                     l3227:
  3659                           
  3660                           ;C:\Program Files\Microchip\xc8\v2.50\pic\sources\c99\common\doprnt.c: 1412:     convarg
      +                          .sint /= 10;
  3661     0F85  300A               	movlw	10
  3662     0F86  00F2               	movwf	___awdiv@divisor
  3663     0F87  3000               	movlw	0
  3664     0F88  00F3               	movwf	___awdiv@divisor+1
  3665     0F89  1283               	bcf	3,5	;RP0=0, select bank0
  3666     0F8A  1303               	bcf	3,6	;RP1=0, select bank0
  3667     0F8B  0830               	movf	vfpfcnvrt@convarg+1,w
  3668     0F8C  00F5               	movwf	___awdiv@dividend+1
  3669     0F8D  082F               	movf	vfpfcnvrt@convarg,w
  3670     0F8E  00F4               	movwf	___awdiv@dividend
  3671     0F8F  120A  158A  2382  120A  158A  	fcall	___awdiv
  3672     0F94  0873               	movf	?___awdiv+1,w
  3673     0F95  1283               	bcf	3,5	;RP0=0, select bank0
  3674     0F96  1303               	bcf	3,6	;RP1=0, select bank0
  3675     0F97  00B0               	movwf	vfpfcnvrt@convarg+1
  3676     0F98  0872               	movf	?___awdiv,w
  3677     0F99  00AF               	movwf	vfpfcnvrt@convarg
  3678     0F9A                     l3229:
  3679                           
  3680                           ;C:\Program Files\Microchip\xc8\v2.50\pic\sources\c99\common\doprnt.c: 1416:    } while 
      +                          (convarg.sint != 0 && c != 0);
  3681     0F9A  082F               	movf	vfpfcnvrt@convarg,w
  3682     0F9B  0430               	iorwf	vfpfcnvrt@convarg+1,w
  3683     0F9C  1903               	btfsc	3,2
  3684     0F9D  2F9F               	goto	u2621
  3685     0F9E  2FA0               	goto	u2620
  3686     0F9F                     u2621:
  3687     0F9F  2FA5               	goto	l3233
  3688     0FA0                     u2620:
  3689     0FA0                     l3231:
  3690     0FA0  0833               	movf	vfpfcnvrt@c,w
  3691     0FA1  1D03               	btfss	3,2
  3692     0FA2  2FA4               	goto	u2631
  3693     0FA3  2FA5               	goto	u2630
  3694     0FA4                     u2631:
  3695     0FA4  2F66               	goto	l3225
  3696     0FA5                     u2630:
  3697     0FA5                     l3233:
  3698                           
  3699                           ;C:\Program Files\Microchip\xc8\v2.50\pic\sources\c99\common\doprnt.c: 1417:    if (c !=
      +                           0 && done) {
  3700     0FA5  0833               	movf	vfpfcnvrt@c,w
  3701     0FA6  1903               	btfsc	3,2
  3702     0FA7  2FA9               	goto	u2641
  3703     0FA8  2FAA               	goto	u2640
  3704     0FA9                     u2641:
  3705     0FA9  2FCE               	goto	l3243
  3706     0FAA                     u2640:
  3707     0FAA                     l3235:
  3708     0FAA  082C               	movf	vfpfcnvrt@done,w
  3709     0FAB  1903               	btfsc	3,2
  3710     0FAC  2FAE               	goto	u2651
  3711     0FAD  2FAF               	goto	u2650
  3712     0FAE                     u2651:
  3713     0FAE  2FCE               	goto	l3243
  3714     0FAF                     u2650:
  3715     0FAF                     l3237:
  3716                           
  3717                           ;C:\Program Files\Microchip\xc8\v2.50\pic\sources\c99\common\doprnt.c: 1418:     dbuf[--
      +                          c] = '-';
  3718     0FAF  3001               	movlw	1
  3719     0FB0  02B3               	subwf	vfpfcnvrt@c,f
  3720     0FB1  0833               	movf	vfpfcnvrt@c,w
  3721     0FB2  3EA0               	addlw	(low (_dbuf| 0))& (0+255)
  3722     0FB3  0084               	movwf	4
  3723     0FB4  302D               	movlw	45
  3724     0FB5  1383               	bcf	3,7	;select IRP bank1
  3725     0FB6  0080               	movwf	0
  3726     0FB7  2FCE               	goto	l3243
  3727     0FB8                     l3239:
  3728                           
  3729                           ;C:\Program Files\Microchip\xc8\v2.50\pic\sources\c99\common\doprnt.c: 1424:     fputc(d
      +                          buf[c++], fp);
  3730     0FB8  0833               	movf	vfpfcnvrt@c,w
  3731     0FB9  3EA0               	addlw	(low (_dbuf| 0))& (0+255)
  3732     0FBA  0084               	movwf	4
  3733     0FBB  1383               	bcf	3,7	;select IRP bank1
  3734     0FBC  0800               	movf	0,w
  3735     0FBD  00A8               	movwf	??_vfpfcnvrt
  3736     0FBE  01A9               	clrf	??_vfpfcnvrt+1
  3737     0FBF  0828               	movf	??_vfpfcnvrt,w
  3738     0FC0  00F6               	movwf	fputc@c
  3739     0FC1  0829               	movf	??_vfpfcnvrt+1,w
  3740     0FC2  00F7               	movwf	fputc@c+1
  3741     0FC3  0825               	movf	vfpfcnvrt@fp,w
  3742     0FC4  00F8               	movwf	fputc@fp
  3743     0FC5  120A  158A  2273  120A  158A  	fcall	_fputc
  3744     0FCA                     l3241:
  3745     0FCA  3001               	movlw	1
  3746     0FCB  1283               	bcf	3,5	;RP0=0, select bank0
  3747     0FCC  1303               	bcf	3,6	;RP1=0, select bank0
  3748     0FCD  07B3               	addwf	vfpfcnvrt@c,f
  3749     0FCE                     l3243:
  3750                           
  3751                           ;C:\Program Files\Microchip\xc8\v2.50\pic\sources\c99\common\doprnt.c: 1423:    while (c
      +                           != sizeof(dbuf)) {
  3752     0FCE  3020               	movlw	32
  3753     0FCF  0633               	xorwf	vfpfcnvrt@c,w
  3754     0FD0  1D03               	btfss	3,2
  3755     0FD1  2FD3               	goto	u2661
  3756     0FD2  2FD4               	goto	u2660
  3757     0FD3                     u2661:
  3758     0FD3  2FB8               	goto	l3239
  3759     0FD4                     u2660:
  3760     0FD4  2FFF               	goto	l1062
  3761     0FD5                     l3245:
  3762                           
  3763                           ;C:\Program Files\Microchip\xc8\v2.50\pic\sources\c99\common\doprnt.c: 1806:         ++*
      +                          fmt;
  3764     0FD5  1283               	bcf	3,5	;RP0=0, select bank0
  3765     0FD6  1303               	bcf	3,6	;RP1=0, select bank0
  3766     0FD7  0826               	movf	vfpfcnvrt@fmt,w
  3767     0FD8  0084               	movwf	4
  3768     0FD9  3001               	movlw	1
  3769     0FDA  1383               	bcf	3,7	;select IRP bank0
  3770     0FDB  0780               	addwf	0,f
  3771     0FDC  0A84               	incf	4,f
  3772     0FDD  1803               	skipnc
  3773     0FDE  0A80               	incf	0,f
  3774     0FDF  2FFF               	goto	l1062
  3775     0FE0                     l3249:
  3776                           
  3777                           ;C:\Program Files\Microchip\xc8\v2.50\pic\sources\c99\common\doprnt.c: 1811:     fputc((
      +                          int)(*fmt)[0], fp);
  3778     0FE0  0826               	movf	vfpfcnvrt@fmt,w
  3779     0FE1  0084               	movwf	4
  3780     0FE2  1383               	bcf	3,7	;select IRP bank0
  3781     0FE3  0800               	movf	0,w
  3782     0FE4  00A8               	movwf	??_vfpfcnvrt
  3783     0FE5  0A84               	incf	4,f
  3784     0FE6  0800               	movf	0,w
  3785     0FE7  00A9               	movwf	??_vfpfcnvrt+1
  3786     0FE8  0829               	movf	??_vfpfcnvrt+1,w
  3787     0FE9  00FF               	movwf	btemp+1
  3788     0FEA  0828               	movf	??_vfpfcnvrt,w
  3789     0FEB  0084               	movwf	4
  3790     0FEC  120A  118A  2100  120A  158A  	fcall	stringtab
  3791     0FF1  00AA               	movwf	??_vfpfcnvrt+2
  3792     0FF2  01AB               	clrf	??_vfpfcnvrt+3
  3793     0FF3  082A               	movf	??_vfpfcnvrt+2,w
  3794     0FF4  00F6               	movwf	fputc@c
  3795     0FF5  082B               	movf	??_vfpfcnvrt+3,w
  3796     0FF6  00F7               	movwf	fputc@c+1
  3797     0FF7  0825               	movf	vfpfcnvrt@fp,w
  3798     0FF8  00F8               	movwf	fputc@fp
  3799     0FF9  120A  158A  2273  120A  158A  	fcall	_fputc
  3800     0FFE  2FD5               	goto	l3245
  3801     0FFF                     l1062:
  3802     0FFF  0008               	return
  3803     1000                     __end_of_vfpfcnvrt:
  3804                           
  3805                           	psect	text9
  3806     0A73                     __ptext9:	
  3807 ;; *************** function _fputc *****************
  3808 ;; Defined at:
  3809 ;;		line 8 in file "C:\Program Files\Microchip\xc8\v2.50\pic\sources\c99\common\nf_fputc.c"
  3810 ;; Parameters:    Size  Location     Type
  3811 ;;  c               2    6[COMMON] int 
  3812 ;;  fp              1    8[COMMON] PTR struct _IO_FILE
  3813 ;;		 -> NULL(0), 
  3814 ;; Auto vars:     Size  Location     Type
  3815 ;;		None
  3816 ;; Return value:  Size  Location     Type
  3817 ;;                  2    6[COMMON] int 
  3818 ;; Registers used:
  3819 ;;		wreg, fsr0l, fsr0h, status,2, status,0, pclath, cstack
  3820 ;; Tracked objects:
  3821 ;;		On entry : 0/0
  3822 ;;		On exit  : 0/0
  3823 ;;		Unchanged: 0/0
  3824 ;; Data sizes:     COMMON   BANK0   BANK1   BANK3   BANK2
  3825 ;;      Params:         3       0       0       0       0
  3826 ;;      Locals:         0       0       0       0       0
  3827 ;;      Temps:          0       5       0       0       0
  3828 ;;      Totals:         3       5       0       0       0
  3829 ;;Total ram usage:        8 bytes
  3830 ;; Hardware stack levels used: 1
  3831 ;; Hardware stack levels required when called: 3
  3832 ;; This function calls:
  3833 ;;		_putch
  3834 ;; This function is called by:
  3835 ;;		_vfpfcnvrt
  3836 ;; This function uses a non-reentrant model
  3837 ;;
  3838                           
  3839     0A73                     _fputc:	
  3840                           ;psect for function _fputc
  3841                           
  3842     0A73                     l2257:	
  3843                           ;incstack = 0
  3844                           ; Regs used in _fputc: [wreg-fsr0h+status,2+status,0+pclath+cstack]
  3845                           
  3846     0A73  0878               	movf	fputc@fp,w
  3847     0A74  1903               	btfsc	3,2
  3848     0A75  2A77               	goto	u1541
  3849     0A76  2A78               	goto	u1540
  3850     0A77                     u1541:
  3851     0A77  2A7D               	goto	l2261
  3852     0A78                     u1540:
  3853     0A78                     l2259:
  3854     0A78  0878               	movf	fputc@fp,w
  3855     0A79  1D03               	btfss	3,2
  3856     0A7A  2A7C               	goto	u1551
  3857     0A7B  2A7D               	goto	u1550
  3858     0A7C                     u1551:
  3859     0A7C  2A84               	goto	l2263
  3860     0A7D                     u1550:
  3861     0A7D                     l2261:
  3862     0A7D  0876               	movf	fputc@c,w
  3863     0A7E  160A  118A  276D  120A  158A  	fcall	_putch
  3864     0A83  2AC9               	goto	l1087
  3865     0A84                     l2263:
  3866     0A84  0878               	movf	fputc@fp,w
  3867     0A85  3E08               	addlw	8
  3868     0A86  0084               	movwf	4
  3869     0A87  1383               	bcf	3,7	;select IRP bank0
  3870     0A88  0800               	movf	0,w
  3871     0A89  1283               	bcf	3,5	;RP0=0, select bank0
  3872     0A8A  1303               	bcf	3,6	;RP1=0, select bank0
  3873     0A8B  00A0               	movwf	??_fputc
  3874     0A8C  0A84               	incf	4,f
  3875     0A8D  0800               	movf	0,w
  3876     0A8E  00A1               	movwf	??_fputc+1
  3877     0A8F  0820               	movf	??_fputc,w
  3878     0A90  0421               	iorwf	??_fputc+1,w
  3879     0A91  1903               	btfsc	3,2
  3880     0A92  2A94               	goto	u1561
  3881     0A93  2A95               	goto	u1560
  3882     0A94                     u1561:
  3883     0A94  2AB2               	goto	l2267
  3884     0A95                     u1560:
  3885     0A95                     l2265:
  3886     0A95  0878               	movf	fputc@fp,w
  3887     0A96  3E08               	addlw	8
  3888     0A97  0084               	movwf	4
  3889     0A98  0800               	movf	0,w
  3890     0A99  00A0               	movwf	??_fputc
  3891     0A9A  0A84               	incf	4,f
  3892     0A9B  0800               	movf	0,w
  3893     0A9C  00A1               	movwf	??_fputc+1
  3894     0A9D  0A78               	incf	fputc@fp,w
  3895     0A9E  0084               	movwf	4
  3896     0A9F  0800               	movf	0,w
  3897     0AA0  00A2               	movwf	??_fputc+2
  3898     0AA1  0A84               	incf	4,f
  3899     0AA2  0800               	movf	0,w
  3900     0AA3  00A3               	movwf	??_fputc+3
  3901     0AA4  0823               	movf	??_fputc+3,w
  3902     0AA5  3A80               	xorlw	128
  3903     0AA6  00A4               	movwf	??_fputc+4
  3904     0AA7  0821               	movf	??_fputc+1,w
  3905     0AA8  3A80               	xorlw	128
  3906     0AA9  0224               	subwf	??_fputc+4,w
  3907     0AAA  1D03               	skipz
  3908     0AAB  2AAE               	goto	u1575
  3909     0AAC  0820               	movf	??_fputc,w
  3910     0AAD  0222               	subwf	??_fputc+2,w
  3911     0AAE                     u1575:
  3912     0AAE  1803               	skipnc
  3913     0AAF  2AB1               	goto	u1571
  3914     0AB0  2AB2               	goto	u1570
  3915     0AB1                     u1571:
  3916     0AB1  2AC9               	goto	l1087
  3917     0AB2                     u1570:
  3918     0AB2                     l2267:
  3919     0AB2  0A78               	incf	fputc@fp,w
  3920     0AB3  0084               	movwf	4
  3921     0AB4  1383               	bcf	3,7	;select IRP bank0
  3922     0AB5  0800               	movf	0,w
  3923     0AB6  1283               	bcf	3,5	;RP0=0, select bank0
  3924     0AB7  1303               	bcf	3,6	;RP1=0, select bank0
  3925     0AB8  00A0               	movwf	??_fputc
  3926     0AB9  0878               	movf	fputc@fp,w
  3927     0ABA  0084               	movwf	4
  3928     0ABB  0800               	movf	0,w
  3929     0ABC  0720               	addwf	??_fputc,w
  3930     0ABD  00A1               	movwf	??_fputc+1
  3931     0ABE  0821               	movf	??_fputc+1,w
  3932     0ABF  0084               	movwf	4
  3933     0AC0  0876               	movf	fputc@c,w
  3934     0AC1  0080               	movwf	0
  3935     0AC2  0A78               	incf	fputc@fp,w
  3936     0AC3  0084               	movwf	4
  3937     0AC4  3001               	movlw	1
  3938     0AC5  0780               	addwf	0,f
  3939     0AC6  0A84               	incf	4,f
  3940     0AC7  1803               	skipnc
  3941     0AC8  0A80               	incf	0,f
  3942     0AC9                     l1087:
  3943     0AC9  0008               	return
  3944     0ACA                     __end_of_fputc:
  3945                           
  3946                           	psect	text10
  3947     176D                     __ptext10:	
  3948 ;; *************** function _putch *****************
  3949 ;; Defined at:
  3950 ;;		line 43 in file "sw_uart.c"
  3951 ;; Parameters:    Size  Location     Type
  3952 ;;  txData          1    wreg     unsigned char 
  3953 ;; Auto vars:     Size  Location     Type
  3954 ;;  txData          1    5[COMMON] unsigned char 
  3955 ;; Return value:  Size  Location     Type
  3956 ;;                  1    wreg      void 
  3957 ;; Registers used:
  3958 ;;		wreg, status,2, status,0, pclath, cstack
  3959 ;; Tracked objects:
  3960 ;;		On entry : 0/0
  3961 ;;		On exit  : 0/0
  3962 ;;		Unchanged: 0/0
  3963 ;; Data sizes:     COMMON   BANK0   BANK1   BANK3   BANK2
  3964 ;;      Params:         0       0       0       0       0
  3965 ;;      Locals:         1       0       0       0       0
  3966 ;;      Temps:          0       0       0       0       0
  3967 ;;      Totals:         1       0       0       0       0
  3968 ;;Total ram usage:        1 bytes
  3969 ;; Hardware stack levels used: 1
  3970 ;; Hardware stack levels required when called: 2
  3971 ;; This function calls:
  3972 ;;		_SendUART_debug
  3973 ;; This function is called by:
  3974 ;;		_fputc
  3975 ;; This function uses a non-reentrant model
  3976 ;;
  3977                           
  3978     176D                     _putch:	
  3979                           ;psect for function _putch
  3980                           
  3981                           
  3982                           ;incstack = 0
  3983                           ; Regs used in _putch: [wreg+status,2+status,0+pclath+cstack]
  3984                           ;putch@txData stored from wreg
  3985     176D  00F5               	movwf	putch@txData
  3986     176E                     l2161:
  3987                           
  3988                           ;sw_uart.c: 43: void putch(char txData);sw_uart.c: 44: {;sw_uart.c: 45:      SendUART_de
      +                          bug(txData);
  3989     176E  0875               	movf	putch@txData,w
  3990     176F  120A  158A  2142  160A  118A  	fcall	_SendUART_debug
  3991     1774                     l213:
  3992     1774  0008               	return
  3993     1775                     __end_of_putch:
  3994                           
  3995                           	psect	text11
  3996     17D2                     __ptext11:	
  3997 ;; *************** function _abs *****************
  3998 ;; Defined at:
  3999 ;;		line 1 in file "C:\Program Files\Microchip\xc8\v2.50\pic\sources\c99\common\abs.c"
  4000 ;; Parameters:    Size  Location     Type
  4001 ;;  a               2    8[COMMON] int 
  4002 ;; Auto vars:     Size  Location     Type
  4003 ;;		None
  4004 ;; Return value:  Size  Location     Type
  4005 ;;                  2    8[COMMON] int 
  4006 ;; Registers used:
  4007 ;;		wreg, status,2, status,0
  4008 ;; Tracked objects:
  4009 ;;		On entry : 0/0
  4010 ;;		On exit  : 0/0
  4011 ;;		Unchanged: 0/0
  4012 ;; Data sizes:     COMMON   BANK0   BANK1   BANK3   BANK2
  4013 ;;      Params:         2       0       0       0       0
  4014 ;;      Locals:         0       0       0       0       0
  4015 ;;      Temps:          0       2       0       0       0
  4016 ;;      Totals:         2       2       0       0       0
  4017 ;;Total ram usage:        4 bytes
  4018 ;; Hardware stack levels used: 1
  4019 ;; Hardware stack levels required when called: 1
  4020 ;; This function calls:
  4021 ;;		Nothing
  4022 ;; This function is called by:
  4023 ;;		_vfpfcnvrt
  4024 ;; This function uses a non-reentrant model
  4025 ;;
  4026                           
  4027     17D2                     _abs:	
  4028                           ;psect for function _abs
  4029                           
  4030     17D2                     l3183:	
  4031                           ;incstack = 0
  4032                           ; Regs used in _abs: [wreg+status,2+status,0]
  4033                           
  4034     17D2  1BF9               	btfsc	abs@a+1,7
  4035     17D3  2FD5               	goto	u2561
  4036     17D4  2FD6               	goto	u2560
  4037     17D5                     u2561:
  4038     17D5  2FD7               	goto	l3187
  4039     17D6                     u2560:
  4040     17D6                     l3185:
  4041     17D6  2FE4               	goto	l1075
  4042     17D7                     l3187:
  4043     17D7  0978               	comf	abs@a,w
  4044     17D8  1283               	bcf	3,5	;RP0=0, select bank0
  4045     17D9  1303               	bcf	3,6	;RP1=0, select bank0
  4046     17DA  00A0               	movwf	??_abs
  4047     17DB  0979               	comf	abs@a+1,w
  4048     17DC  00A1               	movwf	??_abs+1
  4049     17DD  0AA0               	incf	??_abs,f
  4050     17DE  1903               	skipnz
  4051     17DF  0AA1               	incf	??_abs+1,f
  4052     17E0  0820               	movf	??_abs,w
  4053     17E1  00F8               	movwf	?_abs
  4054     17E2  0821               	movf	??_abs+1,w
  4055     17E3  00F9               	movwf	?_abs+1
  4056     17E4                     l1075:
  4057     17E4  0008               	return
  4058     17E5                     __end_of_abs:
  4059                           
  4060                           	psect	text12
  4061     0A1C                     __ptext12:	
  4062 ;; *************** function ___awmod *****************
  4063 ;; Defined at:
  4064 ;;		line 5 in file "C:\Program Files\Microchip\xc8\v2.50\pic\sources\c99\common\awmod.c"
  4065 ;; Parameters:    Size  Location     Type
  4066 ;;  divisor         2    2[COMMON] int 
  4067 ;;  dividend        2    4[COMMON] int 
  4068 ;; Auto vars:     Size  Location     Type
  4069 ;;  sign            1    7[COMMON] unsigned char 
  4070 ;;  counter         1    6[COMMON] unsigned char 
  4071 ;; Return value:  Size  Location     Type
  4072 ;;                  2    2[COMMON] int 
  4073 ;; Registers used:
  4074 ;;		wreg, status,2, status,0
  4075 ;; Tracked objects:
  4076 ;;		On entry : 0/0
  4077 ;;		On exit  : 0/0
  4078 ;;		Unchanged: 0/0
  4079 ;; Data sizes:     COMMON   BANK0   BANK1   BANK3   BANK2
  4080 ;;      Params:         4       0       0       0       0
  4081 ;;      Locals:         2       0       0       0       0
  4082 ;;      Temps:          0       0       0       0       0
  4083 ;;      Totals:         6       0       0       0       0
  4084 ;;Total ram usage:        6 bytes
  4085 ;; Hardware stack levels used: 1
  4086 ;; Hardware stack levels required when called: 1
  4087 ;; This function calls:
  4088 ;;		Nothing
  4089 ;; This function is called by:
  4090 ;;		_vfpfcnvrt
  4091 ;; This function uses a non-reentrant model
  4092 ;;
  4093                           
  4094     0A1C                     ___awmod:	
  4095                           ;psect for function ___awmod
  4096                           
  4097     0A1C                     l2219:	
  4098                           ;incstack = 0
  4099                           ; Regs used in ___awmod: [wreg+status,2+status,0]
  4100                           
  4101     0A1C  01F7               	clrf	___awmod@sign
  4102     0A1D                     l2221:
  4103     0A1D  1FF5               	btfss	___awmod@dividend+1,7
  4104     0A1E  2A20               	goto	u1451
  4105     0A1F  2A21               	goto	u1450
  4106     0A20                     u1451:
  4107     0A20  2A28               	goto	l2227
  4108     0A21                     u1450:
  4109     0A21                     l2223:
  4110     0A21  09F4               	comf	___awmod@dividend,f
  4111     0A22  09F5               	comf	___awmod@dividend+1,f
  4112     0A23  0AF4               	incf	___awmod@dividend,f
  4113     0A24  1903               	skipnz
  4114     0A25  0AF5               	incf	___awmod@dividend+1,f
  4115     0A26                     l2225:
  4116     0A26  3001               	movlw	1
  4117     0A27  00F7               	movwf	___awmod@sign
  4118     0A28                     l2227:
  4119     0A28  1FF3               	btfss	___awmod@divisor+1,7
  4120     0A29  2A2B               	goto	u1461
  4121     0A2A  2A2C               	goto	u1460
  4122     0A2B                     u1461:
  4123     0A2B  2A31               	goto	l2231
  4124     0A2C                     u1460:
  4125     0A2C                     l2229:
  4126     0A2C  09F2               	comf	___awmod@divisor,f
  4127     0A2D  09F3               	comf	___awmod@divisor+1,f
  4128     0A2E  0AF2               	incf	___awmod@divisor,f
  4129     0A2F  1903               	skipnz
  4130     0A30  0AF3               	incf	___awmod@divisor+1,f
  4131     0A31                     l2231:
  4132     0A31  0872               	movf	___awmod@divisor,w
  4133     0A32  0473               	iorwf	___awmod@divisor+1,w
  4134     0A33  1903               	btfsc	3,2
  4135     0A34  2A36               	goto	u1471
  4136     0A35  2A37               	goto	u1470
  4137     0A36                     u1471:
  4138     0A36  2A64               	goto	l2249
  4139     0A37                     u1470:
  4140     0A37                     l2233:
  4141     0A37  3001               	movlw	1
  4142     0A38  00F6               	movwf	___awmod@counter
  4143     0A39  2A43               	goto	l2239
  4144     0A3A                     l2235:
  4145     0A3A  3001               	movlw	1
  4146     0A3B                     u1485:
  4147     0A3B  1003               	clrc
  4148     0A3C  0DF2               	rlf	___awmod@divisor,f
  4149     0A3D  0DF3               	rlf	___awmod@divisor+1,f
  4150     0A3E  3EFF               	addlw	-1
  4151     0A3F  1D03               	skipz
  4152     0A40  2A3B               	goto	u1485
  4153     0A41                     l2237:
  4154     0A41  3001               	movlw	1
  4155     0A42  07F6               	addwf	___awmod@counter,f
  4156     0A43                     l2239:
  4157     0A43  1FF3               	btfss	___awmod@divisor+1,7
  4158     0A44  2A46               	goto	u1491
  4159     0A45  2A47               	goto	u1490
  4160     0A46                     u1491:
  4161     0A46  2A3A               	goto	l2235
  4162     0A47                     u1490:
  4163     0A47                     l2241:
  4164     0A47  0873               	movf	___awmod@divisor+1,w
  4165     0A48  0275               	subwf	___awmod@dividend+1,w
  4166     0A49  1D03               	skipz
  4167     0A4A  2A4D               	goto	u1505
  4168     0A4B  0872               	movf	___awmod@divisor,w
  4169     0A4C  0274               	subwf	___awmod@dividend,w
  4170     0A4D                     u1505:
  4171     0A4D  1C03               	skipc
  4172     0A4E  2A50               	goto	u1501
  4173     0A4F  2A51               	goto	u1500
  4174     0A50                     u1501:
  4175     0A50  2A57               	goto	l2245
  4176     0A51                     u1500:
  4177     0A51                     l2243:
  4178     0A51  0872               	movf	___awmod@divisor,w
  4179     0A52  02F4               	subwf	___awmod@dividend,f
  4180     0A53  0873               	movf	___awmod@divisor+1,w
  4181     0A54  1C03               	skipc
  4182     0A55  03F5               	decf	___awmod@dividend+1,f
  4183     0A56  02F5               	subwf	___awmod@dividend+1,f
  4184     0A57                     l2245:
  4185     0A57  3001               	movlw	1
  4186     0A58                     u1515:
  4187     0A58  1003               	clrc
  4188     0A59  0CF3               	rrf	___awmod@divisor+1,f
  4189     0A5A  0CF2               	rrf	___awmod@divisor,f
  4190     0A5B  3EFF               	addlw	-1
  4191     0A5C  1D03               	skipz
  4192     0A5D  2A58               	goto	u1515
  4193     0A5E                     l2247:
  4194     0A5E  3001               	movlw	1
  4195     0A5F  02F6               	subwf	___awmod@counter,f
  4196     0A60  1D03               	btfss	3,2
  4197     0A61  2A63               	goto	u1521
  4198     0A62  2A64               	goto	u1520
  4199     0A63                     u1521:
  4200     0A63  2A47               	goto	l2241
  4201     0A64                     u1520:
  4202     0A64                     l2249:
  4203     0A64  0877               	movf	___awmod@sign,w
  4204     0A65  1903               	btfsc	3,2
  4205     0A66  2A68               	goto	u1531
  4206     0A67  2A69               	goto	u1530
  4207     0A68                     u1531:
  4208     0A68  2A6E               	goto	l2253
  4209     0A69                     u1530:
  4210     0A69                     l2251:
  4211     0A69  09F4               	comf	___awmod@dividend,f
  4212     0A6A  09F5               	comf	___awmod@dividend+1,f
  4213     0A6B  0AF4               	incf	___awmod@dividend,f
  4214     0A6C  1903               	skipnz
  4215     0A6D  0AF5               	incf	___awmod@dividend+1,f
  4216     0A6E                     l2253:
  4217     0A6E  0875               	movf	___awmod@dividend+1,w
  4218     0A6F  00F3               	movwf	?___awmod+1
  4219     0A70  0874               	movf	___awmod@dividend,w
  4220     0A71  00F2               	movwf	?___awmod
  4221     0A72                     l727:
  4222     0A72  0008               	return
  4223     0A73                     __end_of___awmod:
  4224                           
  4225                           	psect	text13
  4226     0B82                     __ptext13:	
  4227 ;; *************** function ___awdiv *****************
  4228 ;; Defined at:
  4229 ;;		line 5 in file "C:\Program Files\Microchip\xc8\v2.50\pic\sources\c99\common\awdiv.c"
  4230 ;; Parameters:    Size  Location     Type
  4231 ;;  divisor         2    2[COMMON] int 
  4232 ;;  dividend        2    4[COMMON] int 
  4233 ;; Auto vars:     Size  Location     Type
  4234 ;;  quotient        2    8[COMMON] int 
  4235 ;;  sign            1    7[COMMON] unsigned char 
  4236 ;;  counter         1    6[COMMON] unsigned char 
  4237 ;; Return value:  Size  Location     Type
  4238 ;;                  2    2[COMMON] int 
  4239 ;; Registers used:
  4240 ;;		wreg, status,2, status,0
  4241 ;; Tracked objects:
  4242 ;;		On entry : 0/0
  4243 ;;		On exit  : 0/0
  4244 ;;		Unchanged: 0/0
  4245 ;; Data sizes:     COMMON   BANK0   BANK1   BANK3   BANK2
  4246 ;;      Params:         4       0       0       0       0
  4247 ;;      Locals:         4       0       0       0       0
  4248 ;;      Temps:          0       0       0       0       0
  4249 ;;      Totals:         8       0       0       0       0
  4250 ;;Total ram usage:        8 bytes
  4251 ;; Hardware stack levels used: 1
  4252 ;; Hardware stack levels required when called: 1
  4253 ;; This function calls:
  4254 ;;		Nothing
  4255 ;; This function is called by:
  4256 ;;		_vfpfcnvrt
  4257 ;; This function uses a non-reentrant model
  4258 ;;
  4259                           
  4260     0B82                     ___awdiv:	
  4261                           ;psect for function ___awdiv
  4262                           
  4263     0B82                     l2175:	
  4264                           ;incstack = 0
  4265                           ; Regs used in ___awdiv: [wreg+status,2+status,0]
  4266                           
  4267     0B82  01F7               	clrf	___awdiv@sign
  4268     0B83                     l2177:
  4269     0B83  1FF3               	btfss	___awdiv@divisor+1,7
  4270     0B84  2B86               	goto	u1351
  4271     0B85  2B87               	goto	u1350
  4272     0B86                     u1351:
  4273     0B86  2B8E               	goto	l2183
  4274     0B87                     u1350:
  4275     0B87                     l2179:
  4276     0B87  09F2               	comf	___awdiv@divisor,f
  4277     0B88  09F3               	comf	___awdiv@divisor+1,f
  4278     0B89  0AF2               	incf	___awdiv@divisor,f
  4279     0B8A  1903               	skipnz
  4280     0B8B  0AF3               	incf	___awdiv@divisor+1,f
  4281     0B8C                     l2181:
  4282     0B8C  3001               	movlw	1
  4283     0B8D  00F7               	movwf	___awdiv@sign
  4284     0B8E                     l2183:
  4285     0B8E  1FF5               	btfss	___awdiv@dividend+1,7
  4286     0B8F  2B91               	goto	u1361
  4287     0B90  2B92               	goto	u1360
  4288     0B91                     u1361:
  4289     0B91  2B99               	goto	l2189
  4290     0B92                     u1360:
  4291     0B92                     l2185:
  4292     0B92  09F4               	comf	___awdiv@dividend,f
  4293     0B93  09F5               	comf	___awdiv@dividend+1,f
  4294     0B94  0AF4               	incf	___awdiv@dividend,f
  4295     0B95  1903               	skipnz
  4296     0B96  0AF5               	incf	___awdiv@dividend+1,f
  4297     0B97                     l2187:
  4298     0B97  3001               	movlw	1
  4299     0B98  06F7               	xorwf	___awdiv@sign,f
  4300     0B99                     l2189:
  4301     0B99  01F8               	clrf	___awdiv@quotient
  4302     0B9A  01F9               	clrf	___awdiv@quotient+1
  4303     0B9B                     l2191:
  4304     0B9B  0872               	movf	___awdiv@divisor,w
  4305     0B9C  0473               	iorwf	___awdiv@divisor+1,w
  4306     0B9D  1903               	btfsc	3,2
  4307     0B9E  2BA0               	goto	u1371
  4308     0B9F  2BA1               	goto	u1370
  4309     0BA0                     u1371:
  4310     0BA0  2BD6               	goto	l2211
  4311     0BA1                     u1370:
  4312     0BA1                     l2193:
  4313     0BA1  3001               	movlw	1
  4314     0BA2  00F6               	movwf	___awdiv@counter
  4315     0BA3  2BAD               	goto	l2199
  4316     0BA4                     l2195:
  4317     0BA4  3001               	movlw	1
  4318     0BA5                     u1385:
  4319     0BA5  1003               	clrc
  4320     0BA6  0DF2               	rlf	___awdiv@divisor,f
  4321     0BA7  0DF3               	rlf	___awdiv@divisor+1,f
  4322     0BA8  3EFF               	addlw	-1
  4323     0BA9  1D03               	skipz
  4324     0BAA  2BA5               	goto	u1385
  4325     0BAB                     l2197:
  4326     0BAB  3001               	movlw	1
  4327     0BAC  07F6               	addwf	___awdiv@counter,f
  4328     0BAD                     l2199:
  4329     0BAD  1FF3               	btfss	___awdiv@divisor+1,7
  4330     0BAE  2BB0               	goto	u1391
  4331     0BAF  2BB1               	goto	u1390
  4332     0BB0                     u1391:
  4333     0BB0  2BA4               	goto	l2195
  4334     0BB1                     u1390:
  4335     0BB1                     l2201:
  4336     0BB1  3001               	movlw	1
  4337     0BB2                     u1405:
  4338     0BB2  1003               	clrc
  4339     0BB3  0DF8               	rlf	___awdiv@quotient,f
  4340     0BB4  0DF9               	rlf	___awdiv@quotient+1,f
  4341     0BB5  3EFF               	addlw	-1
  4342     0BB6  1D03               	skipz
  4343     0BB7  2BB2               	goto	u1405
  4344     0BB8  0873               	movf	___awdiv@divisor+1,w
  4345     0BB9  0275               	subwf	___awdiv@dividend+1,w
  4346     0BBA  1D03               	skipz
  4347     0BBB  2BBE               	goto	u1415
  4348     0BBC  0872               	movf	___awdiv@divisor,w
  4349     0BBD  0274               	subwf	___awdiv@dividend,w
  4350     0BBE                     u1415:
  4351     0BBE  1C03               	skipc
  4352     0BBF  2BC1               	goto	u1411
  4353     0BC0  2BC2               	goto	u1410
  4354     0BC1                     u1411:
  4355     0BC1  2BC9               	goto	l2207
  4356     0BC2                     u1410:
  4357     0BC2                     l2203:
  4358     0BC2  0872               	movf	___awdiv@divisor,w
  4359     0BC3  02F4               	subwf	___awdiv@dividend,f
  4360     0BC4  0873               	movf	___awdiv@divisor+1,w
  4361     0BC5  1C03               	skipc
  4362     0BC6  03F5               	decf	___awdiv@dividend+1,f
  4363     0BC7  02F5               	subwf	___awdiv@dividend+1,f
  4364     0BC8                     l2205:
  4365     0BC8  1478               	bsf	___awdiv@quotient,0
  4366     0BC9                     l2207:
  4367     0BC9  3001               	movlw	1
  4368     0BCA                     u1425:
  4369     0BCA  1003               	clrc
  4370     0BCB  0CF3               	rrf	___awdiv@divisor+1,f
  4371     0BCC  0CF2               	rrf	___awdiv@divisor,f
  4372     0BCD  3EFF               	addlw	-1
  4373     0BCE  1D03               	skipz
  4374     0BCF  2BCA               	goto	u1425
  4375     0BD0                     l2209:
  4376     0BD0  3001               	movlw	1
  4377     0BD1  02F6               	subwf	___awdiv@counter,f
  4378     0BD2  1D03               	btfss	3,2
  4379     0BD3  2BD5               	goto	u1431
  4380     0BD4  2BD6               	goto	u1430
  4381     0BD5                     u1431:
  4382     0BD5  2BB1               	goto	l2201
  4383     0BD6                     u1430:
  4384     0BD6                     l2211:
  4385     0BD6  0877               	movf	___awdiv@sign,w
  4386     0BD7  1903               	btfsc	3,2
  4387     0BD8  2BDA               	goto	u1441
  4388     0BD9  2BDB               	goto	u1440
  4389     0BDA                     u1441:
  4390     0BDA  2BE0               	goto	l2215
  4391     0BDB                     u1440:
  4392     0BDB                     l2213:
  4393     0BDB  09F8               	comf	___awdiv@quotient,f
  4394     0BDC  09F9               	comf	___awdiv@quotient+1,f
  4395     0BDD  0AF8               	incf	___awdiv@quotient,f
  4396     0BDE  1903               	skipnz
  4397     0BDF  0AF9               	incf	___awdiv@quotient+1,f
  4398     0BE0                     l2215:
  4399     0BE0  0879               	movf	___awdiv@quotient+1,w
  4400     0BE1  00F3               	movwf	?___awdiv+1
  4401     0BE2  0878               	movf	___awdiv@quotient,w
  4402     0BE3  00F2               	movwf	?___awdiv
  4403     0BE4                     l714:
  4404     0BE4  0008               	return
  4405     0BE5                     __end_of___awdiv:
  4406                           
  4407                           	psect	text14
  4408     08C8                     __ptext14:	
  4409 ;; *************** function ___lwmod *****************
  4410 ;; Defined at:
  4411 ;;		line 5 in file "C:\Program Files\Microchip\xc8\v2.50\pic\sources\c99\common\lwmod.c"
  4412 ;; Parameters:    Size  Location     Type
  4413 ;;  divisor         2    2[COMMON] unsigned int 
  4414 ;;  dividend        2    4[COMMON] unsigned int 
  4415 ;; Auto vars:     Size  Location     Type
  4416 ;;  counter         1    6[COMMON] unsigned char 
  4417 ;; Return value:  Size  Location     Type
  4418 ;;                  2    2[COMMON] unsigned int 
  4419 ;; Registers used:
  4420 ;;		wreg, status,2, status,0
  4421 ;; Tracked objects:
  4422 ;;		On entry : 0/0
  4423 ;;		On exit  : 0/0
  4424 ;;		Unchanged: 0/0
  4425 ;; Data sizes:     COMMON   BANK0   BANK1   BANK3   BANK2
  4426 ;;      Params:         4       0       0       0       0
  4427 ;;      Locals:         1       0       0       0       0
  4428 ;;      Temps:          0       0       0       0       0
  4429 ;;      Totals:         5       0       0       0       0
  4430 ;;Total ram usage:        5 bytes
  4431 ;; Hardware stack levels used: 1
  4432 ;; Hardware stack levels required when called: 1
  4433 ;; This function calls:
  4434 ;;		Nothing
  4435 ;; This function is called by:
  4436 ;;		_main
  4437 ;;		_DisplayVoltage
  4438 ;; This function uses a non-reentrant model
  4439 ;;
  4440                           
  4441     08C8                     ___lwmod:	
  4442                           ;psect for function ___lwmod
  4443                           
  4444     08C8                     l2555:	
  4445                           ;incstack = 0
  4446                           ; Regs used in ___lwmod: [wreg+status,2+status,0]
  4447                           
  4448     08C8  0872               	movf	___lwmod@divisor,w
  4449     08C9  0473               	iorwf	___lwmod@divisor+1,w
  4450     08CA  1903               	btfsc	3,2
  4451     08CB  28CD               	goto	u1991
  4452     08CC  28CE               	goto	u1990
  4453     08CD                     u1991:
  4454     08CD  28FB               	goto	l2573
  4455     08CE                     u1990:
  4456     08CE                     l2557:
  4457     08CE  3001               	movlw	1
  4458     08CF  00F6               	movwf	___lwmod@counter
  4459     08D0  28DA               	goto	l2563
  4460     08D1                     l2559:
  4461     08D1  3001               	movlw	1
  4462     08D2                     u2005:
  4463     08D2  1003               	clrc
  4464     08D3  0DF2               	rlf	___lwmod@divisor,f
  4465     08D4  0DF3               	rlf	___lwmod@divisor+1,f
  4466     08D5  3EFF               	addlw	-1
  4467     08D6  1D03               	skipz
  4468     08D7  28D2               	goto	u2005
  4469     08D8                     l2561:
  4470     08D8  3001               	movlw	1
  4471     08D9  07F6               	addwf	___lwmod@counter,f
  4472     08DA                     l2563:
  4473     08DA  1FF3               	btfss	___lwmod@divisor+1,7
  4474     08DB  28DD               	goto	u2011
  4475     08DC  28DE               	goto	u2010
  4476     08DD                     u2011:
  4477     08DD  28D1               	goto	l2559
  4478     08DE                     u2010:
  4479     08DE                     l2565:
  4480     08DE  0873               	movf	___lwmod@divisor+1,w
  4481     08DF  0275               	subwf	___lwmod@dividend+1,w
  4482     08E0  1D03               	skipz
  4483     08E1  28E4               	goto	u2025
  4484     08E2  0872               	movf	___lwmod@divisor,w
  4485     08E3  0274               	subwf	___lwmod@dividend,w
  4486     08E4                     u2025:
  4487     08E4  1C03               	skipc
  4488     08E5  28E7               	goto	u2021
  4489     08E6  28E8               	goto	u2020
  4490     08E7                     u2021:
  4491     08E7  28EE               	goto	l2569
  4492     08E8                     u2020:
  4493     08E8                     l2567:
  4494     08E8  0872               	movf	___lwmod@divisor,w
  4495     08E9  02F4               	subwf	___lwmod@dividend,f
  4496     08EA  0873               	movf	___lwmod@divisor+1,w
  4497     08EB  1C03               	skipc
  4498     08EC  03F5               	decf	___lwmod@dividend+1,f
  4499     08ED  02F5               	subwf	___lwmod@dividend+1,f
  4500     08EE                     l2569:
  4501     08EE  3001               	movlw	1
  4502     08EF                     u2035:
  4503     08EF  1003               	clrc
  4504     08F0  0CF3               	rrf	___lwmod@divisor+1,f
  4505     08F1  0CF2               	rrf	___lwmod@divisor,f
  4506     08F2  3EFF               	addlw	-1
  4507     08F3  1D03               	skipz
  4508     08F4  28EF               	goto	u2035
  4509     08F5                     l2571:
  4510     08F5  3001               	movlw	1
  4511     08F6  02F6               	subwf	___lwmod@counter,f
  4512     08F7  1D03               	btfss	3,2
  4513     08F8  28FA               	goto	u2041
  4514     08F9  28FB               	goto	u2040
  4515     08FA                     u2041:
  4516     08FA  28DE               	goto	l2565
  4517     08FB                     u2040:
  4518     08FB                     l2573:
  4519     08FB  0875               	movf	___lwmod@dividend+1,w
  4520     08FC  00F3               	movwf	?___lwmod+1
  4521     08FD  0874               	movf	___lwmod@dividend,w
  4522     08FE  00F2               	movwf	?___lwmod
  4523     08FF                     l851:
  4524     08FF  0008               	return
  4525     0900                     __end_of___lwmod:
  4526                           
  4527                           	psect	text15
  4528     0900                     __ptext15:	
  4529 ;; *************** function ___lwdiv *****************
  4530 ;; Defined at:
  4531 ;;		line 5 in file "C:\Program Files\Microchip\xc8\v2.50\pic\sources\c99\common\lwdiv.c"
  4532 ;; Parameters:    Size  Location     Type
  4533 ;;  divisor         2    2[COMMON] unsigned int 
  4534 ;;  dividend        2    4[COMMON] unsigned int 
  4535 ;; Auto vars:     Size  Location     Type
  4536 ;;  quotient        2    6[COMMON] unsigned int 
  4537 ;;  counter         1    8[COMMON] unsigned char 
  4538 ;; Return value:  Size  Location     Type
  4539 ;;                  2    2[COMMON] unsigned int 
  4540 ;; Registers used:
  4541 ;;		wreg, status,2, status,0
  4542 ;; Tracked objects:
  4543 ;;		On entry : 0/0
  4544 ;;		On exit  : 0/0
  4545 ;;		Unchanged: 0/0
  4546 ;; Data sizes:     COMMON   BANK0   BANK1   BANK3   BANK2
  4547 ;;      Params:         4       0       0       0       0
  4548 ;;      Locals:         3       0       0       0       0
  4549 ;;      Temps:          0       0       0       0       0
  4550 ;;      Totals:         7       0       0       0       0
  4551 ;;Total ram usage:        7 bytes
  4552 ;; Hardware stack levels used: 1
  4553 ;; Hardware stack levels required when called: 1
  4554 ;; This function calls:
  4555 ;;		Nothing
  4556 ;; This function is called by:
  4557 ;;		_main
  4558 ;;		_DisplayVoltage
  4559 ;; This function uses a non-reentrant model
  4560 ;;
  4561                           
  4562     0900                     ___lwdiv:	
  4563                           ;psect for function ___lwdiv
  4564                           
  4565     0900                     l2529:	
  4566                           ;incstack = 0
  4567                           ; Regs used in ___lwdiv: [wreg+status,2+status,0]
  4568                           
  4569     0900  01F6               	clrf	___lwdiv@quotient
  4570     0901  01F7               	clrf	___lwdiv@quotient+1
  4571     0902                     l2531:
  4572     0902  0872               	movf	___lwdiv@divisor,w
  4573     0903  0473               	iorwf	___lwdiv@divisor+1,w
  4574     0904  1903               	btfsc	3,2
  4575     0905  2907               	goto	u1921
  4576     0906  2908               	goto	u1920
  4577     0907                     u1921:
  4578     0907  293D               	goto	l2551
  4579     0908                     u1920:
  4580     0908                     l2533:
  4581     0908  3001               	movlw	1
  4582     0909  00F8               	movwf	___lwdiv@counter
  4583     090A  2914               	goto	l2539
  4584     090B                     l2535:
  4585     090B  3001               	movlw	1
  4586     090C                     u1935:
  4587     090C  1003               	clrc
  4588     090D  0DF2               	rlf	___lwdiv@divisor,f
  4589     090E  0DF3               	rlf	___lwdiv@divisor+1,f
  4590     090F  3EFF               	addlw	-1
  4591     0910  1D03               	skipz
  4592     0911  290C               	goto	u1935
  4593     0912                     l2537:
  4594     0912  3001               	movlw	1
  4595     0913  07F8               	addwf	___lwdiv@counter,f
  4596     0914                     l2539:
  4597     0914  1FF3               	btfss	___lwdiv@divisor+1,7
  4598     0915  2917               	goto	u1941
  4599     0916  2918               	goto	u1940
  4600     0917                     u1941:
  4601     0917  290B               	goto	l2535
  4602     0918                     u1940:
  4603     0918                     l2541:
  4604     0918  3001               	movlw	1
  4605     0919                     u1955:
  4606     0919  1003               	clrc
  4607     091A  0DF6               	rlf	___lwdiv@quotient,f
  4608     091B  0DF7               	rlf	___lwdiv@quotient+1,f
  4609     091C  3EFF               	addlw	-1
  4610     091D  1D03               	skipz
  4611     091E  2919               	goto	u1955
  4612     091F  0873               	movf	___lwdiv@divisor+1,w
  4613     0920  0275               	subwf	___lwdiv@dividend+1,w
  4614     0921  1D03               	skipz
  4615     0922  2925               	goto	u1965
  4616     0923  0872               	movf	___lwdiv@divisor,w
  4617     0924  0274               	subwf	___lwdiv@dividend,w
  4618     0925                     u1965:
  4619     0925  1C03               	skipc
  4620     0926  2928               	goto	u1961
  4621     0927  2929               	goto	u1960
  4622     0928                     u1961:
  4623     0928  2930               	goto	l2547
  4624     0929                     u1960:
  4625     0929                     l2543:
  4626     0929  0872               	movf	___lwdiv@divisor,w
  4627     092A  02F4               	subwf	___lwdiv@dividend,f
  4628     092B  0873               	movf	___lwdiv@divisor+1,w
  4629     092C  1C03               	skipc
  4630     092D  03F5               	decf	___lwdiv@dividend+1,f
  4631     092E  02F5               	subwf	___lwdiv@dividend+1,f
  4632     092F                     l2545:
  4633     092F  1476               	bsf	___lwdiv@quotient,0
  4634     0930                     l2547:
  4635     0930  3001               	movlw	1
  4636     0931                     u1975:
  4637     0931  1003               	clrc
  4638     0932  0CF3               	rrf	___lwdiv@divisor+1,f
  4639     0933  0CF2               	rrf	___lwdiv@divisor,f
  4640     0934  3EFF               	addlw	-1
  4641     0935  1D03               	skipz
  4642     0936  2931               	goto	u1975
  4643     0937                     l2549:
  4644     0937  3001               	movlw	1
  4645     0938  02F8               	subwf	___lwdiv@counter,f
  4646     0939  1D03               	btfss	3,2
  4647     093A  293C               	goto	u1981
  4648     093B  293D               	goto	u1980
  4649     093C                     u1981:
  4650     093C  2918               	goto	l2541
  4651     093D                     u1980:
  4652     093D                     l2551:
  4653     093D  0877               	movf	___lwdiv@quotient+1,w
  4654     093E  00F3               	movwf	?___lwdiv+1
  4655     093F  0876               	movf	___lwdiv@quotient,w
  4656     0940  00F2               	movwf	?___lwdiv
  4657     0941                     l841:
  4658     0941  0008               	return
  4659     0942                     __end_of___lwdiv:
  4660                           
  4661                           	psect	text16
  4662     047A                     __ptext16:	
  4663 ;; *************** function _ReadVoltageAverage *****************
  4664 ;; Defined at:
  4665 ;;		line 56 in file "adc.c"
  4666 ;; Parameters:    Size  Location     Type
  4667 ;;		None
  4668 ;; Auto vars:     Size  Location     Type
  4669 ;;  i               1   35[BANK0 ] unsigned char 
  4670 ;;  average         4   40[BANK0 ] unsigned long 
  4671 ;;  R1              4   36[BANK0 ] unsigned long 
  4672 ;;  sum             4   31[BANK0 ] unsigned long 
  4673 ;;  R2              4   25[BANK0 ] unsigned long 
  4674 ;;  sample          2   29[BANK0 ] unsigned short 
  4675 ;; Return value:  Size  Location     Type
  4676 ;;                  2   19[BANK0 ] unsigned short 
  4677 ;; Registers used:
  4678 ;;		wreg, status,2, status,0, pclath, cstack
  4679 ;; Tracked objects:
  4680 ;;		On entry : 0/0
  4681 ;;		On exit  : 0/0
  4682 ;;		Unchanged: 0/0
  4683 ;; Data sizes:     COMMON   BANK0   BANK1   BANK3   BANK2
  4684 ;;      Params:         0       2       0       0       0
  4685 ;;      Locals:         0      19       0       0       0
  4686 ;;      Temps:          0       4       0       0       0
  4687 ;;      Totals:         0      25       0       0       0
  4688 ;;Total ram usage:       25 bytes
  4689 ;; Hardware stack levels used: 1
  4690 ;; Hardware stack levels required when called: 2
  4691 ;; This function calls:
  4692 ;;		_ADC_Read_ADC_Result
  4693 ;;		___lldiv
  4694 ;;		___lmul
  4695 ;; This function is called by:
  4696 ;;		_DisplayVoltage
  4697 ;; This function uses a non-reentrant model
  4698 ;;
  4699                           
  4700     047A                     _ReadVoltageAverage:	
  4701                           ;psect for function _ReadVoltageAverage
  4702                           
  4703     047A                     l3405:	
  4704                           ;incstack = 0
  4705                           ; Regs used in _ReadVoltageAverage: [wreg+status,2+status,0+pclath+cstack]
  4706                           
  4707                           
  4708                           ;adc.c: 57:     uint32_t sum = 0;
  4709     047A  3000               	movlw	0
  4710     047B  1283               	bcf	3,5	;RP0=0, select bank0
  4711     047C  1303               	bcf	3,6	;RP1=0, select bank0
  4712     047D  00C2               	movwf	ReadVoltageAverage@sum+3
  4713     047E  3000               	movlw	0
  4714     047F  00C1               	movwf	ReadVoltageAverage@sum+2
  4715     0480  3000               	movlw	0
  4716     0481  00C0               	movwf	ReadVoltageAverage@sum+1
  4717     0482  3000               	movlw	0
  4718     0483  00BF               	movwf	ReadVoltageAverage@sum
  4719                           
  4720                           ;adc.c: 58:     uint16_t sample;;adc.c: 60:     uint32_t R1 = 6960;
  4721     0484  3000               	movlw	0
  4722     0485  00C7               	movwf	ReadVoltageAverage@R1+3
  4723     0486  3000               	movlw	0
  4724     0487  00C6               	movwf	ReadVoltageAverage@R1+2
  4725     0488  301B               	movlw	27
  4726     0489  00C5               	movwf	ReadVoltageAverage@R1+1
  4727     048A  3030               	movlw	48
  4728     048B  00C4               	movwf	ReadVoltageAverage@R1
  4729                           
  4730                           ;adc.c: 61:     uint32_t R2 = 1000;
  4731     048C  3000               	movlw	0
  4732     048D  00BC               	movwf	ReadVoltageAverage@R2+3
  4733     048E  3000               	movlw	0
  4734     048F  00BB               	movwf	ReadVoltageAverage@R2+2
  4735     0490  3003               	movlw	3
  4736     0491  00BA               	movwf	ReadVoltageAverage@R2+1
  4737     0492  30E8               	movlw	232
  4738     0493  00B9               	movwf	ReadVoltageAverage@R2
  4739     0494                     l3407:
  4740                           
  4741                           ;adc.c: 64:     const unsigned long vref=2500;;adc.c: 66:     const uint8_t num_samples 
      +                          = 20;;adc.c: 68:     for (uint8_t i = 0; i < num_samples; i++) {
  4742     0494  01C3               	clrf	ReadVoltageAverage@i
  4743     0495                     l3413:
  4744                           
  4745                           ;adc.c: 69:         sample = ADC_Read_ADC_Result();
  4746     0495  160A  118A  27C0  120A  118A  	fcall	_ADC_Read_ADC_Result
  4747     049A  0873               	movf	?_ADC_Read_ADC_Result+1,w
  4748     049B  1283               	bcf	3,5	;RP0=0, select bank0
  4749     049C  1303               	bcf	3,6	;RP1=0, select bank0
  4750     049D  00BE               	movwf	ReadVoltageAverage@sample+1
  4751     049E  0872               	movf	?_ADC_Read_ADC_Result,w
  4752     049F  00BD               	movwf	ReadVoltageAverage@sample
  4753     04A0                     l3415:
  4754                           
  4755                           ;adc.c: 70:         sum += sample;
  4756     04A0  083D               	movf	ReadVoltageAverage@sample,w
  4757     04A1  00B5               	movwf	??_ReadVoltageAverage
  4758     04A2  083E               	movf	ReadVoltageAverage@sample+1,w
  4759     04A3  00B6               	movwf	??_ReadVoltageAverage+1
  4760     04A4  01B7               	clrf	??_ReadVoltageAverage+2
  4761     04A5  01B8               	clrf	??_ReadVoltageAverage+3
  4762     04A6  0835               	movf	??_ReadVoltageAverage,w
  4763     04A7  07BF               	addwf	ReadVoltageAverage@sum,f
  4764     04A8  0836               	movf	??_ReadVoltageAverage+1,w
  4765     04A9  1103               	clrz
  4766     04AA  1803               	skipnc
  4767     04AB  3E01               	addlw	1
  4768     04AC  1903               	skipnz
  4769     04AD  2CAF               	goto	u2861
  4770     04AE  07C0               	addwf	ReadVoltageAverage@sum+1,f
  4771     04AF                     u2861:
  4772     04AF  0837               	movf	??_ReadVoltageAverage+2,w
  4773     04B0  1103               	clrz
  4774     04B1  1803               	skipnc
  4775     04B2  3E01               	addlw	1
  4776     04B3  1903               	skipnz
  4777     04B4  2CB6               	goto	u2862
  4778     04B5  07C1               	addwf	ReadVoltageAverage@sum+2,f
  4779     04B6                     u2862:
  4780     04B6  0838               	movf	??_ReadVoltageAverage+3,w
  4781     04B7  1103               	clrz
  4782     04B8  1803               	skipnc
  4783     04B9  3E01               	addlw	1
  4784     04BA  1903               	skipnz
  4785     04BB  2CBD               	goto	u2863
  4786     04BC  07C2               	addwf	ReadVoltageAverage@sum+3,f
  4787     04BD                     u2863:
  4788     04BD                     l3417:
  4789                           
  4790                           ;adc.c: 72:         _delay((unsigned long)((1)*(8000000/4000.0)));
  4791     04BD  3003               	movlw	3
  4792     04BE  1283               	bcf	3,5	;RP0=0, select bank0
  4793     04BF  1303               	bcf	3,6	;RP1=0, select bank0
  4794     04C0  00B6               	movwf	??_ReadVoltageAverage+1
  4795     04C1  3097               	movlw	151
  4796     04C2  00B5               	movwf	??_ReadVoltageAverage
  4797     04C3                     u3307:
  4798     04C3  0BB5               	decfsz	??_ReadVoltageAverage,f
  4799     04C4  2CC3               	goto	u3307
  4800     04C5  0BB6               	decfsz	??_ReadVoltageAverage+1,f
  4801     04C6  2CC3               	goto	u3307
  4802     04C7                     l3419:
  4803                           
  4804                           ;adc.c: 73:     }
  4805     04C7  3001               	movlw	1
  4806     04C8  1283               	bcf	3,5	;RP0=0, select bank0
  4807     04C9  1303               	bcf	3,6	;RP1=0, select bank0
  4808     04CA  07C3               	addwf	ReadVoltageAverage@i,f
  4809     04CB                     l3421:
  4810     04CB  3014               	movlw	20
  4811     04CC  0243               	subwf	ReadVoltageAverage@i,w
  4812     04CD  1C03               	skipc
  4813     04CE  2CD0               	goto	u2871
  4814     04CF  2CD1               	goto	u2870
  4815     04D0                     u2871:
  4816     04D0  2C95               	goto	l3413
  4817     04D1                     u2870:
  4818     04D1                     l3423:
  4819                           
  4820                           ;adc.c: 75:     uint32_t average = (uint16_t)(sum / num_samples);
  4821     04D1  3000               	movlw	0
  4822     04D2  00A8               	movwf	___lldiv@divisor+3
  4823     04D3  3000               	movlw	0
  4824     04D4  00A7               	movwf	___lldiv@divisor+2
  4825     04D5  3000               	movlw	0
  4826     04D6  00A6               	movwf	___lldiv@divisor+1
  4827     04D7  3014               	movlw	20
  4828     04D8  00A5               	movwf	___lldiv@divisor
  4829     04D9  0842               	movf	ReadVoltageAverage@sum+3,w
  4830     04DA  00AC               	movwf	___lldiv@dividend+3
  4831     04DB  0841               	movf	ReadVoltageAverage@sum+2,w
  4832     04DC  00AB               	movwf	___lldiv@dividend+2
  4833     04DD  0840               	movf	ReadVoltageAverage@sum+1,w
  4834     04DE  00AA               	movwf	___lldiv@dividend+1
  4835     04DF  083F               	movf	ReadVoltageAverage@sum,w
  4836     04E0  00A9               	movwf	___lldiv@dividend
  4837     04E1  120A  158A  23E5  120A  118A  	fcall	___lldiv
  4838     04E6  1283               	bcf	3,5	;RP0=0, select bank0
  4839     04E7  1303               	bcf	3,6	;RP1=0, select bank0
  4840     04E8  0825               	movf	?___lldiv,w
  4841     04E9  00C8               	movwf	ReadVoltageAverage@average
  4842     04EA  0826               	movf	?___lldiv+1,w
  4843     04EB  00C9               	movwf	ReadVoltageAverage@average+1
  4844     04EC  01CA               	clrf	ReadVoltageAverage@average+2
  4845     04ED  01CB               	clrf	ReadVoltageAverage@average+3
  4846                           
  4847                           ;adc.c: 77:    average = average*10000;
  4848     04EE  084B               	movf	ReadVoltageAverage@average+3,w
  4849     04EF  00F5               	movwf	___lmul@multiplier+3
  4850     04F0  084A               	movf	ReadVoltageAverage@average+2,w
  4851     04F1  00F4               	movwf	___lmul@multiplier+2
  4852     04F2  0849               	movf	ReadVoltageAverage@average+1,w
  4853     04F3  00F3               	movwf	___lmul@multiplier+1
  4854     04F4  0848               	movf	ReadVoltageAverage@average,w
  4855     04F5  00F2               	movwf	___lmul@multiplier
  4856     04F6  3000               	movlw	0
  4857     04F7  00F9               	movwf	___lmul@multiplicand+3
  4858     04F8  3000               	movlw	0
  4859     04F9  00F8               	movwf	___lmul@multiplicand+2
  4860     04FA  3027               	movlw	39
  4861     04FB  00F7               	movwf	___lmul@multiplicand+1
  4862     04FC  3010               	movlw	16
  4863     04FD  00F6               	movwf	___lmul@multiplicand
  4864     04FE  120A  158A  2186  120A  118A  	fcall	___lmul
  4865     0503  0875               	movf	?___lmul+3,w
  4866     0504  1283               	bcf	3,5	;RP0=0, select bank0
  4867     0505  1303               	bcf	3,6	;RP1=0, select bank0
  4868     0506  00CB               	movwf	ReadVoltageAverage@average+3
  4869     0507  0874               	movf	?___lmul+2,w
  4870     0508  00CA               	movwf	ReadVoltageAverage@average+2
  4871     0509  0873               	movf	?___lmul+1,w
  4872     050A  00C9               	movwf	ReadVoltageAverage@average+1
  4873     050B  0872               	movf	?___lmul,w
  4874     050C  00C8               	movwf	ReadVoltageAverage@average
  4875                           
  4876                           ;adc.c: 78:    average = average/1023;
  4877     050D  3000               	movlw	0
  4878     050E  00A8               	movwf	___lldiv@divisor+3
  4879     050F  3000               	movlw	0
  4880     0510  00A7               	movwf	___lldiv@divisor+2
  4881     0511  3003               	movlw	3
  4882     0512  00A6               	movwf	___lldiv@divisor+1
  4883     0513  30FF               	movlw	255
  4884     0514  00A5               	movwf	___lldiv@divisor
  4885     0515  084B               	movf	ReadVoltageAverage@average+3,w
  4886     0516  00AC               	movwf	___lldiv@dividend+3
  4887     0517  084A               	movf	ReadVoltageAverage@average+2,w
  4888     0518  00AB               	movwf	___lldiv@dividend+2
  4889     0519  0849               	movf	ReadVoltageAverage@average+1,w
  4890     051A  00AA               	movwf	___lldiv@dividend+1
  4891     051B  0848               	movf	ReadVoltageAverage@average,w
  4892     051C  00A9               	movwf	___lldiv@dividend
  4893     051D  120A  158A  23E5  120A  118A  	fcall	___lldiv
  4894     0522  1283               	bcf	3,5	;RP0=0, select bank0
  4895     0523  1303               	bcf	3,6	;RP1=0, select bank0
  4896     0524  0828               	movf	?___lldiv+3,w
  4897     0525  00CB               	movwf	ReadVoltageAverage@average+3
  4898     0526  0827               	movf	?___lldiv+2,w
  4899     0527  00CA               	movwf	ReadVoltageAverage@average+2
  4900     0528  0826               	movf	?___lldiv+1,w
  4901     0529  00C9               	movwf	ReadVoltageAverage@average+1
  4902     052A  0825               	movf	?___lldiv,w
  4903     052B  00C8               	movwf	ReadVoltageAverage@average
  4904                           
  4905                           ;adc.c: 79:    average = average * vref;
  4906     052C  084B               	movf	ReadVoltageAverage@average+3,w
  4907     052D  00F5               	movwf	___lmul@multiplier+3
  4908     052E  084A               	movf	ReadVoltageAverage@average+2,w
  4909     052F  00F4               	movwf	___lmul@multiplier+2
  4910     0530  0849               	movf	ReadVoltageAverage@average+1,w
  4911     0531  00F3               	movwf	___lmul@multiplier+1
  4912     0532  0848               	movf	ReadVoltageAverage@average,w
  4913     0533  00F2               	movwf	___lmul@multiplier
  4914     0534  3000               	movlw	0
  4915     0535  00F9               	movwf	___lmul@multiplicand+3
  4916     0536  3000               	movlw	0
  4917     0537  00F8               	movwf	___lmul@multiplicand+2
  4918     0538  3009               	movlw	9
  4919     0539  00F7               	movwf	___lmul@multiplicand+1
  4920     053A  30C4               	movlw	196
  4921     053B  00F6               	movwf	___lmul@multiplicand
  4922     053C  120A  158A  2186  120A  118A  	fcall	___lmul
  4923     0541  0875               	movf	?___lmul+3,w
  4924     0542  1283               	bcf	3,5	;RP0=0, select bank0
  4925     0543  1303               	bcf	3,6	;RP1=0, select bank0
  4926     0544  00CB               	movwf	ReadVoltageAverage@average+3
  4927     0545  0874               	movf	?___lmul+2,w
  4928     0546  00CA               	movwf	ReadVoltageAverage@average+2
  4929     0547  0873               	movf	?___lmul+1,w
  4930     0548  00C9               	movwf	ReadVoltageAverage@average+1
  4931     0549  0872               	movf	?___lmul,w
  4932     054A  00C8               	movwf	ReadVoltageAverage@average
  4933                           
  4934                           ;adc.c: 80:    average = average/10000;
  4935     054B  3000               	movlw	0
  4936     054C  00A8               	movwf	___lldiv@divisor+3
  4937     054D  3000               	movlw	0
  4938     054E  00A7               	movwf	___lldiv@divisor+2
  4939     054F  3027               	movlw	39
  4940     0550  00A6               	movwf	___lldiv@divisor+1
  4941     0551  3010               	movlw	16
  4942     0552  00A5               	movwf	___lldiv@divisor
  4943     0553  084B               	movf	ReadVoltageAverage@average+3,w
  4944     0554  00AC               	movwf	___lldiv@dividend+3
  4945     0555  084A               	movf	ReadVoltageAverage@average+2,w
  4946     0556  00AB               	movwf	___lldiv@dividend+2
  4947     0557  0849               	movf	ReadVoltageAverage@average+1,w
  4948     0558  00AA               	movwf	___lldiv@dividend+1
  4949     0559  0848               	movf	ReadVoltageAverage@average,w
  4950     055A  00A9               	movwf	___lldiv@dividend
  4951     055B  120A  158A  23E5  120A  118A  	fcall	___lldiv
  4952     0560  1283               	bcf	3,5	;RP0=0, select bank0
  4953     0561  1303               	bcf	3,6	;RP1=0, select bank0
  4954     0562  0828               	movf	?___lldiv+3,w
  4955     0563  00CB               	movwf	ReadVoltageAverage@average+3
  4956     0564  0827               	movf	?___lldiv+2,w
  4957     0565  00CA               	movwf	ReadVoltageAverage@average+2
  4958     0566  0826               	movf	?___lldiv+1,w
  4959     0567  00C9               	movwf	ReadVoltageAverage@average+1
  4960     0568  0825               	movf	?___lldiv,w
  4961     0569  00C8               	movwf	ReadVoltageAverage@average
  4962                           
  4963                           ;adc.c: 84:    R1=R1*1000;
  4964     056A  0847               	movf	ReadVoltageAverage@R1+3,w
  4965     056B  00F5               	movwf	___lmul@multiplier+3
  4966     056C  0846               	movf	ReadVoltageAverage@R1+2,w
  4967     056D  00F4               	movwf	___lmul@multiplier+2
  4968     056E  0845               	movf	ReadVoltageAverage@R1+1,w
  4969     056F  00F3               	movwf	___lmul@multiplier+1
  4970     0570  0844               	movf	ReadVoltageAverage@R1,w
  4971     0571  00F2               	movwf	___lmul@multiplier
  4972     0572  3000               	movlw	0
  4973     0573  00F9               	movwf	___lmul@multiplicand+3
  4974     0574  3000               	movlw	0
  4975     0575  00F8               	movwf	___lmul@multiplicand+2
  4976     0576  3003               	movlw	3
  4977     0577  00F7               	movwf	___lmul@multiplicand+1
  4978     0578  30E8               	movlw	232
  4979     0579  00F6               	movwf	___lmul@multiplicand
  4980     057A  120A  158A  2186  120A  118A  	fcall	___lmul
  4981     057F  0875               	movf	?___lmul+3,w
  4982     0580  1283               	bcf	3,5	;RP0=0, select bank0
  4983     0581  1303               	bcf	3,6	;RP1=0, select bank0
  4984     0582  00C7               	movwf	ReadVoltageAverage@R1+3
  4985     0583  0874               	movf	?___lmul+2,w
  4986     0584  00C6               	movwf	ReadVoltageAverage@R1+2
  4987     0585  0873               	movf	?___lmul+1,w
  4988     0586  00C5               	movwf	ReadVoltageAverage@R1+1
  4989     0587  0872               	movf	?___lmul,w
  4990     0588  00C4               	movwf	ReadVoltageAverage@R1
  4991     0589                     l3425:
  4992                           
  4993                           ;adc.c: 85:    R1=1000000+R1;
  4994     0589  3040               	movlw	64
  4995     058A  00B5               	movwf	??_ReadVoltageAverage
  4996     058B  3042               	movlw	66
  4997     058C  00B6               	movwf	??_ReadVoltageAverage+1
  4998     058D  300F               	movlw	15
  4999     058E  00B7               	movwf	??_ReadVoltageAverage+2
  5000     058F  3000               	movlw	0
  5001     0590  00B8               	movwf	??_ReadVoltageAverage+3
  5002     0591  0844               	movf	ReadVoltageAverage@R1,w
  5003     0592  07B5               	addwf	??_ReadVoltageAverage,f
  5004     0593  0845               	movf	ReadVoltageAverage@R1+1,w
  5005     0594  1803               	skipnc
  5006     0595  0F45               	incfsz	ReadVoltageAverage@R1+1,w
  5007     0596  2D98               	goto	u2880
  5008     0597  2D99               	goto	u2881
  5009     0598                     u2880:
  5010     0598  07B6               	addwf	??_ReadVoltageAverage+1,f
  5011     0599                     u2881:
  5012     0599  0846               	movf	ReadVoltageAverage@R1+2,w
  5013     059A  1803               	skipnc
  5014     059B  0F46               	incfsz	ReadVoltageAverage@R1+2,w
  5015     059C  2D9E               	goto	u2882
  5016     059D  2D9F               	goto	u2883
  5017     059E                     u2882:
  5018     059E  07B7               	addwf	??_ReadVoltageAverage+2,f
  5019     059F                     u2883:
  5020     059F  0847               	movf	ReadVoltageAverage@R1+3,w
  5021     05A0  1803               	skipnc
  5022     05A1  0A47               	incf	ReadVoltageAverage@R1+3,w
  5023     05A2  07B8               	addwf	??_ReadVoltageAverage+3,f
  5024     05A3  0838               	movf	??_ReadVoltageAverage+3,w
  5025     05A4  00C7               	movwf	ReadVoltageAverage@R1+3
  5026     05A5  0837               	movf	??_ReadVoltageAverage+2,w
  5027     05A6  00C6               	movwf	ReadVoltageAverage@R1+2
  5028     05A7  0836               	movf	??_ReadVoltageAverage+1,w
  5029     05A8  00C5               	movwf	ReadVoltageAverage@R1+1
  5030     05A9  0835               	movf	??_ReadVoltageAverage,w
  5031     05AA  00C4               	movwf	ReadVoltageAverage@R1
  5032     05AB                     l3427:
  5033                           
  5034                           ;adc.c: 86:    R1=R1/R2;
  5035     05AB  083C               	movf	ReadVoltageAverage@R2+3,w
  5036     05AC  00A8               	movwf	___lldiv@divisor+3
  5037     05AD  083B               	movf	ReadVoltageAverage@R2+2,w
  5038     05AE  00A7               	movwf	___lldiv@divisor+2
  5039     05AF  083A               	movf	ReadVoltageAverage@R2+1,w
  5040     05B0  00A6               	movwf	___lldiv@divisor+1
  5041     05B1  0839               	movf	ReadVoltageAverage@R2,w
  5042     05B2  00A5               	movwf	___lldiv@divisor
  5043     05B3  0847               	movf	ReadVoltageAverage@R1+3,w
  5044     05B4  00AC               	movwf	___lldiv@dividend+3
  5045     05B5  0846               	movf	ReadVoltageAverage@R1+2,w
  5046     05B6  00AB               	movwf	___lldiv@dividend+2
  5047     05B7  0845               	movf	ReadVoltageAverage@R1+1,w
  5048     05B8  00AA               	movwf	___lldiv@dividend+1
  5049     05B9  0844               	movf	ReadVoltageAverage@R1,w
  5050     05BA  00A9               	movwf	___lldiv@dividend
  5051     05BB  120A  158A  23E5  120A  118A  	fcall	___lldiv
  5052     05C0  1283               	bcf	3,5	;RP0=0, select bank0
  5053     05C1  1303               	bcf	3,6	;RP1=0, select bank0
  5054     05C2  0828               	movf	?___lldiv+3,w
  5055     05C3  00C7               	movwf	ReadVoltageAverage@R1+3
  5056     05C4  0827               	movf	?___lldiv+2,w
  5057     05C5  00C6               	movwf	ReadVoltageAverage@R1+2
  5058     05C6  0826               	movf	?___lldiv+1,w
  5059     05C7  00C5               	movwf	ReadVoltageAverage@R1+1
  5060     05C8  0825               	movf	?___lldiv,w
  5061     05C9  00C4               	movwf	ReadVoltageAverage@R1
  5062     05CA                     l3429:
  5063                           
  5064                           ;adc.c: 88:    average = average * R1;
  5065     05CA  084B               	movf	ReadVoltageAverage@average+3,w
  5066     05CB  00F5               	movwf	___lmul@multiplier+3
  5067     05CC  084A               	movf	ReadVoltageAverage@average+2,w
  5068     05CD  00F4               	movwf	___lmul@multiplier+2
  5069     05CE  0849               	movf	ReadVoltageAverage@average+1,w
  5070     05CF  00F3               	movwf	___lmul@multiplier+1
  5071     05D0  0848               	movf	ReadVoltageAverage@average,w
  5072     05D1  00F2               	movwf	___lmul@multiplier
  5073     05D2  0847               	movf	ReadVoltageAverage@R1+3,w
  5074     05D3  00F9               	movwf	___lmul@multiplicand+3
  5075     05D4  0846               	movf	ReadVoltageAverage@R1+2,w
  5076     05D5  00F8               	movwf	___lmul@multiplicand+2
  5077     05D6  0845               	movf	ReadVoltageAverage@R1+1,w
  5078     05D7  00F7               	movwf	___lmul@multiplicand+1
  5079     05D8  0844               	movf	ReadVoltageAverage@R1,w
  5080     05D9  00F6               	movwf	___lmul@multiplicand
  5081     05DA  120A  158A  2186  120A  118A  	fcall	___lmul
  5082     05DF  0875               	movf	?___lmul+3,w
  5083     05E0  1283               	bcf	3,5	;RP0=0, select bank0
  5084     05E1  1303               	bcf	3,6	;RP1=0, select bank0
  5085     05E2  00CB               	movwf	ReadVoltageAverage@average+3
  5086     05E3  0874               	movf	?___lmul+2,w
  5087     05E4  00CA               	movwf	ReadVoltageAverage@average+2
  5088     05E5  0873               	movf	?___lmul+1,w
  5089     05E6  00C9               	movwf	ReadVoltageAverage@average+1
  5090     05E7  0872               	movf	?___lmul,w
  5091     05E8  00C8               	movwf	ReadVoltageAverage@average
  5092     05E9                     l3431:
  5093                           
  5094                           ;adc.c: 89:    average = average/10000;
  5095     05E9  3000               	movlw	0
  5096     05EA  00A8               	movwf	___lldiv@divisor+3
  5097     05EB  3000               	movlw	0
  5098     05EC  00A7               	movwf	___lldiv@divisor+2
  5099     05ED  3027               	movlw	39
  5100     05EE  00A6               	movwf	___lldiv@divisor+1
  5101     05EF  3010               	movlw	16
  5102     05F0  00A5               	movwf	___lldiv@divisor
  5103     05F1  084B               	movf	ReadVoltageAverage@average+3,w
  5104     05F2  00AC               	movwf	___lldiv@dividend+3
  5105     05F3  084A               	movf	ReadVoltageAverage@average+2,w
  5106     05F4  00AB               	movwf	___lldiv@dividend+2
  5107     05F5  0849               	movf	ReadVoltageAverage@average+1,w
  5108     05F6  00AA               	movwf	___lldiv@dividend+1
  5109     05F7  0848               	movf	ReadVoltageAverage@average,w
  5110     05F8  00A9               	movwf	___lldiv@dividend
  5111     05F9  120A  158A  23E5  120A  118A  	fcall	___lldiv
  5112     05FE  1283               	bcf	3,5	;RP0=0, select bank0
  5113     05FF  1303               	bcf	3,6	;RP1=0, select bank0
  5114     0600  0828               	movf	?___lldiv+3,w
  5115     0601  00CB               	movwf	ReadVoltageAverage@average+3
  5116     0602  0827               	movf	?___lldiv+2,w
  5117     0603  00CA               	movwf	ReadVoltageAverage@average+2
  5118     0604  0826               	movf	?___lldiv+1,w
  5119     0605  00C9               	movwf	ReadVoltageAverage@average+1
  5120     0606  0825               	movf	?___lldiv,w
  5121     0607  00C8               	movwf	ReadVoltageAverage@average
  5122                           
  5123                           ;adc.c: 93:     return average;
  5124     0608  0849               	movf	ReadVoltageAverage@average+1,w
  5125     0609  00B4               	movwf	?_ReadVoltageAverage+1
  5126     060A  0848               	movf	ReadVoltageAverage@average,w
  5127     060B  00B3               	movwf	?_ReadVoltageAverage
  5128     060C                     l470:
  5129     060C  0008               	return
  5130     060D                     __end_of_ReadVoltageAverage:
  5131                           
  5132                           	psect	text17
  5133     17C0                     __ptext17:	
  5134 ;; *************** function _ADC_Read_ADC_Result *****************
  5135 ;; Defined at:
  5136 ;;		line 34 in file "adc.c"
  5137 ;; Parameters:    Size  Location     Type
  5138 ;;		None
  5139 ;; Auto vars:     Size  Location     Type
  5140 ;;  adcResult       2    4[COMMON] unsigned int 
  5141 ;; Return value:  Size  Location     Type
  5142 ;;                  2    2[COMMON] unsigned int 
  5143 ;; Registers used:
  5144 ;;		wreg
  5145 ;; Tracked objects:
  5146 ;;		On entry : 0/0
  5147 ;;		On exit  : 0/0
  5148 ;;		Unchanged: 0/0
  5149 ;; Data sizes:     COMMON   BANK0   BANK1   BANK3   BANK2
  5150 ;;      Params:         2       0       0       0       0
  5151 ;;      Locals:         2       0       0       0       0
  5152 ;;      Temps:          0       0       0       0       0
  5153 ;;      Totals:         4       0       0       0       0
  5154 ;;Total ram usage:        4 bytes
  5155 ;; Hardware stack levels used: 1
  5156 ;; Hardware stack levels required when called: 1
  5157 ;; This function calls:
  5158 ;;		Nothing
  5159 ;; This function is called by:
  5160 ;;		_ReadVoltageAverage
  5161 ;; This function uses a non-reentrant model
  5162 ;;
  5163                           
  5164     17C0                     _ADC_Read_ADC_Result:	
  5165                           ;psect for function _ADC_Read_ADC_Result
  5166                           
  5167     17C0                     l2381:	
  5168                           ;incstack = 0
  5169                           ; Regs used in _ADC_Read_ADC_Result: [wreg]
  5170                           
  5171                           
  5172                           ;adc.c: 36:     unsigned int adcResult;;adc.c: 40:     ADCON0bits.GO_nDONE = 1;
  5173     17C0  1283               	bcf	3,5	;RP0=0, select bank0
  5174     17C1  1303               	bcf	3,6	;RP1=0, select bank0
  5175     17C2  149F               	bsf	31,1	;volatile
  5176     17C3                     l458:	
  5177                           ;adc.c: 43:     while(ADCON0bits.GO_nDONE);
  5178                           
  5179     17C3  189F               	btfsc	31,1	;volatile
  5180     17C4  2FC6               	goto	u1711
  5181     17C5  2FC7               	goto	u1710
  5182     17C6                     u1711:
  5183     17C6  2FC3               	goto	l458
  5184     17C7                     u1710:
  5185     17C7                     l2383:
  5186                           
  5187                           ;adc.c: 46:     adcResult = ((ADRESH << 8) + ADRESL);
  5188     17C7  081E               	movf	30,w	;volatile
  5189     17C8  00F5               	movwf	ADC_Read_ADC_Result@adcResult+1
  5190     17C9  1683               	bsf	3,5	;RP0=1, select bank1
  5191     17CA  1303               	bcf	3,6	;RP1=0, select bank1
  5192     17CB  081E               	movf	30,w	;volatile
  5193     17CC  00F4               	movwf	ADC_Read_ADC_Result@adcResult
  5194                           
  5195                           ;adc.c: 52:     return (unsigned int)adcResult;
  5196     17CD  0875               	movf	ADC_Read_ADC_Result@adcResult+1,w
  5197     17CE  00F3               	movwf	?_ADC_Read_ADC_Result+1
  5198     17CF  0874               	movf	ADC_Read_ADC_Result@adcResult,w
  5199     17D0  00F2               	movwf	?_ADC_Read_ADC_Result
  5200     17D1                     l461:
  5201     17D1  0008               	return
  5202     17D2                     __end_of_ADC_Read_ADC_Result:
  5203                           
  5204                           	psect	text18
  5205     0DE6                     __ptext18:	
  5206 ;; *************** function _AutoFox_INA226_Init *****************
  5207 ;; Defined at:
  5208 ;;		line 108 in file "ina226.c"
  5209 ;; Parameters:    Size  Location     Type
  5210 ;;  this            2   43[BANK0 ] PTR struct AutoFox_INA22
  5211 ;;		 -> main@ina226(14), 
  5212 ;;  aI2C_Address    1   45[BANK0 ] unsigned char 
  5213 ;;  aShuntResist    2   46[BANK0 ] unsigned short 
  5214 ;;  aMaxCurrent_    4   48[BANK0 ] unsigned long 
  5215 ;; Auto vars:     Size  Location     Type
  5216 ;;  s               1   62[BANK0 ] enum E1803
  5217 ;;  s               1   61[BANK0 ] enum E1803
  5218 ;;  s               1   60[BANK0 ] enum E1803
  5219 ;;  s               1   59[BANK0 ] enum E1803
  5220 ;;  s               1   58[BANK0 ] enum E1803
  5221 ;;  s               1   57[BANK0 ] enum E1803
  5222 ;;  s               1   56[BANK0 ] enum E1803
  5223 ;;  theINA226_ID    2   63[BANK0 ] unsigned short 
  5224 ;; Return value:  Size  Location     Type
  5225 ;;                  1    wreg      enum E1727
  5226 ;; Registers used:
  5227 ;;		wreg, fsr0l, fsr0h, status,2, status,0, btemp+1, pclath, cstack
  5228 ;; Tracked objects:
  5229 ;;		On entry : 0/0
  5230 ;;		On exit  : 0/0
  5231 ;;		Unchanged: 0/0
  5232 ;; Data sizes:     COMMON   BANK0   BANK1   BANK3   BANK2
  5233 ;;      Params:         0       9       0       0       0
  5234 ;;      Locals:         0       9       0       0       0
  5235 ;;      Temps:          0       4       0       0       0
  5236 ;;      Totals:         0      22       0       0       0
  5237 ;;Total ram usage:       22 bytes
  5238 ;; Hardware stack levels used: 1
  5239 ;; Hardware stack levels required when called: 5
  5240 ;; This function calls:
  5241 ;;		_AutoFox_INA226_CheckI2cAddress
  5242 ;;		_AutoFox_INA226_ReadRegister
  5243 ;;		_AutoFox_INA226_WriteRegister
  5244 ;;		_AutoFox_INA226_setupCalibration
  5245 ;;		_SendUART_debug
  5246 ;; This function is called by:
  5247 ;;		_main
  5248 ;; This function uses a non-reentrant model
  5249 ;;
  5250                           
  5251     0DE6                     _AutoFox_INA226_Init:	
  5252                           ;psect for function _AutoFox_INA226_Init
  5253                           
  5254     0DE6                     l3435:	
  5255                           ;incstack = 0
  5256                           ; Regs used in _AutoFox_INA226_Init: [wreg-fsr0h+status,2+status,0+btemp+1+pclath+cstack
      +                          ]
  5257                           
  5258                           
  5259                           ;ina226.c: 108: status AutoFox_INA226_Init(AutoFox_INA226* this, uint8_t aI2C_Address, u
      +                          int16_t aShuntResistor_mOhms, uint32_t aMaxCurrent_Amps);ina226.c: 109: {;ina226.c: 110:
      +                               this->mInitialized = 0;
  5260     0DE6  1283               	bcf	3,5	;RP0=0, select bank0
  5261     0DE7  1303               	bcf	3,6	;RP1=0, select bank0
  5262     0DE8  084B               	movf	AutoFox_INA226_Init@this,w
  5263     0DE9  0084               	movwf	4
  5264     0DEA  1783               	bsf	3,7
  5265     0DEB  1C4C               	btfss	AutoFox_INA226_Init@this+1,0
  5266     0DEC  1383               	bcf	3,7
  5267     0DED  0180               	clrf	0
  5268     0DEE                     l3437:
  5269     0DEE  084D               	movf	AutoFox_INA226_Init@aI2C_Address,w
  5270     0DEF  120A  158A  2043  120A  158A  	fcall	_AutoFox_INA226_CheckI2cAddress
  5271     0DF4  1283               	bcf	3,5	;RP0=0, select bank0
  5272     0DF5  1303               	bcf	3,6	;RP1=0, select bank0
  5273     0DF6  00D8               	movwf	AutoFox_INA226_Init@s
  5274     0DF7                     l3439:
  5275     0DF7  0858               	movf	AutoFox_INA226_Init@s,w
  5276     0DF8  1903               	btfsc	3,2
  5277     0DF9  2DFB               	goto	u2891
  5278     0DFA  2DFC               	goto	u2890
  5279     0DFB                     u2891:
  5280     0DFB  2DFE               	goto	l3445
  5281     0DFC                     u2890:
  5282     0DFC                     l3441:
  5283     0DFC  0858               	movf	AutoFox_INA226_Init@s,w
  5284     0DFD  2EED               	goto	l301
  5285     0DFE                     l3445:
  5286                           
  5287                           ;ina226.c: 114: SendUART_debug('a');
  5288     0DFE  3061               	movlw	97
  5289     0DFF  120A  158A  2142  120A  158A  	fcall	_SendUART_debug
  5290     0E04                     l3447:
  5291     0E04  1283               	bcf	3,5	;RP0=0, select bank0
  5292     0E05  1303               	bcf	3,6	;RP1=0, select bank0
  5293     0E06  084B               	movf	AutoFox_INA226_Init@this,w
  5294     0E07  00A0               	movwf	AutoFox_INA226_ReadRegister@this
  5295     0E08  084C               	movf	AutoFox_INA226_Init@this+1,w
  5296     0E09  00A1               	movwf	AutoFox_INA226_ReadRegister@this+1
  5297     0E0A  30FE               	movlw	254
  5298     0E0B  00A2               	movwf	AutoFox_INA226_ReadRegister@aRegister
  5299     0E0C  305F               	movlw	(low (AutoFox_INA226_Init@theINA226_ID| 0))& (0+255)
  5300     0E0D  00A3               	movwf	AutoFox_INA226_ReadRegister@aValue_p
  5301     0E0E  3000               	movlw	0
  5302     0E0F  00A4               	movwf	AutoFox_INA226_ReadRegister@aValue_p+1
  5303     0E10  120A  118A  2027  120A  158A  	fcall	_AutoFox_INA226_ReadRegister
  5304     0E15  1283               	bcf	3,5	;RP0=0, select bank0
  5305     0E16  1303               	bcf	3,6	;RP1=0, select bank0
  5306     0E17  00D9               	movwf	AutoFox_INA226_Init@s_865
  5307     0E18                     l3449:
  5308     0E18  0859               	movf	AutoFox_INA226_Init@s_865,w
  5309     0E19  1903               	btfsc	3,2
  5310     0E1A  2E1C               	goto	u2901
  5311     0E1B  2E1D               	goto	u2900
  5312     0E1C                     u2901:
  5313     0E1C  2E1F               	goto	l3455
  5314     0E1D                     u2900:
  5315     0E1D                     l3451:
  5316     0E1D  0859               	movf	AutoFox_INA226_Init@s_865,w
  5317     0E1E  2EED               	goto	l301
  5318     0E1F                     l3455:
  5319                           
  5320                           ;ina226.c: 120:     if(theINA226_ID != INA226_MANUFACTURER_ID_K){
  5321     0E1F  3049               	movlw	73
  5322     0E20  065F               	xorwf	AutoFox_INA226_Init@theINA226_ID,w
  5323     0E21  3054               	movlw	84
  5324     0E22  1903               	skipnz
  5325     0E23  0660               	xorwf	AutoFox_INA226_Init@theINA226_ID+1,w
  5326     0E24  1903               	btfsc	3,2
  5327     0E25  2E27               	goto	u2911
  5328     0E26  2E28               	goto	u2910
  5329     0E27                     u2911:
  5330     0E27  2E2A               	goto	l3461
  5331     0E28                     u2910:
  5332     0E28                     l3457:
  5333                           
  5334                           ;ina226.c: 121:         return INA226_TI_ID_MISMATCH;
  5335     0E28  30FE               	movlw	254
  5336     0E29  2EED               	goto	l301
  5337     0E2A                     l3461:
  5338     0E2A  084B               	movf	AutoFox_INA226_Init@this,w
  5339     0E2B  00A0               	movwf	AutoFox_INA226_ReadRegister@this
  5340     0E2C  084C               	movf	AutoFox_INA226_Init@this+1,w
  5341     0E2D  00A1               	movwf	AutoFox_INA226_ReadRegister@this+1
  5342     0E2E  30FF               	movlw	255
  5343     0E2F  00A2               	movwf	AutoFox_INA226_ReadRegister@aRegister
  5344     0E30  305F               	movlw	(low (AutoFox_INA226_Init@theINA226_ID| 0))& (0+255)
  5345     0E31  00A3               	movwf	AutoFox_INA226_ReadRegister@aValue_p
  5346     0E32  3000               	movlw	0
  5347     0E33  00A4               	movwf	AutoFox_INA226_ReadRegister@aValue_p+1
  5348     0E34  120A  118A  2027  120A  158A  	fcall	_AutoFox_INA226_ReadRegister
  5349     0E39  1283               	bcf	3,5	;RP0=0, select bank0
  5350     0E3A  1303               	bcf	3,6	;RP1=0, select bank0
  5351     0E3B  00DA               	movwf	AutoFox_INA226_Init@s_866
  5352     0E3C                     l3463:
  5353     0E3C  085A               	movf	AutoFox_INA226_Init@s_866,w
  5354     0E3D  1903               	btfsc	3,2
  5355     0E3E  2E40               	goto	u2921
  5356     0E3F  2E41               	goto	u2920
  5357     0E40                     u2921:
  5358     0E40  2E43               	goto	l3469
  5359     0E41                     u2920:
  5360     0E41                     l3465:
  5361     0E41  085A               	movf	AutoFox_INA226_Init@s_866,w
  5362     0E42  2EED               	goto	l301
  5363     0E43                     l3469:
  5364                           
  5365                           ;ina226.c: 124:     if(theINA226_ID != INA226_DIE_ID_K){
  5366     0E43  3060               	movlw	96
  5367     0E44  065F               	xorwf	AutoFox_INA226_Init@theINA226_ID,w
  5368     0E45  3022               	movlw	34
  5369     0E46  1903               	skipnz
  5370     0E47  0660               	xorwf	AutoFox_INA226_Init@theINA226_ID+1,w
  5371     0E48  1903               	btfsc	3,2
  5372     0E49  2E4B               	goto	u2931
  5373     0E4A  2E4C               	goto	u2930
  5374     0E4B                     u2931:
  5375     0E4B  2E4E               	goto	l3475
  5376     0E4C                     u2930:
  5377     0E4C                     l3471:
  5378                           
  5379                           ;ina226.c: 125:         return INA226_DIE_ID_MISMATCH;
  5380     0E4C  30FD               	movlw	253
  5381     0E4D  2EED               	goto	l301
  5382     0E4E                     l3475:
  5383                           
  5384                           ;ina226.c: 127:     this->mI2C_Address = aI2C_Address;
  5385     0E4E  084B               	movf	AutoFox_INA226_Init@this,w
  5386     0E4F  3E01               	addlw	1
  5387     0E50  00D4               	movwf	??_AutoFox_INA226_Init
  5388     0E51  084C               	movf	AutoFox_INA226_Init@this+1,w
  5389     0E52  1803               	skipnc
  5390     0E53  3E01               	addlw	1
  5391     0E54  3E00               	addlw	0
  5392     0E55  00D5               	movwf	??_AutoFox_INA226_Init+1
  5393     0E56  0854               	movf	??_AutoFox_INA226_Init,w
  5394     0E57  0084               	movwf	4
  5395     0E58  1783               	bsf	3,7
  5396     0E59  1C55               	btfss	??_AutoFox_INA226_Init+1,0
  5397     0E5A  1383               	bcf	3,7
  5398     0E5B  084D               	movf	AutoFox_INA226_Init@aI2C_Address,w
  5399     0E5C  0080               	movwf	0
  5400     0E5D                     l3477:
  5401     0E5D  084B               	movf	AutoFox_INA226_Init@this,w
  5402     0E5E  00F4               	movwf	AutoFox_INA226_WriteRegister@this
  5403     0E5F  084C               	movf	AutoFox_INA226_Init@this+1,w
  5404     0E60  00F5               	movwf	AutoFox_INA226_WriteRegister@this+1
  5405     0E61  01F6               	clrf	AutoFox_INA226_WriteRegister@aRegister
  5406     0E62  3000               	movlw	0
  5407     0E63  00F7               	movwf	AutoFox_INA226_WriteRegister@aValue
  5408     0E64  3080               	movlw	128
  5409     0E65  00F8               	movwf	AutoFox_INA226_WriteRegister@aValue+1
  5410     0E66  120A  158A  22CA  120A  158A  	fcall	_AutoFox_INA226_WriteRegister
  5411     0E6B  1283               	bcf	3,5	;RP0=0, select bank0
  5412     0E6C  1303               	bcf	3,6	;RP1=0, select bank0
  5413     0E6D  00DB               	movwf	AutoFox_INA226_Init@s_867
  5414     0E6E                     l3479:
  5415     0E6E  085B               	movf	AutoFox_INA226_Init@s_867,w
  5416     0E6F  1903               	btfsc	3,2
  5417     0E70  2E72               	goto	u2941
  5418     0E71  2E73               	goto	u2940
  5419     0E72                     u2941:
  5420     0E72  2E75               	goto	l3485
  5421     0E73                     u2940:
  5422     0E73                     l3481:
  5423     0E73  085B               	movf	AutoFox_INA226_Init@s_867,w
  5424     0E74  2EED               	goto	l301
  5425     0E75                     l3485:
  5426     0E75  084B               	movf	AutoFox_INA226_Init@this,w
  5427     0E76  00F4               	movwf	AutoFox_INA226_WriteRegister@this
  5428     0E77  084C               	movf	AutoFox_INA226_Init@this+1,w
  5429     0E78  00F5               	movwf	AutoFox_INA226_WriteRegister@this+1
  5430     0E79  01F6               	clrf	AutoFox_INA226_WriteRegister@aRegister
  5431     0E7A  3027               	movlw	39
  5432     0E7B  00F7               	movwf	AutoFox_INA226_WriteRegister@aValue
  5433     0E7C  3045               	movlw	69
  5434     0E7D  00F8               	movwf	AutoFox_INA226_WriteRegister@aValue+1
  5435     0E7E  120A  158A  22CA  120A  158A  	fcall	_AutoFox_INA226_WriteRegister
  5436     0E83  1283               	bcf	3,5	;RP0=0, select bank0
  5437     0E84  1303               	bcf	3,6	;RP1=0, select bank0
  5438     0E85  00DC               	movwf	AutoFox_INA226_Init@s_868
  5439     0E86                     l3487:
  5440     0E86  085C               	movf	AutoFox_INA226_Init@s_868,w
  5441     0E87  1903               	btfsc	3,2
  5442     0E88  2E8A               	goto	u2951
  5443     0E89  2E8B               	goto	u2950
  5444     0E8A                     u2951:
  5445     0E8A  2E8D               	goto	l3493
  5446     0E8B                     u2950:
  5447     0E8B                     l3489:
  5448     0E8B  085C               	movf	AutoFox_INA226_Init@s_868,w
  5449     0E8C  2EED               	goto	l301
  5450     0E8D                     l3493:
  5451     0E8D  084B               	movf	AutoFox_INA226_Init@this,w
  5452     0E8E  00A0               	movwf	AutoFox_INA226_ReadRegister@this
  5453     0E8F  084C               	movf	AutoFox_INA226_Init@this+1,w
  5454     0E90  00A1               	movwf	AutoFox_INA226_ReadRegister@this+1
  5455     0E91  01A2               	clrf	AutoFox_INA226_ReadRegister@aRegister
  5456     0E92  084B               	movf	AutoFox_INA226_Init@this,w
  5457     0E93  3E02               	addlw	2
  5458     0E94  00A3               	movwf	AutoFox_INA226_ReadRegister@aValue_p
  5459     0E95  084C               	movf	AutoFox_INA226_Init@this+1,w
  5460     0E96  1803               	skipnc
  5461     0E97  3E01               	addlw	1
  5462     0E98  3E00               	addlw	0
  5463     0E99  00A4               	movwf	AutoFox_INA226_ReadRegister@aValue_p+1
  5464     0E9A  120A  118A  2027  120A  158A  	fcall	_AutoFox_INA226_ReadRegister
  5465     0E9F  1283               	bcf	3,5	;RP0=0, select bank0
  5466     0EA0  1303               	bcf	3,6	;RP1=0, select bank0
  5467     0EA1  00DD               	movwf	AutoFox_INA226_Init@s_869
  5468     0EA2                     l3495:
  5469     0EA2  085D               	movf	AutoFox_INA226_Init@s_869,w
  5470     0EA3  1903               	btfsc	3,2
  5471     0EA4  2EA6               	goto	u2961
  5472     0EA5  2EA7               	goto	u2960
  5473     0EA6                     u2961:
  5474     0EA6  2EA9               	goto	l3501
  5475     0EA7                     u2960:
  5476     0EA7                     l3497:
  5477     0EA7  085D               	movf	AutoFox_INA226_Init@s_869,w
  5478     0EA8  2EED               	goto	l301
  5479     0EA9                     l3501:
  5480                           
  5481                           ;ina226.c: 135:     if(this->mConfigRegister != INA226_CONFIG_DEFAULT){
  5482     0EA9  084B               	movf	AutoFox_INA226_Init@this,w
  5483     0EAA  3E02               	addlw	2
  5484     0EAB  00D4               	movwf	??_AutoFox_INA226_Init
  5485     0EAC  084C               	movf	AutoFox_INA226_Init@this+1,w
  5486     0EAD  1803               	skipnc
  5487     0EAE  3E01               	addlw	1
  5488     0EAF  3E00               	addlw	0
  5489     0EB0  00D5               	movwf	??_AutoFox_INA226_Init+1
  5490     0EB1  0854               	movf	??_AutoFox_INA226_Init,w
  5491     0EB2  0084               	movwf	4
  5492     0EB3  1783               	bsf	3,7
  5493     0EB4  1C55               	btfss	??_AutoFox_INA226_Init+1,0
  5494     0EB5  1383               	bcf	3,7
  5495     0EB6  0800               	movf	0,w
  5496     0EB7  00D6               	movwf	??_AutoFox_INA226_Init+2
  5497     0EB8  0A84               	incf	4,f
  5498     0EB9  0800               	movf	0,w
  5499     0EBA  00D7               	movwf	??_AutoFox_INA226_Init+3
  5500     0EBB  3027               	movlw	39
  5501     0EBC  0656               	xorwf	??_AutoFox_INA226_Init+2,w
  5502     0EBD  3045               	movlw	69
  5503     0EBE  1903               	skipnz
  5504     0EBF  0657               	xorwf	??_AutoFox_INA226_Init+3,w
  5505     0EC0  1903               	btfsc	3,2
  5506     0EC1  2EC3               	goto	u2971
  5507     0EC2  2EC4               	goto	u2970
  5508     0EC3                     u2971:
  5509     0EC3  2EC6               	goto	l3507
  5510     0EC4                     u2970:
  5511     0EC4                     l3503:
  5512                           
  5513                           ;ina226.c: 136:         return CONFIG_ERROR;
  5514     0EC4  30FC               	movlw	252
  5515     0EC5  2EED               	goto	l301
  5516     0EC6                     l3507:
  5517     0EC6  084B               	movf	AutoFox_INA226_Init@this,w
  5518     0EC7  00B3               	movwf	AutoFox_INA226_setupCalibration@this
  5519     0EC8  084C               	movf	AutoFox_INA226_Init@this+1,w
  5520     0EC9  00B4               	movwf	AutoFox_INA226_setupCalibration@this+1
  5521     0ECA  084F               	movf	AutoFox_INA226_Init@aShuntResistor_mOhms+1,w
  5522     0ECB  00B6               	movwf	AutoFox_INA226_setupCalibration@aShuntResistor_mOhms+1
  5523     0ECC  084E               	movf	AutoFox_INA226_Init@aShuntResistor_mOhms,w
  5524     0ECD  00B5               	movwf	AutoFox_INA226_setupCalibration@aShuntResistor_mOhms
  5525     0ECE  0853               	movf	AutoFox_INA226_Init@aMaxCurrent_Amps+3,w
  5526     0ECF  00BA               	movwf	AutoFox_INA226_setupCalibration@aMaxCurrent_Amps+3
  5527     0ED0  0852               	movf	AutoFox_INA226_Init@aMaxCurrent_Amps+2,w
  5528     0ED1  00B9               	movwf	AutoFox_INA226_setupCalibration@aMaxCurrent_Amps+2
  5529     0ED2  0851               	movf	AutoFox_INA226_Init@aMaxCurrent_Amps+1,w
  5530     0ED3  00B8               	movwf	AutoFox_INA226_setupCalibration@aMaxCurrent_Amps+1
  5531     0ED4  0850               	movf	AutoFox_INA226_Init@aMaxCurrent_Amps,w
  5532     0ED5  00B7               	movwf	AutoFox_INA226_setupCalibration@aMaxCurrent_Amps
  5533     0ED6  120A  118A  260D  120A  158A  	fcall	_AutoFox_INA226_setupCalibration
  5534     0EDB  1283               	bcf	3,5	;RP0=0, select bank0
  5535     0EDC  1303               	bcf	3,6	;RP1=0, select bank0
  5536     0EDD  00DE               	movwf	AutoFox_INA226_Init@s_870
  5537     0EDE                     l3509:
  5538     0EDE  085E               	movf	AutoFox_INA226_Init@s_870,w
  5539     0EDF  1903               	btfsc	3,2
  5540     0EE0  2EE2               	goto	u2981
  5541     0EE1  2EE3               	goto	u2980
  5542     0EE2                     u2981:
  5543     0EE2  2EE5               	goto	l3515
  5544     0EE3                     u2980:
  5545     0EE3                     l3511:
  5546     0EE3  085E               	movf	AutoFox_INA226_Init@s_870,w
  5547     0EE4  2EED               	goto	l301
  5548     0EE5                     l3515:
  5549                           
  5550                           ;ina226.c: 141:     this->mInitialized = 1;
  5551     0EE5  084B               	movf	AutoFox_INA226_Init@this,w
  5552     0EE6  0084               	movwf	4
  5553     0EE7  1783               	bsf	3,7
  5554     0EE8  1C4C               	btfss	AutoFox_INA226_Init@this+1,0
  5555     0EE9  1383               	bcf	3,7
  5556     0EEA  3001               	movlw	1
  5557     0EEB  0080               	movwf	0
  5558     0EEC                     l3517:
  5559                           
  5560                           ;ina226.c: 142:     return OK;
  5561     0EEC  3000               	movlw	0
  5562     0EED                     l301:
  5563     0EED  0008               	return
  5564     0EEE                     __end_of_AutoFox_INA226_Init:
  5565                           
  5566                           	psect	text19
  5567     0942                     __ptext19:	
  5568 ;; *************** function _SendUART_debug *****************
  5569 ;; Defined at:
  5570 ;;		line 20 in file "sw_uart.c"
  5571 ;; Parameters:    Size  Location     Type
  5572 ;;  data            1    wreg     unsigned char 
  5573 ;; Auto vars:     Size  Location     Type
  5574 ;;  data            1    3[COMMON] unsigned char 
  5575 ;;  i               1    4[COMMON] unsigned char 
  5576 ;; Return value:  Size  Location     Type
  5577 ;;                  1    wreg      void 
  5578 ;; Registers used:
  5579 ;;		wreg, status,2, status,0
  5580 ;; Tracked objects:
  5581 ;;		On entry : 0/0
  5582 ;;		On exit  : 0/0
  5583 ;;		Unchanged: 0/0
  5584 ;; Data sizes:     COMMON   BANK0   BANK1   BANK3   BANK2
  5585 ;;      Params:         0       0       0       0       0
  5586 ;;      Locals:         2       0       0       0       0
  5587 ;;      Temps:          1       0       0       0       0
  5588 ;;      Totals:         3       0       0       0       0
  5589 ;;Total ram usage:        3 bytes
  5590 ;; Hardware stack levels used: 1
  5591 ;; Hardware stack levels required when called: 1
  5592 ;; This function calls:
  5593 ;;		Nothing
  5594 ;; This function is called by:
  5595 ;;		_putch
  5596 ;;		_AutoFox_INA226_Init
  5597 ;;		_SendErrorStatus
  5598 ;; This function uses a non-reentrant model
  5599 ;;
  5600                           
  5601     0942                     _SendUART_debug:	
  5602                           ;psect for function _SendUART_debug
  5603                           
  5604                           
  5605                           ;incstack = 0
  5606                           ; Regs used in _SendUART_debug: [wreg+status,2+status,0]
  5607                           ;SendUART_debug@data stored from wreg
  5608     0942  00F3               	movwf	SendUART_debug@data
  5609     0943                     l2137:
  5610                           
  5611                           ;sw_uart.c: 20: void SendUART_debug(unsigned char data);sw_uart.c: 21: {;sw_uart.c: 22: 
      +                              INTCONbits.GIE=0;
  5612     0943  138B               	bcf	11,7	;volatile
  5613                           
  5614                           ;sw_uart.c: 23:  PORTAbits.RA4=0;
  5615     0944  1283               	bcf	3,5	;RP0=0, select bank0
  5616     0945  1303               	bcf	3,6	;RP1=0, select bank0
  5617     0946  1205               	bcf	5,4	;volatile
  5618     0947                     l2139:
  5619                           
  5620                           ;sw_uart.c: 24:  _delay((unsigned long)(((1000000 / 1200))*(8000000/4000000.0)));
  5621     0947  30ED               	movlw	237
  5622     0948  00F2               	movwf	??_SendUART_debug
  5623     0949                     u3317:
  5624     0949  294A               	nop2
  5625     094A  294B               	nop2
  5626     094B  0BF2               	decfsz	??_SendUART_debug,f
  5627     094C  2949               	goto	u3317
  5628     094D  294E               	nop2
  5629     094E  294F               	nop2
  5630     094F  2950               	nop2
  5631     0950                     l2141:
  5632                           
  5633                           ;sw_uart.c: 26:  for(unsigned char i=0;i<8;i++)
  5634     0950  01F4               	clrf	SendUART_debug@i
  5635     0951                     l2147:
  5636                           
  5637                           ;sw_uart.c: 27:  {;sw_uart.c: 28:   if(data & (1 << i))
  5638     0951  3001               	movlw	1
  5639     0952  00F2               	movwf	??_SendUART_debug
  5640     0953  0A74               	incf	SendUART_debug@i,w
  5641     0954  2957               	goto	u1264
  5642     0955                     u1265:
  5643     0955  1003               	clrc
  5644     0956  0DF2               	rlf	??_SendUART_debug,f
  5645     0957                     u1264:
  5646     0957  3EFF               	addlw	-1
  5647     0958  1D03               	skipz
  5648     0959  2955               	goto	u1265
  5649     095A  0872               	movf	??_SendUART_debug,w
  5650     095B  0573               	andwf	SendUART_debug@data,w
  5651     095C  1903               	btfsc	3,2
  5652     095D  295F               	goto	u1271
  5653     095E  2960               	goto	u1270
  5654     095F                     u1271:
  5655     095F  2964               	goto	l208
  5656     0960                     u1270:
  5657     0960                     l2149:
  5658                           
  5659                           ;sw_uart.c: 29:   {;sw_uart.c: 30:    PORTAbits.RA4=1;
  5660     0960  1283               	bcf	3,5	;RP0=0, select bank0
  5661     0961  1303               	bcf	3,6	;RP1=0, select bank0
  5662     0962  1605               	bsf	5,4	;volatile
  5663                           
  5664                           ;sw_uart.c: 31:   }else
  5665     0963  2967               	goto	l2151
  5666     0964                     l208:
  5667                           
  5668                           ;sw_uart.c: 32:   {;sw_uart.c: 33:    PORTAbits.RA4=0;
  5669     0964  1283               	bcf	3,5	;RP0=0, select bank0
  5670     0965  1303               	bcf	3,6	;RP1=0, select bank0
  5671     0966  1205               	bcf	5,4	;volatile
  5672     0967                     l2151:
  5673                           
  5674                           ;sw_uart.c: 35:   _delay((unsigned long)(((1000000 / 1200))*(8000000/4000000.0)));
  5675     0967  30ED               	movlw	237
  5676     0968  00F2               	movwf	??_SendUART_debug
  5677     0969                     u3327:
  5678     0969  296A               	nop2
  5679     096A  296B               	nop2
  5680     096B  0BF2               	decfsz	??_SendUART_debug,f
  5681     096C  2969               	goto	u3327
  5682     096D  296E               	nop2
  5683     096E  296F               	nop2
  5684     096F  2970               	nop2
  5685     0970                     l2153:
  5686                           
  5687                           ;sw_uart.c: 36:  }
  5688     0970  3001               	movlw	1
  5689     0971  07F4               	addwf	SendUART_debug@i,f
  5690     0972                     l2155:
  5691     0972  3008               	movlw	8
  5692     0973  0274               	subwf	SendUART_debug@i,w
  5693     0974  1C03               	skipc
  5694     0975  2977               	goto	u1281
  5695     0976  2978               	goto	u1280
  5696     0977                     u1281:
  5697     0977  2951               	goto	l2147
  5698     0978                     u1280:
  5699     0978                     l207:
  5700                           
  5701                           ;sw_uart.c: 38:  PORTAbits.RA4=1;
  5702     0978  1283               	bcf	3,5	;RP0=0, select bank0
  5703     0979  1303               	bcf	3,6	;RP1=0, select bank0
  5704     097A  1605               	bsf	5,4	;volatile
  5705     097B                     l2157:
  5706                           
  5707                           ;sw_uart.c: 39:  _delay((unsigned long)(((1000000 / 1200))*(8000000/4000000.0)));
  5708     097B  30ED               	movlw	237
  5709     097C  00F2               	movwf	??_SendUART_debug
  5710     097D                     u3337:
  5711     097D  297E               	nop2
  5712     097E  297F               	nop2
  5713     097F  0BF2               	decfsz	??_SendUART_debug,f
  5714     0980  297D               	goto	u3337
  5715     0981  2982               	nop2
  5716     0982  2983               	nop2
  5717     0983  2984               	nop2
  5718     0984                     l2159:
  5719                           
  5720                           ;sw_uart.c: 40:     INTCONbits.GIE=1;
  5721     0984  178B               	bsf	11,7	;volatile
  5722     0985                     l210:
  5723     0985  0008               	return
  5724     0986                     __end_of_SendUART_debug:
  5725                           
  5726                           	psect	text20
  5727     060D                     __ptext20:	
  5728 ;; *************** function _AutoFox_INA226_setupCalibration *****************
  5729 ;; Defined at:
  5730 ;;		line 147 in file "ina226.c"
  5731 ;; Parameters:    Size  Location     Type
  5732 ;;  this            2   19[BANK0 ] PTR struct AutoFox_INA22
  5733 ;;		 -> main@ina226(14), 
  5734 ;;  aShuntResist    2   21[BANK0 ] unsigned short 
  5735 ;;  aMaxCurrent_    4   23[BANK0 ] unsigned long 
  5736 ;; Auto vars:     Size  Location     Type
  5737 ;;  theCurrentLS    4   39[BANK0 ] unsigned long 
  5738 ;;  theCal          4   35[BANK0 ] unsigned long 
  5739 ;; Return value:  Size  Location     Type
  5740 ;;                  1    wreg      enum E1803
  5741 ;; Registers used:
  5742 ;;		wreg, fsr0l, fsr0h, status,2, status,0, pclath, cstack
  5743 ;; Tracked objects:
  5744 ;;		On entry : 0/0
  5745 ;;		On exit  : 0/0
  5746 ;;		Unchanged: 0/0
  5747 ;; Data sizes:     COMMON   BANK0   BANK1   BANK3   BANK2
  5748 ;;      Params:         0       8       0       0       0
  5749 ;;      Locals:         0       8       0       0       0
  5750 ;;      Temps:          0       8       0       0       0
  5751 ;;      Totals:         0      24       0       0       0
  5752 ;;Total ram usage:       24 bytes
  5753 ;; Hardware stack levels used: 1
  5754 ;; Hardware stack levels required when called: 4
  5755 ;; This function calls:
  5756 ;;		_AutoFox_INA226_WriteRegister
  5757 ;;		___lldiv
  5758 ;;		___lmul
  5759 ;; This function is called by:
  5760 ;;		_AutoFox_INA226_Init
  5761 ;; This function uses a non-reentrant model
  5762 ;;
  5763                           
  5764     060D                     _AutoFox_INA226_setupCalibration:	
  5765                           ;psect for function _AutoFox_INA226_setupCalibration
  5766                           
  5767     060D                     l3393:	
  5768                           ;incstack = 0
  5769                           ; Regs used in _AutoFox_INA226_setupCalibration: [wreg-fsr0h+status,2+status,0+pclath+cs
      +                          tack]
  5770                           
  5771                           
  5772                           ;ina226.c: 147: status AutoFox_INA226_setupCalibration(AutoFox_INA226* this, uint16_t aS
      +                          huntResistor_mOhms, uint32_t aMaxCurrent_Amps);ina226.c: 148: {;ina226.c: 152:     uint3
      +                          2_t theCurrentLSB_uA = (aMaxCurrent_Amps * 1000000 + 32766) / 32767;
  5773     060D  3000               	movlw	0
  5774     060E  1283               	bcf	3,5	;RP0=0, select bank0
  5775     060F  1303               	bcf	3,6	;RP1=0, select bank0
  5776     0610  00A8               	movwf	___lldiv@divisor+3
  5777     0611  3000               	movlw	0
  5778     0612  00A7               	movwf	___lldiv@divisor+2
  5779     0613  307F               	movlw	127
  5780     0614  00A6               	movwf	___lldiv@divisor+1
  5781     0615  30FF               	movlw	255
  5782     0616  00A5               	movwf	___lldiv@divisor
  5783     0617  30FE               	movlw	254
  5784     0618  00BB               	movwf	??_AutoFox_INA226_setupCalibration
  5785     0619  307F               	movlw	127
  5786     061A  00BC               	movwf	??_AutoFox_INA226_setupCalibration+1
  5787     061B  3000               	movlw	0
  5788     061C  00BD               	movwf	??_AutoFox_INA226_setupCalibration+2
  5789     061D  3000               	movlw	0
  5790     061E  00BE               	movwf	??_AutoFox_INA226_setupCalibration+3
  5791     061F  083A               	movf	AutoFox_INA226_setupCalibration@aMaxCurrent_Amps+3,w
  5792     0620  00F5               	movwf	___lmul@multiplier+3
  5793     0621  0839               	movf	AutoFox_INA226_setupCalibration@aMaxCurrent_Amps+2,w
  5794     0622  00F4               	movwf	___lmul@multiplier+2
  5795     0623  0838               	movf	AutoFox_INA226_setupCalibration@aMaxCurrent_Amps+1,w
  5796     0624  00F3               	movwf	___lmul@multiplier+1
  5797     0625  0837               	movf	AutoFox_INA226_setupCalibration@aMaxCurrent_Amps,w
  5798     0626  00F2               	movwf	___lmul@multiplier
  5799     0627  3000               	movlw	0
  5800     0628  00F9               	movwf	___lmul@multiplicand+3
  5801     0629  300F               	movlw	15
  5802     062A  00F8               	movwf	___lmul@multiplicand+2
  5803     062B  3042               	movlw	66
  5804     062C  00F7               	movwf	___lmul@multiplicand+1
  5805     062D  3040               	movlw	64
  5806     062E  00F6               	movwf	___lmul@multiplicand
  5807     062F  120A  158A  2186  120A  118A  	fcall	___lmul
  5808     0634  0872               	movf	?___lmul,w
  5809     0635  1283               	bcf	3,5	;RP0=0, select bank0
  5810     0636  1303               	bcf	3,6	;RP1=0, select bank0
  5811     0637  07BB               	addwf	??_AutoFox_INA226_setupCalibration,f
  5812     0638  0873               	movf	?___lmul+1,w
  5813     0639  1803               	skipnc
  5814     063A  0F73               	incfsz	?___lmul+1,w
  5815     063B  2E3D               	goto	u2830
  5816     063C  2E3E               	goto	u2831
  5817     063D                     u2830:
  5818     063D  07BC               	addwf	??_AutoFox_INA226_setupCalibration+1,f
  5819     063E                     u2831:
  5820     063E  0874               	movf	?___lmul+2,w
  5821     063F  1803               	skipnc
  5822     0640  0F74               	incfsz	?___lmul+2,w
  5823     0641  2E43               	goto	u2832
  5824     0642  2E44               	goto	u2833
  5825     0643                     u2832:
  5826     0643  07BD               	addwf	??_AutoFox_INA226_setupCalibration+2,f
  5827     0644                     u2833:
  5828     0644  0875               	movf	?___lmul+3,w
  5829     0645  1803               	skipnc
  5830     0646  0A75               	incf	?___lmul+3,w
  5831     0647  07BE               	addwf	??_AutoFox_INA226_setupCalibration+3,f
  5832     0648  083E               	movf	??_AutoFox_INA226_setupCalibration+3,w
  5833     0649  00AC               	movwf	___lldiv@dividend+3
  5834     064A  083D               	movf	??_AutoFox_INA226_setupCalibration+2,w
  5835     064B  00AB               	movwf	___lldiv@dividend+2
  5836     064C  083C               	movf	??_AutoFox_INA226_setupCalibration+1,w
  5837     064D  00AA               	movwf	___lldiv@dividend+1
  5838     064E  083B               	movf	??_AutoFox_INA226_setupCalibration,w
  5839     064F  00A9               	movwf	___lldiv@dividend
  5840     0650  120A  158A  23E5  120A  118A  	fcall	___lldiv
  5841     0655  1283               	bcf	3,5	;RP0=0, select bank0
  5842     0656  1303               	bcf	3,6	;RP1=0, select bank0
  5843     0657  0828               	movf	?___lldiv+3,w
  5844     0658  00CA               	movwf	AutoFox_INA226_setupCalibration@theCurrentLSB_uA+3
  5845     0659  0827               	movf	?___lldiv+2,w
  5846     065A  00C9               	movwf	AutoFox_INA226_setupCalibration@theCurrentLSB_uA+2
  5847     065B  0826               	movf	?___lldiv+1,w
  5848     065C  00C8               	movwf	AutoFox_INA226_setupCalibration@theCurrentLSB_uA+1
  5849     065D  0825               	movf	?___lldiv,w
  5850     065E  00C7               	movwf	AutoFox_INA226_setupCalibration@theCurrentLSB_uA
  5851                           
  5852                           ;ina226.c: 157:     uint32_t theCal = (5120000 + (aShuntResistor_mOhms * theCurrentLSB_u
      +                          A) / 2) /
  5853     065F  0835               	movf	AutoFox_INA226_setupCalibration@aShuntResistor_mOhms,w
  5854     0660  00F2               	movwf	___lmul@multiplier
  5855     0661  0836               	movf	AutoFox_INA226_setupCalibration@aShuntResistor_mOhms+1,w
  5856     0662  00F3               	movwf	___lmul@multiplier+1
  5857     0663  01F4               	clrf	___lmul@multiplier+2
  5858     0664  01F5               	clrf	___lmul@multiplier+3
  5859     0665  084A               	movf	AutoFox_INA226_setupCalibration@theCurrentLSB_uA+3,w
  5860     0666  00F9               	movwf	___lmul@multiplicand+3
  5861     0667  0849               	movf	AutoFox_INA226_setupCalibration@theCurrentLSB_uA+2,w
  5862     0668  00F8               	movwf	___lmul@multiplicand+2
  5863     0669  0848               	movf	AutoFox_INA226_setupCalibration@theCurrentLSB_uA+1,w
  5864     066A  00F7               	movwf	___lmul@multiplicand+1
  5865     066B  0847               	movf	AutoFox_INA226_setupCalibration@theCurrentLSB_uA,w
  5866     066C  00F6               	movwf	___lmul@multiplicand
  5867     066D  120A  158A  2186  120A  118A  	fcall	___lmul
  5868     0672  0875               	movf	?___lmul+3,w
  5869     0673  1283               	bcf	3,5	;RP0=0, select bank0
  5870     0674  1303               	bcf	3,6	;RP1=0, select bank0
  5871     0675  00A8               	movwf	___lldiv@divisor+3
  5872     0676  0874               	movf	?___lmul+2,w
  5873     0677  00A7               	movwf	___lldiv@divisor+2
  5874     0678  0873               	movf	?___lmul+1,w
  5875     0679  00A6               	movwf	___lldiv@divisor+1
  5876     067A  0872               	movf	?___lmul,w
  5877     067B  00A5               	movwf	___lldiv@divisor
  5878     067C  3000               	movlw	0
  5879     067D  00BB               	movwf	??_AutoFox_INA226_setupCalibration
  5880     067E  3020               	movlw	32
  5881     067F  00BC               	movwf	??_AutoFox_INA226_setupCalibration+1
  5882     0680  304E               	movlw	78
  5883     0681  00BD               	movwf	??_AutoFox_INA226_setupCalibration+2
  5884     0682  3000               	movlw	0
  5885     0683  00BE               	movwf	??_AutoFox_INA226_setupCalibration+3
  5886     0684  0835               	movf	AutoFox_INA226_setupCalibration@aShuntResistor_mOhms,w
  5887     0685  00F2               	movwf	___lmul@multiplier
  5888     0686  0836               	movf	AutoFox_INA226_setupCalibration@aShuntResistor_mOhms+1,w
  5889     0687  00F3               	movwf	___lmul@multiplier+1
  5890     0688  01F4               	clrf	___lmul@multiplier+2
  5891     0689  01F5               	clrf	___lmul@multiplier+3
  5892     068A  084A               	movf	AutoFox_INA226_setupCalibration@theCurrentLSB_uA+3,w
  5893     068B  00F9               	movwf	___lmul@multiplicand+3
  5894     068C  0849               	movf	AutoFox_INA226_setupCalibration@theCurrentLSB_uA+2,w
  5895     068D  00F8               	movwf	___lmul@multiplicand+2
  5896     068E  0848               	movf	AutoFox_INA226_setupCalibration@theCurrentLSB_uA+1,w
  5897     068F  00F7               	movwf	___lmul@multiplicand+1
  5898     0690  0847               	movf	AutoFox_INA226_setupCalibration@theCurrentLSB_uA,w
  5899     0691  00F6               	movwf	___lmul@multiplicand
  5900     0692  120A  158A  2186  120A  118A  	fcall	___lmul
  5901     0697  0872               	movf	?___lmul,w
  5902     0698  1283               	bcf	3,5	;RP0=0, select bank0
  5903     0699  1303               	bcf	3,6	;RP1=0, select bank0
  5904     069A  00BF               	movwf	??_AutoFox_INA226_setupCalibration+4
  5905     069B  0873               	movf	?___lmul+1,w
  5906     069C  00C0               	movwf	??_AutoFox_INA226_setupCalibration+5
  5907     069D  0874               	movf	?___lmul+2,w
  5908     069E  00C1               	movwf	??_AutoFox_INA226_setupCalibration+6
  5909     069F  0875               	movf	?___lmul+3,w
  5910     06A0  00C2               	movwf	??_AutoFox_INA226_setupCalibration+7
  5911     06A1  3001               	movlw	1
  5912     06A2                     u2845:
  5913     06A2  1003               	clrc
  5914     06A3  0CC2               	rrf	??_AutoFox_INA226_setupCalibration+7,f
  5915     06A4  0CC1               	rrf	??_AutoFox_INA226_setupCalibration+6,f
  5916     06A5  0CC0               	rrf	??_AutoFox_INA226_setupCalibration+5,f
  5917     06A6  0CBF               	rrf	??_AutoFox_INA226_setupCalibration+4,f
  5918     06A7                     u2840:
  5919     06A7  3EFF               	addlw	-1
  5920     06A8  1D03               	skipz
  5921     06A9  2EA2               	goto	u2845
  5922     06AA  083F               	movf	??_AutoFox_INA226_setupCalibration+4,w
  5923     06AB  07BB               	addwf	??_AutoFox_INA226_setupCalibration,f
  5924     06AC  0840               	movf	??_AutoFox_INA226_setupCalibration+5,w
  5925     06AD  1803               	skipnc
  5926     06AE  0F40               	incfsz	??_AutoFox_INA226_setupCalibration+5,w
  5927     06AF  2EB1               	goto	u2850
  5928     06B0  2EB2               	goto	u2851
  5929     06B1                     u2850:
  5930     06B1  07BC               	addwf	??_AutoFox_INA226_setupCalibration+1,f
  5931     06B2                     u2851:
  5932     06B2  0841               	movf	??_AutoFox_INA226_setupCalibration+6,w
  5933     06B3  1803               	skipnc
  5934     06B4  0F41               	incfsz	??_AutoFox_INA226_setupCalibration+6,w
  5935     06B5  2EB7               	goto	u2852
  5936     06B6  2EB8               	goto	u2853
  5937     06B7                     u2852:
  5938     06B7  07BD               	addwf	??_AutoFox_INA226_setupCalibration+2,f
  5939     06B8                     u2853:
  5940     06B8  0842               	movf	??_AutoFox_INA226_setupCalibration+7,w
  5941     06B9  1803               	skipnc
  5942     06BA  0A42               	incf	??_AutoFox_INA226_setupCalibration+7,w
  5943     06BB  07BE               	addwf	??_AutoFox_INA226_setupCalibration+3,f
  5944     06BC  083E               	movf	??_AutoFox_INA226_setupCalibration+3,w
  5945     06BD  00AC               	movwf	___lldiv@dividend+3
  5946     06BE  083D               	movf	??_AutoFox_INA226_setupCalibration+2,w
  5947     06BF  00AB               	movwf	___lldiv@dividend+2
  5948     06C0  083C               	movf	??_AutoFox_INA226_setupCalibration+1,w
  5949     06C1  00AA               	movwf	___lldiv@dividend+1
  5950     06C2  083B               	movf	??_AutoFox_INA226_setupCalibration,w
  5951     06C3  00A9               	movwf	___lldiv@dividend
  5952     06C4  120A  158A  23E5  120A  118A  	fcall	___lldiv
  5953     06C9  1283               	bcf	3,5	;RP0=0, select bank0
  5954     06CA  1303               	bcf	3,6	;RP1=0, select bank0
  5955     06CB  0828               	movf	?___lldiv+3,w
  5956     06CC  00C6               	movwf	AutoFox_INA226_setupCalibration@theCal+3
  5957     06CD  0827               	movf	?___lldiv+2,w
  5958     06CE  00C5               	movwf	AutoFox_INA226_setupCalibration@theCal+2
  5959     06CF  0826               	movf	?___lldiv+1,w
  5960     06D0  00C4               	movwf	AutoFox_INA226_setupCalibration@theCal+1
  5961     06D1  0825               	movf	?___lldiv,w
  5962     06D2  00C3               	movwf	AutoFox_INA226_setupCalibration@theCal
  5963     06D3                     l3395:
  5964                           
  5965                           ;ina226.c: 161:     this->mCurrentMicroAmpsPerBit = (int32_t)theCurrentLSB_uA;
  5966     06D3  0833               	movf	AutoFox_INA226_setupCalibration@this,w
  5967     06D4  3E06               	addlw	6
  5968     06D5  00BB               	movwf	??_AutoFox_INA226_setupCalibration
  5969     06D6  0834               	movf	AutoFox_INA226_setupCalibration@this+1,w
  5970     06D7  1803               	skipnc
  5971     06D8  3E01               	addlw	1
  5972     06D9  3E00               	addlw	0
  5973     06DA  00BC               	movwf	??_AutoFox_INA226_setupCalibration+1
  5974     06DB  083B               	movf	??_AutoFox_INA226_setupCalibration,w
  5975     06DC  0084               	movwf	4
  5976     06DD  1783               	bsf	3,7
  5977     06DE  1C3C               	btfss	??_AutoFox_INA226_setupCalibration+1,0
  5978     06DF  1383               	bcf	3,7
  5979     06E0  0847               	movf	AutoFox_INA226_setupCalibration@theCurrentLSB_uA,w
  5980     06E1  0080               	movwf	0
  5981     06E2  0A84               	incf	4,f
  5982     06E3  0848               	movf	AutoFox_INA226_setupCalibration@theCurrentLSB_uA+1,w
  5983     06E4  0080               	movwf	0
  5984     06E5  0A84               	incf	4,f
  5985     06E6  0849               	movf	AutoFox_INA226_setupCalibration@theCurrentLSB_uA+2,w
  5986     06E7  0080               	movwf	0
  5987     06E8  0A84               	incf	4,f
  5988     06E9  084A               	movf	AutoFox_INA226_setupCalibration@theCurrentLSB_uA+3,w
  5989     06EA  0080               	movwf	0
  5990     06EB                     l3397:
  5991                           
  5992                           ;ina226.c: 162:     this->mCalibrationValue = (uint16_t)theCal;
  5993     06EB  0833               	movf	AutoFox_INA226_setupCalibration@this,w
  5994     06EC  3E04               	addlw	4
  5995     06ED  00BB               	movwf	??_AutoFox_INA226_setupCalibration
  5996     06EE  0834               	movf	AutoFox_INA226_setupCalibration@this+1,w
  5997     06EF  1803               	skipnc
  5998     06F0  3E01               	addlw	1
  5999     06F1  3E00               	addlw	0
  6000     06F2  00BC               	movwf	??_AutoFox_INA226_setupCalibration+1
  6001     06F3  083B               	movf	??_AutoFox_INA226_setupCalibration,w
  6002     06F4  0084               	movwf	4
  6003     06F5  1783               	bsf	3,7
  6004     06F6  1C3C               	btfss	??_AutoFox_INA226_setupCalibration+1,0
  6005     06F7  1383               	bcf	3,7
  6006     06F8  0843               	movf	AutoFox_INA226_setupCalibration@theCal,w
  6007     06F9  0080               	movwf	0
  6008     06FA  0A84               	incf	4,f
  6009     06FB  0844               	movf	AutoFox_INA226_setupCalibration@theCal+1,w
  6010     06FC  0080               	movwf	0
  6011     06FD                     l3399:
  6012                           
  6013                           ;ina226.c: 163:     this->mPowerMicroWattPerBit = this->mCurrentMicroAmpsPerBit * INA226
      +                          _POWER_LSB_FACTOR;
  6014     06FD  0833               	movf	AutoFox_INA226_setupCalibration@this,w
  6015     06FE  3E06               	addlw	6
  6016     06FF  00BB               	movwf	??_AutoFox_INA226_setupCalibration
  6017     0700  0834               	movf	AutoFox_INA226_setupCalibration@this+1,w
  6018     0701  1803               	skipnc
  6019     0702  3E01               	addlw	1
  6020     0703  3E00               	addlw	0
  6021     0704  00BC               	movwf	??_AutoFox_INA226_setupCalibration+1
  6022     0705  083B               	movf	??_AutoFox_INA226_setupCalibration,w
  6023     0706  0084               	movwf	4
  6024     0707  1783               	bsf	3,7
  6025     0708  1C3C               	btfss	??_AutoFox_INA226_setupCalibration+1,0
  6026     0709  1383               	bcf	3,7
  6027     070A  0800               	movf	0,w
  6028     070B  00F2               	movwf	___lmul@multiplier
  6029     070C  0A84               	incf	4,f
  6030     070D  0800               	movf	0,w
  6031     070E  00F3               	movwf	___lmul@multiplier+1
  6032     070F  0A84               	incf	4,f
  6033     0710  0800               	movf	0,w
  6034     0711  00F4               	movwf	___lmul@multiplier+2
  6035     0712  0A84               	incf	4,f
  6036     0713  0800               	movf	0,w
  6037     0714  00F5               	movwf	___lmul@multiplier+3
  6038     0715  3000               	movlw	0
  6039     0716  00F9               	movwf	___lmul@multiplicand+3
  6040     0717  3000               	movlw	0
  6041     0718  00F8               	movwf	___lmul@multiplicand+2
  6042     0719  3000               	movlw	0
  6043     071A  00F7               	movwf	___lmul@multiplicand+1
  6044     071B  3019               	movlw	25
  6045     071C  00F6               	movwf	___lmul@multiplicand
  6046     071D  120A  158A  2186  120A  118A  	fcall	___lmul
  6047     0722  1283               	bcf	3,5	;RP0=0, select bank0
  6048     0723  1303               	bcf	3,6	;RP1=0, select bank0
  6049     0724  0833               	movf	AutoFox_INA226_setupCalibration@this,w
  6050     0725  3E0A               	addlw	10
  6051     0726  00BD               	movwf	??_AutoFox_INA226_setupCalibration+2
  6052     0727  0834               	movf	AutoFox_INA226_setupCalibration@this+1,w
  6053     0728  1803               	skipnc
  6054     0729  3E01               	addlw	1
  6055     072A  3E00               	addlw	0
  6056     072B  00BE               	movwf	??_AutoFox_INA226_setupCalibration+3
  6057     072C  083D               	movf	??_AutoFox_INA226_setupCalibration+2,w
  6058     072D  0084               	movwf	4
  6059     072E  1783               	bsf	3,7
  6060     072F  1C3E               	btfss	??_AutoFox_INA226_setupCalibration+3,0
  6061     0730  1383               	bcf	3,7
  6062     0731  0872               	movf	?___lmul,w
  6063     0732  0080               	movwf	0
  6064     0733  0A84               	incf	4,f
  6065     0734  0873               	movf	?___lmul+1,w
  6066     0735  0080               	movwf	0
  6067     0736  0A84               	incf	4,f
  6068     0737  0874               	movf	?___lmul+2,w
  6069     0738  0080               	movwf	0
  6070     0739  0A84               	incf	4,f
  6071     073A  0875               	movf	?___lmul+3,w
  6072     073B  0080               	movwf	0
  6073     073C                     l3401:
  6074                           
  6075                           ;ina226.c: 166:     return AutoFox_INA226_WriteRegister(this, INA226_CALIBRATION, this->
      +                          mCalibrationValue);
  6076     073C  0833               	movf	AutoFox_INA226_setupCalibration@this,w
  6077     073D  00F4               	movwf	AutoFox_INA226_WriteRegister@this
  6078     073E  0834               	movf	AutoFox_INA226_setupCalibration@this+1,w
  6079     073F  00F5               	movwf	AutoFox_INA226_WriteRegister@this+1
  6080     0740  3005               	movlw	5
  6081     0741  00F6               	movwf	AutoFox_INA226_WriteRegister@aRegister
  6082     0742  0833               	movf	AutoFox_INA226_setupCalibration@this,w
  6083     0743  3E04               	addlw	4
  6084     0744  00BB               	movwf	??_AutoFox_INA226_setupCalibration
  6085     0745  0834               	movf	AutoFox_INA226_setupCalibration@this+1,w
  6086     0746  1803               	skipnc
  6087     0747  3E01               	addlw	1
  6088     0748  3E00               	addlw	0
  6089     0749  00BC               	movwf	??_AutoFox_INA226_setupCalibration+1
  6090     074A  083B               	movf	??_AutoFox_INA226_setupCalibration,w
  6091     074B  0084               	movwf	4
  6092     074C  1783               	bsf	3,7
  6093     074D  1C3C               	btfss	??_AutoFox_INA226_setupCalibration+1,0
  6094     074E  1383               	bcf	3,7
  6095     074F  0800               	movf	0,w
  6096     0750  00F7               	movwf	AutoFox_INA226_WriteRegister@aValue
  6097     0751  0A84               	incf	4,f
  6098     0752  0800               	movf	0,w
  6099     0753  00F8               	movwf	AutoFox_INA226_WriteRegister@aValue+1
  6100     0754  120A  158A  22CA  120A  118A  	fcall	_AutoFox_INA226_WriteRegister
  6101     0759                     l326:
  6102     0759  0008               	return
  6103     075A                     __end_of_AutoFox_INA226_setupCalibration:
  6104                           
  6105                           	psect	text21
  6106     0843                     __ptext21:	
  6107 ;; *************** function _AutoFox_INA226_CheckI2cAddress *****************
  6108 ;; Defined at:
  6109 ;;		line 172 in file "ina226.c"
  6110 ;; Parameters:    Size  Location     Type
  6111 ;;  aI2C_Address    1    wreg     unsigned char 
  6112 ;; Auto vars:     Size  Location     Type
  6113 ;;  aI2C_Address    1    6[COMMON] unsigned char 
  6114 ;; Return value:  Size  Location     Type
  6115 ;;                  1    wreg      enum E1803
  6116 ;; Registers used:
  6117 ;;		wreg, status,2, status,0, pclath, cstack
  6118 ;; Tracked objects:
  6119 ;;		On entry : 0/0
  6120 ;;		On exit  : 0/0
  6121 ;;		Unchanged: 0/0
  6122 ;; Data sizes:     COMMON   BANK0   BANK1   BANK3   BANK2
  6123 ;;      Params:         0       0       0       0       0
  6124 ;;      Locals:         1       0       0       0       0
  6125 ;;      Temps:          2       0       0       0       0
  6126 ;;      Totals:         3       0       0       0       0
  6127 ;;Total ram usage:        3 bytes
  6128 ;; Hardware stack levels used: 1
  6129 ;; Hardware stack levels required when called: 3
  6130 ;; This function calls:
  6131 ;;		_I2C_Master_Start
  6132 ;;		_I2C_Master_Stop
  6133 ;;		_I2C_Master_Write
  6134 ;; This function is called by:
  6135 ;;		_AutoFox_INA226_Init
  6136 ;; This function uses a non-reentrant model
  6137 ;;
  6138                           
  6139     0843                     _AutoFox_INA226_CheckI2cAddress:	
  6140                           ;psect for function _AutoFox_INA226_CheckI2cAddress
  6141                           
  6142                           
  6143                           ;incstack = 0
  6144                           ; Regs used in _AutoFox_INA226_CheckI2cAddress: [wreg+status,2+status,0+pclath+cstack]
  6145                           ;AutoFox_INA226_CheckI2cAddress@aI2C_Address stored from wreg
  6146     0843  00F6               	movwf	AutoFox_INA226_CheckI2cAddress@aI2C_Address
  6147     0844                     l3347:
  6148                           
  6149                           ;ina226.c: 172: status AutoFox_INA226_CheckI2cAddress(uint8_t aI2C_Address);ina226.c: 17
      +                          3: {;ina226.c: 174:     I2C_Master_Start();
  6150     0844  160A  118A  2775  120A  158A  	fcall	_I2C_Master_Start
  6151     0849                     l3349:
  6152                           
  6153                           ;ina226.c: 177:     I2C_Master_Write((aI2C_Address << 1) | 0);
  6154     0849  0876               	movf	AutoFox_INA226_CheckI2cAddress@aI2C_Address,w
  6155     084A  00F4               	movwf	??_AutoFox_INA226_CheckI2cAddress
  6156     084B  01F5               	clrf	??_AutoFox_INA226_CheckI2cAddress+1
  6157     084C  1003               	clrc
  6158     084D  0D74               	rlf	??_AutoFox_INA226_CheckI2cAddress,w
  6159     084E  00F2               	movwf	I2C_Master_Write@data
  6160     084F  0D75               	rlf	??_AutoFox_INA226_CheckI2cAddress+1,w
  6161     0850  00F3               	movwf	I2C_Master_Write@data+1
  6162     0851  160A  118A  2787  120A  158A  	fcall	_I2C_Master_Write
  6163     0856                     l3351:
  6164                           
  6165                           ;ina226.c: 179:     if (ACKSTAT == 0)
  6166     0856  1683               	bsf	3,5	;RP0=1, select bank1
  6167     0857  1303               	bcf	3,6	;RP1=0, select bank1
  6168     0858  1B11               	btfsc	17,6	;volatile
  6169     0859  285B               	goto	u2821
  6170     085A  285C               	goto	u2820
  6171     085B                     u2821:
  6172     085B  2863               	goto	l3361
  6173     085C                     u2820:
  6174     085C                     l3353:
  6175                           
  6176                           ;ina226.c: 180:     {;ina226.c: 181:         I2C_Master_Stop();
  6177     085C  160A  118A  277E  120A  158A  	fcall	_I2C_Master_Stop
  6178     0861                     l3355:
  6179                           
  6180                           ;ina226.c: 182:         return OK;
  6181     0861  3000               	movlw	0
  6182     0862  2869               	goto	l330
  6183     0863                     l3361:
  6184                           
  6185                           ;ina226.c: 185:     {;ina226.c: 186:         I2C_Master_Stop();
  6186     0863  160A  118A  277E  120A  158A  	fcall	_I2C_Master_Stop
  6187     0868                     l3363:
  6188                           
  6189                           ;ina226.c: 187:         return INVALID_I2C_ADDRESS;
  6190     0868  30F8               	movlw	248
  6191     0869                     l330:
  6192     0869  0008               	return
  6193     086A                     __end_of_AutoFox_INA226_CheckI2cAddress:
  6194                           
  6195                           	psect	text22
  6196     09CE                     __ptext22:	
  6197 ;; *************** function _AutoFox_INA226_GetBusVoltage_V *****************
  6198 ;; Defined at:
  6199 ;;		line 248 in file "ina226.c"
  6200 ;; Parameters:    Size  Location     Type
  6201 ;;  this            2   19[BANK0 ] PTR struct AutoFox_INA22
  6202 ;;		 -> main@ina226(14), 
  6203 ;; Auto vars:     Size  Location     Type
  6204 ;;  theRegisterV    4   21[BANK0 ] unsigned long 
  6205 ;; Return value:  Size  Location     Type
  6206 ;;                  2   19[BANK0 ] unsigned short 
  6207 ;; Registers used:
  6208 ;;		wreg, fsr0l, fsr0h, status,2, status,0, btemp+1, pclath, cstack
  6209 ;; Tracked objects:
  6210 ;;		On entry : 0/0
  6211 ;;		On exit  : 0/0
  6212 ;;		Unchanged: 0/0
  6213 ;; Data sizes:     COMMON   BANK0   BANK1   BANK3   BANK2
  6214 ;;      Params:         0       2       0       0       0
  6215 ;;      Locals:         0       4       0       0       0
  6216 ;;      Temps:          0       0       0       0       0
  6217 ;;      Totals:         0       6       0       0       0
  6218 ;;Total ram usage:        6 bytes
  6219 ;; Hardware stack levels used: 1
  6220 ;; Hardware stack levels required when called: 4
  6221 ;; This function calls:
  6222 ;;		_AutoFox_INA226_ReadRegister
  6223 ;;		___lldiv
  6224 ;;		___lmul
  6225 ;; This function is called by:
  6226 ;;		_main
  6227 ;; This function uses a non-reentrant model
  6228 ;;
  6229                           
  6230     09CE                     _AutoFox_INA226_GetBusVoltage_V:	
  6231                           ;psect for function _AutoFox_INA226_GetBusVoltage_V
  6232                           
  6233     09CE                     l3579:	
  6234                           ;incstack = 0
  6235                           ; Regs used in _AutoFox_INA226_GetBusVoltage_V: [wreg-fsr0h+status,2+status,0+btemp+1+pc
      +                          lath+cstack]
  6236                           
  6237                           
  6238                           ;ina226.c: 248: uint16_t AutoFox_INA226_GetBusVoltage_V(AutoFox_INA226* this);ina226.c: 
      +                          249: {;ina226.c: 250:     uint32_t theRegisterValue = 0;
  6239     09CE  3000               	movlw	0
  6240     09CF  1283               	bcf	3,5	;RP0=0, select bank0
  6241     09D0  1303               	bcf	3,6	;RP1=0, select bank0
  6242     09D1  00B8               	movwf	AutoFox_INA226_GetBusVoltage_V@theRegisterValue+3
  6243     09D2  3000               	movlw	0
  6244     09D3  00B7               	movwf	AutoFox_INA226_GetBusVoltage_V@theRegisterValue+2
  6245     09D4  3000               	movlw	0
  6246     09D5  00B6               	movwf	AutoFox_INA226_GetBusVoltage_V@theRegisterValue+1
  6247     09D6  3000               	movlw	0
  6248     09D7  00B5               	movwf	AutoFox_INA226_GetBusVoltage_V@theRegisterValue
  6249     09D8                     l3581:
  6250                           
  6251                           ;ina226.c: 251:     AutoFox_INA226_ReadRegister(this, INA226_BUS_VOLTAGE, &theRegisterVa
      +                          lue);
  6252     09D8  0833               	movf	AutoFox_INA226_GetBusVoltage_V@this,w
  6253     09D9  00A0               	movwf	AutoFox_INA226_ReadRegister@this
  6254     09DA  0834               	movf	AutoFox_INA226_GetBusVoltage_V@this+1,w
  6255     09DB  00A1               	movwf	AutoFox_INA226_ReadRegister@this+1
  6256     09DC  3002               	movlw	2
  6257     09DD  00A2               	movwf	AutoFox_INA226_ReadRegister@aRegister
  6258     09DE  3035               	movlw	(low (AutoFox_INA226_GetBusVoltage_V@theRegisterValue| 0))& (0+255)
  6259     09DF  00A3               	movwf	AutoFox_INA226_ReadRegister@aValue_p
  6260     09E0  3000               	movlw	0
  6261     09E1  00A4               	movwf	AutoFox_INA226_ReadRegister@aValue_p+1
  6262     09E2  120A  118A  2027  120A  158A  	fcall	_AutoFox_INA226_ReadRegister
  6263     09E7                     l3583:
  6264                           
  6265                           ;ina226.c: 252:     return (uint16_t)((theRegisterValue * INA226_BUS_VOLTAGE_LSB)/10000)
      +                          ;
  6266     09E7  3000               	movlw	0
  6267     09E8  1283               	bcf	3,5	;RP0=0, select bank0
  6268     09E9  1303               	bcf	3,6	;RP1=0, select bank0
  6269     09EA  00A8               	movwf	___lldiv@divisor+3
  6270     09EB  3000               	movlw	0
  6271     09EC  00A7               	movwf	___lldiv@divisor+2
  6272     09ED  3027               	movlw	39
  6273     09EE  00A6               	movwf	___lldiv@divisor+1
  6274     09EF  3010               	movlw	16
  6275     09F0  00A5               	movwf	___lldiv@divisor
  6276     09F1  0838               	movf	AutoFox_INA226_GetBusVoltage_V@theRegisterValue+3,w
  6277     09F2  00F5               	movwf	___lmul@multiplier+3
  6278     09F3  0837               	movf	AutoFox_INA226_GetBusVoltage_V@theRegisterValue+2,w
  6279     09F4  00F4               	movwf	___lmul@multiplier+2
  6280     09F5  0836               	movf	AutoFox_INA226_GetBusVoltage_V@theRegisterValue+1,w
  6281     09F6  00F3               	movwf	___lmul@multiplier+1
  6282     09F7  0835               	movf	AutoFox_INA226_GetBusVoltage_V@theRegisterValue,w
  6283     09F8  00F2               	movwf	___lmul@multiplier
  6284     09F9  3000               	movlw	0
  6285     09FA  00F9               	movwf	___lmul@multiplicand+3
  6286     09FB  3000               	movlw	0
  6287     09FC  00F8               	movwf	___lmul@multiplicand+2
  6288     09FD  3004               	movlw	4
  6289     09FE  00F7               	movwf	___lmul@multiplicand+1
  6290     09FF  30CF               	movlw	207
  6291     0A00  00F6               	movwf	___lmul@multiplicand
  6292     0A01  120A  158A  2186  120A  158A  	fcall	___lmul
  6293     0A06  0875               	movf	?___lmul+3,w
  6294     0A07  1283               	bcf	3,5	;RP0=0, select bank0
  6295     0A08  1303               	bcf	3,6	;RP1=0, select bank0
  6296     0A09  00AC               	movwf	___lldiv@dividend+3
  6297     0A0A  0874               	movf	?___lmul+2,w
  6298     0A0B  00AB               	movwf	___lldiv@dividend+2
  6299     0A0C  0873               	movf	?___lmul+1,w
  6300     0A0D  00AA               	movwf	___lldiv@dividend+1
  6301     0A0E  0872               	movf	?___lmul,w
  6302     0A0F  00A9               	movwf	___lldiv@dividend
  6303     0A10  120A  158A  23E5  120A  158A  	fcall	___lldiv
  6304     0A15  1283               	bcf	3,5	;RP0=0, select bank0
  6305     0A16  1303               	bcf	3,6	;RP1=0, select bank0
  6306     0A17  0826               	movf	?___lldiv+1,w
  6307     0A18  00B4               	movwf	?_AutoFox_INA226_GetBusVoltage_V+1
  6308     0A19  0825               	movf	?___lldiv,w
  6309     0A1A  00B3               	movwf	?_AutoFox_INA226_GetBusVoltage_V
  6310     0A1B                     l343:
  6311     0A1B  0008               	return
  6312     0A1C                     __end_of_AutoFox_INA226_GetBusVoltage_V:
  6313                           
  6314                           	psect	text23
  6315     0986                     __ptext23:	
  6316 ;; *************** function ___lmul *****************
  6317 ;; Defined at:
  6318 ;;		line 15 in file "C:\Program Files\Microchip\xc8\v2.50\pic\sources\c99\common\Umul32.c"
  6319 ;; Parameters:    Size  Location     Type
  6320 ;;  multiplier      4    2[COMMON] unsigned long 
  6321 ;;  multiplicand    4    6[COMMON] unsigned long 
  6322 ;; Auto vars:     Size  Location     Type
  6323 ;;  product         4    1[BANK0 ] unsigned long 
  6324 ;; Return value:  Size  Location     Type
  6325 ;;                  4    2[COMMON] unsigned long 
  6326 ;; Registers used:
  6327 ;;		wreg, status,2, status,0
  6328 ;; Tracked objects:
  6329 ;;		On entry : 0/0
  6330 ;;		On exit  : 0/0
  6331 ;;		Unchanged: 0/0
  6332 ;; Data sizes:     COMMON   BANK0   BANK1   BANK3   BANK2
  6333 ;;      Params:         8       0       0       0       0
  6334 ;;      Locals:         0       4       0       0       0
  6335 ;;      Temps:          0       1       0       0       0
  6336 ;;      Totals:         8       5       0       0       0
  6337 ;;Total ram usage:       13 bytes
  6338 ;; Hardware stack levels used: 1
  6339 ;; Hardware stack levels required when called: 1
  6340 ;; This function calls:
  6341 ;;		Nothing
  6342 ;; This function is called by:
  6343 ;;		_AutoFox_INA226_setupCalibration
  6344 ;;		_AutoFox_INA226_GetBusVoltage_V
  6345 ;;		_ReadVoltageAverage
  6346 ;;		_AutoFox_INA226_GetCurrent_uA
  6347 ;;		_AutoFox_INA226_GetPower_uW
  6348 ;; This function uses a non-reentrant model
  6349 ;;
  6350                           
  6351     0986                     ___lmul:	
  6352                           ;psect for function ___lmul
  6353                           
  6354     0986                     l3293:	
  6355                           ;incstack = 0
  6356                           ; Regs used in ___lmul: [wreg+status,2+status,0]
  6357                           
  6358     0986  3000               	movlw	0
  6359     0987  1283               	bcf	3,5	;RP0=0, select bank0
  6360     0988  1303               	bcf	3,6	;RP1=0, select bank0
  6361     0989  00A4               	movwf	___lmul@product+3
  6362     098A  3000               	movlw	0
  6363     098B  00A3               	movwf	___lmul@product+2
  6364     098C  3000               	movlw	0
  6365     098D  00A2               	movwf	___lmul@product+1
  6366     098E  3000               	movlw	0
  6367     098F  00A1               	movwf	___lmul@product
  6368     0990                     l3295:
  6369     0990  1C72               	btfss	___lmul@multiplier,0
  6370     0991  2993               	goto	u2691
  6371     0992  2994               	goto	u2690
  6372     0993                     u2691:
  6373     0993  29AB               	goto	l3299
  6374     0994                     u2690:
  6375     0994                     l3297:
  6376     0994  0876               	movf	___lmul@multiplicand,w
  6377     0995  07A1               	addwf	___lmul@product,f
  6378     0996  0877               	movf	___lmul@multiplicand+1,w
  6379     0997  1103               	clrz
  6380     0998  1803               	skipnc
  6381     0999  3E01               	addlw	1
  6382     099A  1903               	skipnz
  6383     099B  299D               	goto	u2701
  6384     099C  07A2               	addwf	___lmul@product+1,f
  6385     099D                     u2701:
  6386     099D  0878               	movf	___lmul@multiplicand+2,w
  6387     099E  1103               	clrz
  6388     099F  1803               	skipnc
  6389     09A0  3E01               	addlw	1
  6390     09A1  1903               	skipnz
  6391     09A2  29A4               	goto	u2702
  6392     09A3  07A3               	addwf	___lmul@product+2,f
  6393     09A4                     u2702:
  6394     09A4  0879               	movf	___lmul@multiplicand+3,w
  6395     09A5  1103               	clrz
  6396     09A6  1803               	skipnc
  6397     09A7  3E01               	addlw	1
  6398     09A8  1903               	skipnz
  6399     09A9  29AB               	goto	u2703
  6400     09AA  07A4               	addwf	___lmul@product+3,f
  6401     09AB                     u2703:
  6402     09AB                     l3299:
  6403     09AB  3001               	movlw	1
  6404     09AC  00A0               	movwf	??___lmul
  6405     09AD                     u2715:
  6406     09AD  1003               	clrc
  6407     09AE  0DF6               	rlf	___lmul@multiplicand,f
  6408     09AF  0DF7               	rlf	___lmul@multiplicand+1,f
  6409     09B0  0DF8               	rlf	___lmul@multiplicand+2,f
  6410     09B1  0DF9               	rlf	___lmul@multiplicand+3,f
  6411     09B2  0BA0               	decfsz	??___lmul,f
  6412     09B3  29AD               	goto	u2715
  6413     09B4                     l3301:
  6414     09B4  3001               	movlw	1
  6415     09B5                     u2725:
  6416     09B5  1003               	clrc
  6417     09B6  0CF5               	rrf	___lmul@multiplier+3,f
  6418     09B7  0CF4               	rrf	___lmul@multiplier+2,f
  6419     09B8  0CF3               	rrf	___lmul@multiplier+1,f
  6420     09B9  0CF2               	rrf	___lmul@multiplier,f
  6421     09BA  3EFF               	addlw	-1
  6422     09BB  1D03               	skipz
  6423     09BC  29B5               	goto	u2725
  6424     09BD  0875               	movf	___lmul@multiplier+3,w
  6425     09BE  0474               	iorwf	___lmul@multiplier+2,w
  6426     09BF  0473               	iorwf	___lmul@multiplier+1,w
  6427     09C0  0472               	iorwf	___lmul@multiplier,w
  6428     09C1  1D03               	skipz
  6429     09C2  29C4               	goto	u2731
  6430     09C3  29C5               	goto	u2730
  6431     09C4                     u2731:
  6432     09C4  2990               	goto	l3295
  6433     09C5                     u2730:
  6434     09C5                     l3303:
  6435     09C5  0824               	movf	___lmul@product+3,w
  6436     09C6  00F5               	movwf	?___lmul+3
  6437     09C7  0823               	movf	___lmul@product+2,w
  6438     09C8  00F4               	movwf	?___lmul+2
  6439     09C9  0822               	movf	___lmul@product+1,w
  6440     09CA  00F3               	movwf	?___lmul+1
  6441     09CB  0821               	movf	___lmul@product,w
  6442     09CC  00F2               	movwf	?___lmul
  6443     09CD                     l575:
  6444     09CD  0008               	return
  6445     09CE                     __end_of___lmul:
  6446                           
  6447                           	psect	text24
  6448     0BE5                     __ptext24:	
  6449 ;; *************** function ___lldiv *****************
  6450 ;; Defined at:
  6451 ;;		line 5 in file "C:\Program Files\Microchip\xc8\v2.50\pic\sources\c99\common\__lldiv.c"
  6452 ;; Parameters:    Size  Location     Type
  6453 ;;  divisor         4    5[BANK0 ] unsigned long 
  6454 ;;  dividend        4    9[BANK0 ] unsigned long 
  6455 ;; Auto vars:     Size  Location     Type
  6456 ;;  quotient        4   14[BANK0 ] unsigned long 
  6457 ;;  counter         1   18[BANK0 ] unsigned char 
  6458 ;; Return value:  Size  Location     Type
  6459 ;;                  4    5[BANK0 ] unsigned long 
  6460 ;; Registers used:
  6461 ;;		wreg, status,2, status,0
  6462 ;; Tracked objects:
  6463 ;;		On entry : 0/0
  6464 ;;		On exit  : 0/0
  6465 ;;		Unchanged: 0/0
  6466 ;; Data sizes:     COMMON   BANK0   BANK1   BANK3   BANK2
  6467 ;;      Params:         0       8       0       0       0
  6468 ;;      Locals:         0       5       0       0       0
  6469 ;;      Temps:          0       1       0       0       0
  6470 ;;      Totals:         0      14       0       0       0
  6471 ;;Total ram usage:       14 bytes
  6472 ;; Hardware stack levels used: 1
  6473 ;; Hardware stack levels required when called: 1
  6474 ;; This function calls:
  6475 ;;		Nothing
  6476 ;; This function is called by:
  6477 ;;		_AutoFox_INA226_setupCalibration
  6478 ;;		_AutoFox_INA226_GetBusVoltage_V
  6479 ;;		_ReadVoltageAverage
  6480 ;; This function uses a non-reentrant model
  6481 ;;
  6482                           
  6483     0BE5                     ___lldiv:	
  6484                           ;psect for function ___lldiv
  6485                           
  6486     0BE5                     l3307:	
  6487                           ;incstack = 0
  6488                           ; Regs used in ___lldiv: [wreg+status,2+status,0]
  6489                           
  6490     0BE5  3000               	movlw	0
  6491     0BE6  1283               	bcf	3,5	;RP0=0, select bank0
  6492     0BE7  1303               	bcf	3,6	;RP1=0, select bank0
  6493     0BE8  00B1               	movwf	___lldiv@quotient+3
  6494     0BE9  3000               	movlw	0
  6495     0BEA  00B0               	movwf	___lldiv@quotient+2
  6496     0BEB  3000               	movlw	0
  6497     0BEC  00AF               	movwf	___lldiv@quotient+1
  6498     0BED  3000               	movlw	0
  6499     0BEE  00AE               	movwf	___lldiv@quotient
  6500     0BEF  0828               	movf	___lldiv@divisor+3,w
  6501     0BF0  0427               	iorwf	___lldiv@divisor+2,w
  6502     0BF1  0426               	iorwf	___lldiv@divisor+1,w
  6503     0BF2  0425               	iorwf	___lldiv@divisor,w
  6504     0BF3  1903               	skipnz
  6505     0BF4  2BF6               	goto	u2741
  6506     0BF5  2BF7               	goto	u2740
  6507     0BF6                     u2741:
  6508     0BF6  2C42               	goto	l3327
  6509     0BF7                     u2740:
  6510     0BF7                     l3309:
  6511     0BF7  3001               	movlw	1
  6512     0BF8  00B2               	movwf	___lldiv@counter
  6513     0BF9  2C05               	goto	l3313
  6514     0BFA                     l3311:
  6515     0BFA  3001               	movlw	1
  6516     0BFB  00AD               	movwf	??___lldiv
  6517     0BFC                     u2755:
  6518     0BFC  1003               	clrc
  6519     0BFD  0DA5               	rlf	___lldiv@divisor,f
  6520     0BFE  0DA6               	rlf	___lldiv@divisor+1,f
  6521     0BFF  0DA7               	rlf	___lldiv@divisor+2,f
  6522     0C00  0DA8               	rlf	___lldiv@divisor+3,f
  6523     0C01  0BAD               	decfsz	??___lldiv,f
  6524     0C02  2BFC               	goto	u2755
  6525     0C03  3001               	movlw	1
  6526     0C04  07B2               	addwf	___lldiv@counter,f
  6527     0C05                     l3313:
  6528     0C05  1FA8               	btfss	___lldiv@divisor+3,7
  6529     0C06  2C08               	goto	u2761
  6530     0C07  2C09               	goto	u2760
  6531     0C08                     u2761:
  6532     0C08  2BFA               	goto	l3311
  6533     0C09                     u2760:
  6534     0C09                     l3315:
  6535     0C09  3001               	movlw	1
  6536     0C0A  00AD               	movwf	??___lldiv
  6537     0C0B                     u2775:
  6538     0C0B  1003               	clrc
  6539     0C0C  0DAE               	rlf	___lldiv@quotient,f
  6540     0C0D  0DAF               	rlf	___lldiv@quotient+1,f
  6541     0C0E  0DB0               	rlf	___lldiv@quotient+2,f
  6542     0C0F  0DB1               	rlf	___lldiv@quotient+3,f
  6543     0C10  0BAD               	decfsz	??___lldiv,f
  6544     0C11  2C0B               	goto	u2775
  6545     0C12                     l3317:
  6546     0C12  0828               	movf	___lldiv@divisor+3,w
  6547     0C13  022C               	subwf	___lldiv@dividend+3,w
  6548     0C14  1D03               	skipz
  6549     0C15  2C20               	goto	u2785
  6550     0C16  0827               	movf	___lldiv@divisor+2,w
  6551     0C17  022B               	subwf	___lldiv@dividend+2,w
  6552     0C18  1D03               	skipz
  6553     0C19  2C20               	goto	u2785
  6554     0C1A  0826               	movf	___lldiv@divisor+1,w
  6555     0C1B  022A               	subwf	___lldiv@dividend+1,w
  6556     0C1C  1D03               	skipz
  6557     0C1D  2C20               	goto	u2785
  6558     0C1E  0825               	movf	___lldiv@divisor,w
  6559     0C1F  0229               	subwf	___lldiv@dividend,w
  6560     0C20                     u2785:
  6561     0C20  1C03               	skipc
  6562     0C21  2C23               	goto	u2781
  6563     0C22  2C24               	goto	u2780
  6564     0C23                     u2781:
  6565     0C23  2C33               	goto	l3323
  6566     0C24                     u2780:
  6567     0C24                     l3319:
  6568     0C24  0825               	movf	___lldiv@divisor,w
  6569     0C25  02A9               	subwf	___lldiv@dividend,f
  6570     0C26  0826               	movf	___lldiv@divisor+1,w
  6571     0C27  1C03               	skipc
  6572     0C28  0F26               	incfsz	___lldiv@divisor+1,w
  6573     0C29  02AA               	subwf	___lldiv@dividend+1,f
  6574     0C2A  0827               	movf	___lldiv@divisor+2,w
  6575     0C2B  1C03               	skipc
  6576     0C2C  0F27               	incfsz	___lldiv@divisor+2,w
  6577     0C2D  02AB               	subwf	___lldiv@dividend+2,f
  6578     0C2E  0828               	movf	___lldiv@divisor+3,w
  6579     0C2F  1C03               	skipc
  6580     0C30  0F28               	incfsz	___lldiv@divisor+3,w
  6581     0C31  02AC               	subwf	___lldiv@dividend+3,f
  6582     0C32                     l3321:
  6583     0C32  142E               	bsf	___lldiv@quotient,0
  6584     0C33                     l3323:
  6585     0C33  3001               	movlw	1
  6586     0C34                     u2795:
  6587     0C34  1003               	clrc
  6588     0C35  0CA8               	rrf	___lldiv@divisor+3,f
  6589     0C36  0CA7               	rrf	___lldiv@divisor+2,f
  6590     0C37  0CA6               	rrf	___lldiv@divisor+1,f
  6591     0C38  0CA5               	rrf	___lldiv@divisor,f
  6592     0C39  3EFF               	addlw	-1
  6593     0C3A  1D03               	skipz
  6594     0C3B  2C34               	goto	u2795
  6595     0C3C                     l3325:
  6596     0C3C  3001               	movlw	1
  6597     0C3D  02B2               	subwf	___lldiv@counter,f
  6598     0C3E  1D03               	btfss	3,2
  6599     0C3F  2C41               	goto	u2801
  6600     0C40  2C42               	goto	u2800
  6601     0C41                     u2801:
  6602     0C41  2C09               	goto	l3315
  6603     0C42                     u2800:
  6604     0C42                     l3327:
  6605     0C42  0831               	movf	___lldiv@quotient+3,w
  6606     0C43  00A8               	movwf	?___lldiv+3
  6607     0C44  0830               	movf	___lldiv@quotient+2,w
  6608     0C45  00A7               	movwf	?___lldiv+2
  6609     0C46  082F               	movf	___lldiv@quotient+1,w
  6610     0C47  00A6               	movwf	?___lldiv+1
  6611     0C48  082E               	movf	___lldiv@quotient,w
  6612     0C49  00A5               	movwf	?___lldiv
  6613     0C4A                     l597:
  6614     0C4A  0008               	return
  6615     0C4B                     __end_of___lldiv:
  6616                           
  6617                           	psect	text25
  6618     0B24                     __ptext25:	
  6619 ;; *************** function _AutoFox_INA226_Constructor *****************
  6620 ;; Defined at:
  6621 ;;		line 97 in file "ina226.c"
  6622 ;; Parameters:    Size  Location     Type
  6623 ;;  this            2    2[COMMON] PTR struct AutoFox_INA22
  6624 ;;		 -> main@ina226(14), 
  6625 ;; Auto vars:     Size  Location     Type
  6626 ;;		None
  6627 ;; Return value:  Size  Location     Type
  6628 ;;                  1    wreg      void 
  6629 ;; Registers used:
  6630 ;;		wreg, fsr0l, fsr0h, status,2, status,0
  6631 ;; Tracked objects:
  6632 ;;		On entry : 0/0
  6633 ;;		On exit  : 0/0
  6634 ;;		Unchanged: 0/0
  6635 ;; Data sizes:     COMMON   BANK0   BANK1   BANK3   BANK2
  6636 ;;      Params:         2       0       0       0       0
  6637 ;;      Locals:         0       0       0       0       0
  6638 ;;      Temps:          2       0       0       0       0
  6639 ;;      Totals:         4       0       0       0       0
  6640 ;;Total ram usage:        4 bytes
  6641 ;; Hardware stack levels used: 1
  6642 ;; Hardware stack levels required when called: 1
  6643 ;; This function calls:
  6644 ;;		Nothing
  6645 ;; This function is called by:
  6646 ;;		_main
  6647 ;; This function uses a non-reentrant model
  6648 ;;
  6649                           
  6650     0B24                     _AutoFox_INA226_Constructor:	
  6651                           ;psect for function _AutoFox_INA226_Constructor
  6652                           
  6653     0B24                     l2577:	
  6654                           ;incstack = 0
  6655                           ; Regs used in _AutoFox_INA226_Constructor: [wreg-fsr0h+status,2+status,0]
  6656                           
  6657                           
  6658                           ;ina226.c: 97: void AutoFox_INA226_Constructor(AutoFox_INA226* this);ina226.c: 98: {;ina
      +                          226.c: 99:  this->mInitialized = 0;
  6659     0B24  0872               	movf	AutoFox_INA226_Constructor@this,w
  6660     0B25  0084               	movwf	4
  6661     0B26  1783               	bsf	3,7
  6662     0B27  1C73               	btfss	AutoFox_INA226_Constructor@this+1,0
  6663     0B28  1383               	bcf	3,7
  6664     0B29  0180               	clrf	0
  6665     0B2A                     l2579:
  6666     0B2A  0872               	movf	AutoFox_INA226_Constructor@this,w
  6667     0B2B  3E01               	addlw	1
  6668     0B2C  00F4               	movwf	??_AutoFox_INA226_Constructor
  6669     0B2D  0873               	movf	AutoFox_INA226_Constructor@this+1,w
  6670     0B2E  1803               	skipnc
  6671     0B2F  3E01               	addlw	1
  6672     0B30  3E00               	addlw	0
  6673     0B31  00F5               	movwf	??_AutoFox_INA226_Constructor+1
  6674     0B32  0874               	movf	??_AutoFox_INA226_Constructor,w
  6675     0B33  0084               	movwf	4
  6676     0B34  1783               	bsf	3,7
  6677     0B35  1C75               	btfss	??_AutoFox_INA226_Constructor+1,0
  6678     0B36  1383               	bcf	3,7
  6679     0B37  3040               	movlw	64
  6680     0B38  0080               	movwf	0
  6681     0B39                     l2581:
  6682                           
  6683                           ;ina226.c: 101:  this->mConfigRegister = 0;
  6684     0B39  0872               	movf	AutoFox_INA226_Constructor@this,w
  6685     0B3A  3E02               	addlw	2
  6686     0B3B  00F4               	movwf	??_AutoFox_INA226_Constructor
  6687     0B3C  0873               	movf	AutoFox_INA226_Constructor@this+1,w
  6688     0B3D  1803               	skipnc
  6689     0B3E  3E01               	addlw	1
  6690     0B3F  3E00               	addlw	0
  6691     0B40  00F5               	movwf	??_AutoFox_INA226_Constructor+1
  6692     0B41  0874               	movf	??_AutoFox_INA226_Constructor,w
  6693     0B42  0084               	movwf	4
  6694     0B43  1783               	bsf	3,7
  6695     0B44  1C75               	btfss	??_AutoFox_INA226_Constructor+1,0
  6696     0B45  1383               	bcf	3,7
  6697     0B46  0180               	clrf	0
  6698     0B47  0A84               	incf	4,f
  6699     0B48  0180               	clrf	0
  6700     0B49                     l2583:
  6701                           
  6702                           ;ina226.c: 102:  this->mCalibrationValue = 0;
  6703     0B49  0872               	movf	AutoFox_INA226_Constructor@this,w
  6704     0B4A  3E04               	addlw	4
  6705     0B4B  00F4               	movwf	??_AutoFox_INA226_Constructor
  6706     0B4C  0873               	movf	AutoFox_INA226_Constructor@this+1,w
  6707     0B4D  1803               	skipnc
  6708     0B4E  3E01               	addlw	1
  6709     0B4F  3E00               	addlw	0
  6710     0B50  00F5               	movwf	??_AutoFox_INA226_Constructor+1
  6711     0B51  0874               	movf	??_AutoFox_INA226_Constructor,w
  6712     0B52  0084               	movwf	4
  6713     0B53  1783               	bsf	3,7
  6714     0B54  1C75               	btfss	??_AutoFox_INA226_Constructor+1,0
  6715     0B55  1383               	bcf	3,7
  6716     0B56  0180               	clrf	0
  6717     0B57  0A84               	incf	4,f
  6718     0B58  0180               	clrf	0
  6719     0B59                     l2585:
  6720                           
  6721                           ;ina226.c: 103:  this->mCurrentMicroAmpsPerBit = 0;
  6722     0B59  0872               	movf	AutoFox_INA226_Constructor@this,w
  6723     0B5A  3E06               	addlw	6
  6724     0B5B  00F4               	movwf	??_AutoFox_INA226_Constructor
  6725     0B5C  0873               	movf	AutoFox_INA226_Constructor@this+1,w
  6726     0B5D  1803               	skipnc
  6727     0B5E  3E01               	addlw	1
  6728     0B5F  3E00               	addlw	0
  6729     0B60  00F5               	movwf	??_AutoFox_INA226_Constructor+1
  6730     0B61  0874               	movf	??_AutoFox_INA226_Constructor,w
  6731     0B62  0084               	movwf	4
  6732     0B63  1783               	bsf	3,7
  6733     0B64  1C75               	btfss	??_AutoFox_INA226_Constructor+1,0
  6734     0B65  1383               	bcf	3,7
  6735     0B66  0180               	clrf	0
  6736     0B67  0A84               	incf	4,f
  6737     0B68  0180               	clrf	0
  6738     0B69  0A84               	incf	4,f
  6739     0B6A  0180               	clrf	0
  6740     0B6B  0A84               	incf	4,f
  6741     0B6C  0180               	clrf	0
  6742     0B6D                     l2587:
  6743                           
  6744                           ;ina226.c: 104:  this->mPowerMicroWattPerBit = 0;
  6745     0B6D  0872               	movf	AutoFox_INA226_Constructor@this,w
  6746     0B6E  3E0A               	addlw	10
  6747     0B6F  00F4               	movwf	??_AutoFox_INA226_Constructor
  6748     0B70  0873               	movf	AutoFox_INA226_Constructor@this+1,w
  6749     0B71  1803               	skipnc
  6750     0B72  3E01               	addlw	1
  6751     0B73  3E00               	addlw	0
  6752     0B74  00F5               	movwf	??_AutoFox_INA226_Constructor+1
  6753     0B75  0874               	movf	??_AutoFox_INA226_Constructor,w
  6754     0B76  0084               	movwf	4
  6755     0B77  1783               	bsf	3,7
  6756     0B78  1C75               	btfss	??_AutoFox_INA226_Constructor+1,0
  6757     0B79  1383               	bcf	3,7
  6758     0B7A  0180               	clrf	0
  6759     0B7B  0A84               	incf	4,f
  6760     0B7C  0180               	clrf	0
  6761     0B7D  0A84               	incf	4,f
  6762     0B7E  0180               	clrf	0
  6763     0B7F  0A84               	incf	4,f
  6764     0B80  0180               	clrf	0
  6765     0B81                     l296:
  6766     0B81  0008               	return
  6767     0B82                     __end_of_AutoFox_INA226_Constructor:
  6768                           
  6769                           	psect	text26
  6770     075A                     __ptext26:	
  6771 ;; *************** function _AutoFox_INA226_ConfigureVoltageConversionTime *****************
  6772 ;; Defined at:
  6773 ;;		line 399 in file "ina226.c"
  6774 ;; Parameters:    Size  Location     Type
  6775 ;;  this            2    9[BANK0 ] PTR struct AutoFox_INA22
  6776 ;;		 -> main@ina226(14), 
  6777 ;;  aIndexToConv    2   11[BANK0 ] int 
  6778 ;; Auto vars:     Size  Location     Type
  6779 ;;  s               1   19[BANK0 ] enum E1803
  6780 ;;  theMergedBus    2   17[BANK0 ] unsigned short 
  6781 ;; Return value:  Size  Location     Type
  6782 ;;                  1    wreg      enum E1727
  6783 ;; Registers used:
  6784 ;;		wreg, fsr0l, fsr0h, status,2, status,0, btemp+1, pclath, cstack
  6785 ;; Tracked objects:
  6786 ;;		On entry : 0/0
  6787 ;;		On exit  : 0/0
  6788 ;;		Unchanged: 0/0
  6789 ;; Data sizes:     COMMON   BANK0   BANK1   BANK3   BANK2
  6790 ;;      Params:         0       4       0       0       0
  6791 ;;      Locals:         0       3       0       0       0
  6792 ;;      Temps:          0       4       0       0       0
  6793 ;;      Totals:         0      11       0       0       0
  6794 ;;Total ram usage:       11 bytes
  6795 ;; Hardware stack levels used: 1
  6796 ;; Hardware stack levels required when called: 4
  6797 ;; This function calls:
  6798 ;;		_AutoFox_INA226_ReadRegister
  6799 ;;		_AutoFox_INA226_WriteRegister
  6800 ;; This function is called by:
  6801 ;;		_main
  6802 ;; This function uses a non-reentrant model
  6803 ;;
  6804                           
  6805     075A                     _AutoFox_INA226_ConfigureVoltageConversionTime:	
  6806                           ;psect for function _AutoFox_INA226_ConfigureVoltageConversionTime
  6807                           
  6808     075A                     l3521:	
  6809                           ;incstack = 0
  6810                           ; Regs used in _AutoFox_INA226_ConfigureVoltageConversionTime: [wreg-fsr0h+status,2+stat
      +                          us,0+btemp+1+pclath+cstack]
  6811                           
  6812                           
  6813                           ;ina226.c: 399: status AutoFox_INA226_ConfigureVoltageConversionTime(AutoFox_INA226* thi
      +                          s, int aIndexToConversionTimeTable);ina226.c: 400: {;ina226.c: 401:  ; if(!this->mInitia
      +                          lized) return NOT_INITIALIZED;;
  6814     075A  1283               	bcf	3,5	;RP0=0, select bank0
  6815     075B  1303               	bcf	3,6	;RP1=0, select bank0
  6816     075C  0829               	movf	AutoFox_INA226_ConfigureVoltageConversionTime@this,w
  6817     075D  0084               	movwf	4
  6818     075E  1783               	bsf	3,7
  6819     075F  1C2A               	btfss	AutoFox_INA226_ConfigureVoltageConversionTime@this+1,0
  6820     0760  1383               	bcf	3,7
  6821     0761  0800               	movf	0,w
  6822     0762  1D03               	btfss	3,2
  6823     0763  2F65               	goto	u2991
  6824     0764  2F66               	goto	u2990
  6825     0765                     u2991:
  6826     0765  2F68               	goto	l401
  6827     0766                     u2990:
  6828     0766                     l3523:
  6829     0766  30F9               	movlw	249
  6830     0767  2FF7               	goto	l402
  6831     0768                     l401:
  6832                           
  6833                           ;ina226.c: 403:  if(aIndexToConversionTimeTable < 0 || aIndexToConversionTimeTable > cMa
      +                          xConvTimeTblIdx ){
  6834     0768  1BAC               	btfsc	AutoFox_INA226_ConfigureVoltageConversionTime@aIndexToConversionTimeTable+1,7
  6835     0769  2F6B               	goto	u3001
  6836     076A  2F6C               	goto	u3000
  6837     076B                     u3001:
  6838     076B  2F79               	goto	l3529
  6839     076C                     u3000:
  6840     076C                     l3527:
  6841     076C  082C               	movf	AutoFox_INA226_ConfigureVoltageConversionTime@aIndexToConversionTimeTable+1,w
  6842     076D  3A80               	xorlw	128
  6843     076E  00FF               	movwf	btemp+1
  6844     076F  3080               	movlw	128
  6845     0770  027F               	subwf	btemp+1,w
  6846     0771  1D03               	skipz
  6847     0772  2F75               	goto	u3015
  6848     0773  3008               	movlw	8
  6849     0774  022B               	subwf	AutoFox_INA226_ConfigureVoltageConversionTime@aIndexToConversionTimeTable,w
  6850     0775                     u3015:
  6851     0775  1C03               	skipc
  6852     0776  2F78               	goto	u3011
  6853     0777  2F79               	goto	u3010
  6854     0778                     u3011:
  6855     0778  2F7B               	goto	l3533
  6856     0779                     u3010:
  6857     0779                     l3529:
  6858                           
  6859                           ;ina226.c: 404:   return BAD_PARAMETER;
  6860     0779  30FA               	movlw	250
  6861     077A  2FF7               	goto	l402
  6862     077B                     l3533:
  6863     077B  1283               	bcf	3,5	;RP0=0, select bank0
  6864     077C  1303               	bcf	3,6	;RP1=0, select bank0
  6865     077D  0829               	movf	AutoFox_INA226_ConfigureVoltageConversionTime@this,w
  6866     077E  00A0               	movwf	AutoFox_INA226_ReadRegister@this
  6867     077F  082A               	movf	AutoFox_INA226_ConfigureVoltageConversionTime@this+1,w
  6868     0780  00A1               	movwf	AutoFox_INA226_ReadRegister@this+1
  6869     0781  01A2               	clrf	AutoFox_INA226_ReadRegister@aRegister
  6870     0782  0829               	movf	AutoFox_INA226_ConfigureVoltageConversionTime@this,w
  6871     0783  3E02               	addlw	2
  6872     0784  00A3               	movwf	AutoFox_INA226_ReadRegister@aValue_p
  6873     0785  082A               	movf	AutoFox_INA226_ConfigureVoltageConversionTime@this+1,w
  6874     0786  1803               	skipnc
  6875     0787  3E01               	addlw	1
  6876     0788  3E00               	addlw	0
  6877     0789  00A4               	movwf	AutoFox_INA226_ReadRegister@aValue_p+1
  6878     078A  120A  118A  2027  120A  118A  	fcall	_AutoFox_INA226_ReadRegister
  6879     078F  1283               	bcf	3,5	;RP0=0, select bank0
  6880     0790  1303               	bcf	3,6	;RP1=0, select bank0
  6881     0791  00B3               	movwf	AutoFox_INA226_ConfigureVoltageConversionTime@s
  6882     0792                     l3535:
  6883     0792  0833               	movf	AutoFox_INA226_ConfigureVoltageConversionTime@s,w
  6884     0793  1903               	btfsc	3,2
  6885     0794  2F96               	goto	u3021
  6886     0795  2F97               	goto	u3020
  6887     0796                     u3021:
  6888     0796  2F99               	goto	l3541
  6889     0797                     u3020:
  6890     0797                     l3537:
  6891     0797  0833               	movf	AutoFox_INA226_ConfigureVoltageConversionTime@s,w
  6892     0798  2FF7               	goto	l402
  6893     0799                     l3541:
  6894                           
  6895                           ;ina226.c: 410:  this->mConfigRegister &= ~(cBusVoltageConvTimeMask | cShuntVoltageConvT
      +                          imeMask);
  6896     0799  0829               	movf	AutoFox_INA226_ConfigureVoltageConversionTime@this,w
  6897     079A  3E02               	addlw	2
  6898     079B  00AD               	movwf	??_AutoFox_INA226_ConfigureVoltageConversionTime
  6899     079C  082A               	movf	AutoFox_INA226_ConfigureVoltageConversionTime@this+1,w
  6900     079D  1803               	skipnc
  6901     079E  3E01               	addlw	1
  6902     079F  3E00               	addlw	0
  6903     07A0  00AE               	movwf	??_AutoFox_INA226_ConfigureVoltageConversionTime+1
  6904     07A1  082D               	movf	??_AutoFox_INA226_ConfigureVoltageConversionTime,w
  6905     07A2  0084               	movwf	4
  6906     07A3  1783               	bsf	3,7
  6907     07A4  1C2E               	btfss	??_AutoFox_INA226_ConfigureVoltageConversionTime+1,0
  6908     07A5  1383               	bcf	3,7
  6909     07A6  3007               	movlw	7
  6910     07A7  0580               	andwf	0,f
  6911     07A8  0A84               	incf	4,f
  6912     07A9  30FE               	movlw	254
  6913     07AA  0580               	andwf	0,f
  6914     07AB                     l3543:
  6915                           
  6916                           ;ina226.c: 412:  uint16_t theMergedBusAndShuntConvTimeIndicies =
  6917     07AB  082C               	movf	AutoFox_INA226_ConfigureVoltageConversionTime@aIndexToConversionTimeTable+1,w
  6918     07AC  00AE               	movwf	??_AutoFox_INA226_ConfigureVoltageConversionTime+1
  6919     07AD  082B               	movf	AutoFox_INA226_ConfigureVoltageConversionTime@aIndexToConversionTimeTable,w
  6920     07AE  00AD               	movwf	??_AutoFox_INA226_ConfigureVoltageConversionTime
  6921     07AF  1003               	clrc
  6922     07B0  0DAD               	rlf	??_AutoFox_INA226_ConfigureVoltageConversionTime,f
  6923     07B1  0DAE               	rlf	??_AutoFox_INA226_ConfigureVoltageConversionTime+1,f
  6924     07B2  1003               	clrc
  6925     07B3  0DAD               	rlf	??_AutoFox_INA226_ConfigureVoltageConversionTime,f
  6926     07B4  0DAE               	rlf	??_AutoFox_INA226_ConfigureVoltageConversionTime+1,f
  6927     07B5  1003               	clrc
  6928     07B6  0DAD               	rlf	??_AutoFox_INA226_ConfigureVoltageConversionTime,f
  6929     07B7  0DAE               	rlf	??_AutoFox_INA226_ConfigureVoltageConversionTime+1,f
  6930     07B8  082C               	movf	AutoFox_INA226_ConfigureVoltageConversionTime@aIndexToConversionTimeTable+1,w
  6931     07B9  00B0               	movwf	??_AutoFox_INA226_ConfigureVoltageConversionTime+3
  6932     07BA  082B               	movf	AutoFox_INA226_ConfigureVoltageConversionTime@aIndexToConversionTimeTable,w
  6933     07BB  00AF               	movwf	??_AutoFox_INA226_ConfigureVoltageConversionTime+2
  6934     07BC  3006               	movlw	6
  6935     07BD  00FF               	movwf	btemp+1
  6936     07BE                     u3035:
  6937     07BE  1003               	clrc
  6938     07BF  0DAF               	rlf	??_AutoFox_INA226_ConfigureVoltageConversionTime+2,f
  6939     07C0  0DB0               	rlf	??_AutoFox_INA226_ConfigureVoltageConversionTime+3,f
  6940     07C1  0BFF               	decfsz	btemp+1,f
  6941     07C2  2FBE               	goto	u3035
  6942     07C3  082D               	movf	??_AutoFox_INA226_ConfigureVoltageConversionTime,w
  6943     07C4  042F               	iorwf	??_AutoFox_INA226_ConfigureVoltageConversionTime+2,w
  6944     07C5  00B1               	movwf	AutoFox_INA226_ConfigureVoltageConversionTime@theMergedBusAndShuntConvTimeIndicie
      +                          s
  6945     07C6  082E               	movf	??_AutoFox_INA226_ConfigureVoltageConversionTime+1,w
  6946     07C7  0430               	iorwf	??_AutoFox_INA226_ConfigureVoltageConversionTime+3,w
  6947     07C8  00B2               	movwf	AutoFox_INA226_ConfigureVoltageConversionTime@theMergedBusAndShuntConvTimeIndicie
      +                          s+1
  6948     07C9                     l3545:
  6949                           
  6950                           ;ina226.c: 416:  this->mConfigRegister |= theMergedBusAndShuntConvTimeIndicies;
  6951     07C9  0829               	movf	AutoFox_INA226_ConfigureVoltageConversionTime@this,w
  6952     07CA  3E02               	addlw	2
  6953     07CB  00AD               	movwf	??_AutoFox_INA226_ConfigureVoltageConversionTime
  6954     07CC  082A               	movf	AutoFox_INA226_ConfigureVoltageConversionTime@this+1,w
  6955     07CD  1803               	skipnc
  6956     07CE  3E01               	addlw	1
  6957     07CF  3E00               	addlw	0
  6958     07D0  00AE               	movwf	??_AutoFox_INA226_ConfigureVoltageConversionTime+1
  6959     07D1  082D               	movf	??_AutoFox_INA226_ConfigureVoltageConversionTime,w
  6960     07D2  0084               	movwf	4
  6961     07D3  1783               	bsf	3,7
  6962     07D4  1C2E               	btfss	??_AutoFox_INA226_ConfigureVoltageConversionTime+1,0
  6963     07D5  1383               	bcf	3,7
  6964     07D6  0831               	movf	AutoFox_INA226_ConfigureVoltageConversionTime@theMergedBusAndShuntConvTimeIndicies
      +                          ,w
  6965     07D7  0480               	iorwf	0,f
  6966     07D8  0A84               	incf	4,f
  6967     07D9  0832               	movf	AutoFox_INA226_ConfigureVoltageConversionTime@theMergedBusAndShuntConvTimeIndicies
      +                          +1,w
  6968     07DA  0480               	iorwf	0,f
  6969     07DB                     l3547:
  6970                           
  6971                           ;ina226.c: 418:  return AutoFox_INA226_WriteRegister(this,INA226_CONFIG, this->mConfigRe
      +                          gister);
  6972     07DB  0829               	movf	AutoFox_INA226_ConfigureVoltageConversionTime@this,w
  6973     07DC  00F4               	movwf	AutoFox_INA226_WriteRegister@this
  6974     07DD  082A               	movf	AutoFox_INA226_ConfigureVoltageConversionTime@this+1,w
  6975     07DE  00F5               	movwf	AutoFox_INA226_WriteRegister@this+1
  6976     07DF  01F6               	clrf	AutoFox_INA226_WriteRegister@aRegister
  6977     07E0  0829               	movf	AutoFox_INA226_ConfigureVoltageConversionTime@this,w
  6978     07E1  3E02               	addlw	2
  6979     07E2  00AD               	movwf	??_AutoFox_INA226_ConfigureVoltageConversionTime
  6980     07E3  082A               	movf	AutoFox_INA226_ConfigureVoltageConversionTime@this+1,w
  6981     07E4  1803               	skipnc
  6982     07E5  3E01               	addlw	1
  6983     07E6  3E00               	addlw	0
  6984     07E7  00AE               	movwf	??_AutoFox_INA226_ConfigureVoltageConversionTime+1
  6985     07E8  082D               	movf	??_AutoFox_INA226_ConfigureVoltageConversionTime,w
  6986     07E9  0084               	movwf	4
  6987     07EA  1783               	bsf	3,7
  6988     07EB  1C2E               	btfss	??_AutoFox_INA226_ConfigureVoltageConversionTime+1,0
  6989     07EC  1383               	bcf	3,7
  6990     07ED  0800               	movf	0,w
  6991     07EE  00F7               	movwf	AutoFox_INA226_WriteRegister@aValue
  6992     07EF  0A84               	incf	4,f
  6993     07F0  0800               	movf	0,w
  6994     07F1  00F8               	movwf	AutoFox_INA226_WriteRegister@aValue+1
  6995     07F2  120A  158A  22CA  120A  118A  	fcall	_AutoFox_INA226_WriteRegister
  6996     07F7                     l402:
  6997     07F7  0008               	return
  6998     07F8                     __end_of_AutoFox_INA226_ConfigureVoltageConversionTime:
  6999                           
  7000                           	psect	text27
  7001     0CD0                     __ptext27:	
  7002 ;; *************** function _AutoFox_INA226_ConfigureNumSampleAveraging *****************
  7003 ;; Defined at:
  7004 ;;		line 421 in file "ina226.c"
  7005 ;; Parameters:    Size  Location     Type
  7006 ;;  this            2    9[BANK0 ] PTR struct AutoFox_INA22
  7007 ;;		 -> main@ina226(14), 
  7008 ;;  aIndexToSamp    2   11[BANK0 ] int 
  7009 ;; Auto vars:     Size  Location     Type
  7010 ;;  s               1    9[COMMON] enum E1803
  7011 ;; Return value:  Size  Location     Type
  7012 ;;                  1    wreg      enum E1727
  7013 ;; Registers used:
  7014 ;;		wreg, fsr0l, fsr0h, status,2, status,0, btemp+1, pclath, cstack
  7015 ;; Tracked objects:
  7016 ;;		On entry : 0/0
  7017 ;;		On exit  : 0/0
  7018 ;;		Unchanged: 0/0
  7019 ;; Data sizes:     COMMON   BANK0   BANK1   BANK3   BANK2
  7020 ;;      Params:         0       4       0       0       0
  7021 ;;      Locals:         1       0       0       0       0
  7022 ;;      Temps:          0       4       0       0       0
  7023 ;;      Totals:         1       8       0       0       0
  7024 ;;Total ram usage:        9 bytes
  7025 ;; Hardware stack levels used: 1
  7026 ;; Hardware stack levels required when called: 4
  7027 ;; This function calls:
  7028 ;;		_AutoFox_INA226_ReadRegister
  7029 ;;		_AutoFox_INA226_WriteRegister
  7030 ;; This function is called by:
  7031 ;;		_main
  7032 ;; This function uses a non-reentrant model
  7033 ;;
  7034                           
  7035     0CD0                     _AutoFox_INA226_ConfigureNumSampleAveraging:	
  7036                           ;psect for function _AutoFox_INA226_ConfigureNumSampleAveraging
  7037                           
  7038     0CD0                     l3551:	
  7039                           ;incstack = 0
  7040                           ; Regs used in _AutoFox_INA226_ConfigureNumSampleAveraging: [wreg-fsr0h+status,2+status,
      +                          0+btemp+1+pclath+cstack]
  7041                           
  7042                           
  7043                           ;ina226.c: 421: status AutoFox_INA226_ConfigureNumSampleAveraging(AutoFox_INA226* this, 
      +                          int aIndexToSampleAverageTable);ina226.c: 422: {;ina226.c: 423:  ; if(!this->mInitialize
      +                          d) return NOT_INITIALIZED;;
  7044     0CD0  1283               	bcf	3,5	;RP0=0, select bank0
  7045     0CD1  1303               	bcf	3,6	;RP1=0, select bank0
  7046     0CD2  0829               	movf	AutoFox_INA226_ConfigureNumSampleAveraging@this,w
  7047     0CD3  0084               	movwf	4
  7048     0CD4  1783               	bsf	3,7
  7049     0CD5  1C2A               	btfss	AutoFox_INA226_ConfigureNumSampleAveraging@this+1,0
  7050     0CD6  1383               	bcf	3,7
  7051     0CD7  0800               	movf	0,w
  7052     0CD8  1D03               	btfss	3,2
  7053     0CD9  2CDB               	goto	u3041
  7054     0CDA  2CDC               	goto	u3040
  7055     0CDB                     u3041:
  7056     0CDB  2CDE               	goto	l411
  7057     0CDC                     u3040:
  7058     0CDC                     l3553:
  7059     0CDC  30F9               	movlw	249
  7060     0CDD  2D5A               	goto	l412
  7061     0CDE                     l411:
  7062                           
  7063                           ;ina226.c: 425:  if(aIndexToSampleAverageTable < 0 || aIndexToSampleAverageTable > cMaxS
      +                          ampleAvgTblIdx ){
  7064     0CDE  1BAC               	btfsc	AutoFox_INA226_ConfigureNumSampleAveraging@aIndexToSampleAverageTable+1,7
  7065     0CDF  2CE1               	goto	u3051
  7066     0CE0  2CE2               	goto	u3050
  7067     0CE1                     u3051:
  7068     0CE1  2CEF               	goto	l3559
  7069     0CE2                     u3050:
  7070     0CE2                     l3557:
  7071     0CE2  082C               	movf	AutoFox_INA226_ConfigureNumSampleAveraging@aIndexToSampleAverageTable+1,w
  7072     0CE3  3A80               	xorlw	128
  7073     0CE4  00FF               	movwf	btemp+1
  7074     0CE5  3080               	movlw	128
  7075     0CE6  027F               	subwf	btemp+1,w
  7076     0CE7  1D03               	skipz
  7077     0CE8  2CEB               	goto	u3065
  7078     0CE9  3008               	movlw	8
  7079     0CEA  022B               	subwf	AutoFox_INA226_ConfigureNumSampleAveraging@aIndexToSampleAverageTable,w
  7080     0CEB                     u3065:
  7081     0CEB  1C03               	skipc
  7082     0CEC  2CEE               	goto	u3061
  7083     0CED  2CEF               	goto	u3060
  7084     0CEE                     u3061:
  7085     0CEE  2CF1               	goto	l3563
  7086     0CEF                     u3060:
  7087     0CEF                     l3559:
  7088                           
  7089                           ;ina226.c: 426:   return BAD_PARAMETER;
  7090     0CEF  30FA               	movlw	250
  7091     0CF0  2D5A               	goto	l412
  7092     0CF1                     l3563:
  7093     0CF1  1283               	bcf	3,5	;RP0=0, select bank0
  7094     0CF2  1303               	bcf	3,6	;RP1=0, select bank0
  7095     0CF3  0829               	movf	AutoFox_INA226_ConfigureNumSampleAveraging@this,w
  7096     0CF4  00A0               	movwf	AutoFox_INA226_ReadRegister@this
  7097     0CF5  082A               	movf	AutoFox_INA226_ConfigureNumSampleAveraging@this+1,w
  7098     0CF6  00A1               	movwf	AutoFox_INA226_ReadRegister@this+1
  7099     0CF7  01A2               	clrf	AutoFox_INA226_ReadRegister@aRegister
  7100     0CF8  0829               	movf	AutoFox_INA226_ConfigureNumSampleAveraging@this,w
  7101     0CF9  3E02               	addlw	2
  7102     0CFA  00A3               	movwf	AutoFox_INA226_ReadRegister@aValue_p
  7103     0CFB  082A               	movf	AutoFox_INA226_ConfigureNumSampleAveraging@this+1,w
  7104     0CFC  1803               	skipnc
  7105     0CFD  3E01               	addlw	1
  7106     0CFE  3E00               	addlw	0
  7107     0CFF  00A4               	movwf	AutoFox_INA226_ReadRegister@aValue_p+1
  7108     0D00  120A  118A  2027  120A  158A  	fcall	_AutoFox_INA226_ReadRegister
  7109     0D05  00F9               	movwf	AutoFox_INA226_ConfigureNumSampleAveraging@s
  7110     0D06                     l3565:
  7111     0D06  0879               	movf	AutoFox_INA226_ConfigureNumSampleAveraging@s,w
  7112     0D07  1903               	btfsc	3,2
  7113     0D08  2D0A               	goto	u3071
  7114     0D09  2D0B               	goto	u3070
  7115     0D0A                     u3071:
  7116     0D0A  2D0D               	goto	l3571
  7117     0D0B                     u3070:
  7118     0D0B                     l3567:
  7119     0D0B  0879               	movf	AutoFox_INA226_ConfigureNumSampleAveraging@s,w
  7120     0D0C  2D5A               	goto	l412
  7121     0D0D                     l3571:
  7122                           
  7123                           ;ina226.c: 432:  this->mConfigRegister &= ~cSampleAvgMask;
  7124     0D0D  1283               	bcf	3,5	;RP0=0, select bank0
  7125     0D0E  1303               	bcf	3,6	;RP1=0, select bank0
  7126     0D0F  0829               	movf	AutoFox_INA226_ConfigureNumSampleAveraging@this,w
  7127     0D10  3E02               	addlw	2
  7128     0D11  00AD               	movwf	??_AutoFox_INA226_ConfigureNumSampleAveraging
  7129     0D12  082A               	movf	AutoFox_INA226_ConfigureNumSampleAveraging@this+1,w
  7130     0D13  1803               	skipnc
  7131     0D14  3E01               	addlw	1
  7132     0D15  3E00               	addlw	0
  7133     0D16  00AE               	movwf	??_AutoFox_INA226_ConfigureNumSampleAveraging+1
  7134     0D17  082D               	movf	??_AutoFox_INA226_ConfigureNumSampleAveraging,w
  7135     0D18  0084               	movwf	4
  7136     0D19  1783               	bsf	3,7
  7137     0D1A  1C2E               	btfss	??_AutoFox_INA226_ConfigureNumSampleAveraging+1,0
  7138     0D1B  1383               	bcf	3,7
  7139     0D1C  30FF               	movlw	255
  7140     0D1D  0580               	andwf	0,f
  7141     0D1E  0A84               	incf	4,f
  7142     0D1F  30F1               	movlw	241
  7143     0D20  0580               	andwf	0,f
  7144     0D21                     l3573:
  7145                           
  7146                           ;ina226.c: 434:  this->mConfigRegister |= (aIndexToSampleAverageTable<<cSampleAvgIdxShif
      +                          t);
  7147     0D21  082C               	movf	AutoFox_INA226_ConfigureNumSampleAveraging@aIndexToSampleAverageTable+1,w
  7148     0D22  00AE               	movwf	??_AutoFox_INA226_ConfigureNumSampleAveraging+1
  7149     0D23  082B               	movf	AutoFox_INA226_ConfigureNumSampleAveraging@aIndexToSampleAverageTable,w
  7150     0D24  00AD               	movwf	??_AutoFox_INA226_ConfigureNumSampleAveraging
  7151     0D25  3009               	movlw	9
  7152     0D26  00FF               	movwf	btemp+1
  7153     0D27                     u3085:
  7154     0D27  1003               	clrc
  7155     0D28  0DAD               	rlf	??_AutoFox_INA226_ConfigureNumSampleAveraging,f
  7156     0D29  0DAE               	rlf	??_AutoFox_INA226_ConfigureNumSampleAveraging+1,f
  7157     0D2A  0BFF               	decfsz	btemp+1,f
  7158     0D2B  2D27               	goto	u3085
  7159     0D2C  0829               	movf	AutoFox_INA226_ConfigureNumSampleAveraging@this,w
  7160     0D2D  3E02               	addlw	2
  7161     0D2E  00AF               	movwf	??_AutoFox_INA226_ConfigureNumSampleAveraging+2
  7162     0D2F  082A               	movf	AutoFox_INA226_ConfigureNumSampleAveraging@this+1,w
  7163     0D30  1803               	skipnc
  7164     0D31  3E01               	addlw	1
  7165     0D32  3E00               	addlw	0
  7166     0D33  00B0               	movwf	??_AutoFox_INA226_ConfigureNumSampleAveraging+3
  7167     0D34  082F               	movf	??_AutoFox_INA226_ConfigureNumSampleAveraging+2,w
  7168     0D35  0084               	movwf	4
  7169     0D36  1783               	bsf	3,7
  7170     0D37  1C30               	btfss	??_AutoFox_INA226_ConfigureNumSampleAveraging+3,0
  7171     0D38  1383               	bcf	3,7
  7172     0D39  082D               	movf	??_AutoFox_INA226_ConfigureNumSampleAveraging,w
  7173     0D3A  0480               	iorwf	0,f
  7174     0D3B  0A84               	incf	4,f
  7175     0D3C  082E               	movf	??_AutoFox_INA226_ConfigureNumSampleAveraging+1,w
  7176     0D3D  0480               	iorwf	0,f
  7177     0D3E                     l3575:
  7178                           
  7179                           ;ina226.c: 436:  return AutoFox_INA226_WriteRegister(this,INA226_CONFIG, this->mConfigRe
      +                          gister);
  7180     0D3E  0829               	movf	AutoFox_INA226_ConfigureNumSampleAveraging@this,w
  7181     0D3F  00F4               	movwf	AutoFox_INA226_WriteRegister@this
  7182     0D40  082A               	movf	AutoFox_INA226_ConfigureNumSampleAveraging@this+1,w
  7183     0D41  00F5               	movwf	AutoFox_INA226_WriteRegister@this+1
  7184     0D42  01F6               	clrf	AutoFox_INA226_WriteRegister@aRegister
  7185     0D43  0829               	movf	AutoFox_INA226_ConfigureNumSampleAveraging@this,w
  7186     0D44  3E02               	addlw	2
  7187     0D45  00AD               	movwf	??_AutoFox_INA226_ConfigureNumSampleAveraging
  7188     0D46  082A               	movf	AutoFox_INA226_ConfigureNumSampleAveraging@this+1,w
  7189     0D47  1803               	skipnc
  7190     0D48  3E01               	addlw	1
  7191     0D49  3E00               	addlw	0
  7192     0D4A  00AE               	movwf	??_AutoFox_INA226_ConfigureNumSampleAveraging+1
  7193     0D4B  082D               	movf	??_AutoFox_INA226_ConfigureNumSampleAveraging,w
  7194     0D4C  0084               	movwf	4
  7195     0D4D  1783               	bsf	3,7
  7196     0D4E  1C2E               	btfss	??_AutoFox_INA226_ConfigureNumSampleAveraging+1,0
  7197     0D4F  1383               	bcf	3,7
  7198     0D50  0800               	movf	0,w
  7199     0D51  00F7               	movwf	AutoFox_INA226_WriteRegister@aValue
  7200     0D52  0A84               	incf	4,f
  7201     0D53  0800               	movf	0,w
  7202     0D54  00F8               	movwf	AutoFox_INA226_WriteRegister@aValue+1
  7203     0D55  120A  158A  22CA  120A  158A  	fcall	_AutoFox_INA226_WriteRegister
  7204     0D5A                     l412:
  7205     0D5A  0008               	return
  7206     0D5B                     __end_of_AutoFox_INA226_ConfigureNumSampleAveraging:
  7207                           
  7208                           	psect	text28
  7209     0ACA                     __ptext28:	
  7210 ;; *************** function _AutoFox_INA226_WriteRegister *****************
  7211 ;; Defined at:
  7212 ;;		line 213 in file "ina226.c"
  7213 ;; Parameters:    Size  Location     Type
  7214 ;;  this            2    4[COMMON] PTR struct AutoFox_INA22
  7215 ;;		 -> main@ina226(14), 
  7216 ;;  aRegister       1    6[COMMON] unsigned char 
  7217 ;;  aValue          2    7[COMMON] unsigned short 
  7218 ;; Auto vars:     Size  Location     Type
  7219 ;;  buffer          3    4[BANK0 ] unsigned char [3]
  7220 ;; Return value:  Size  Location     Type
  7221 ;;                  1    wreg      enum E1803
  7222 ;; Registers used:
  7223 ;;		wreg, fsr0l, fsr0h, status,2, status,0, pclath, cstack
  7224 ;; Tracked objects:
  7225 ;;		On entry : 0/0
  7226 ;;		On exit  : 0/0
  7227 ;;		Unchanged: 0/0
  7228 ;; Data sizes:     COMMON   BANK0   BANK1   BANK3   BANK2
  7229 ;;      Params:         5       0       0       0       0
  7230 ;;      Locals:         0       3       0       0       0
  7231 ;;      Temps:          0       4       0       0       0
  7232 ;;      Totals:         5       7       0       0       0
  7233 ;;Total ram usage:       12 bytes
  7234 ;; Hardware stack levels used: 1
  7235 ;; Hardware stack levels required when called: 3
  7236 ;; This function calls:
  7237 ;;		_I2C_Master_Start
  7238 ;;		_I2C_Master_Stop
  7239 ;;		_I2C_Master_Write
  7240 ;; This function is called by:
  7241 ;;		_AutoFox_INA226_Init
  7242 ;;		_AutoFox_INA226_setupCalibration
  7243 ;;		_AutoFox_INA226_ConfigureVoltageConversionTime
  7244 ;;		_AutoFox_INA226_ConfigureNumSampleAveraging
  7245 ;;		_AutoFox_INA226_Hibernate
  7246 ;;		_AutoFox_INA226_Wakeup
  7247 ;;		_AutoFox_INA226_SetOperatingMode
  7248 ;;		_AutoFox_INA226_ConfigureAlertPinTrigger
  7249 ;; This function uses a non-reentrant model
  7250 ;;
  7251                           
  7252     0ACA                     _AutoFox_INA226_WriteRegister:	
  7253                           ;psect for function _AutoFox_INA226_WriteRegister
  7254                           
  7255     0ACA                     l3271:	
  7256                           ;incstack = 0
  7257                           ; Regs used in _AutoFox_INA226_WriteRegister: [wreg-fsr0h+status,2+status,0+pclath+cstac
      +                          k]
  7258                           
  7259                           
  7260                           ;ina226.c: 213: status AutoFox_INA226_WriteRegister(AutoFox_INA226* this, uint8_t aRegis
      +                          ter, uint16_t aValue);ina226.c: 214: {;ina226.c: 215:     uint8_t buffer[3];;ina226.c: 2
      +                          16:     buffer[0] = aRegister;
  7261     0ACA  0876               	movf	AutoFox_INA226_WriteRegister@aRegister,w
  7262     0ACB  1283               	bcf	3,5	;RP0=0, select bank0
  7263     0ACC  1303               	bcf	3,6	;RP1=0, select bank0
  7264     0ACD  00A4               	movwf	AutoFox_INA226_WriteRegister@buffer
  7265     0ACE                     l3273:
  7266                           
  7267                           ;ina226.c: 217:     buffer[1] = (uint8_t)((aValue >> 8) & 0xFF);
  7268     0ACE  0878               	movf	AutoFox_INA226_WriteRegister@aValue+1,w
  7269     0ACF  00A5               	movwf	AutoFox_INA226_WriteRegister@buffer+1
  7270     0AD0                     l3275:
  7271                           
  7272                           ;ina226.c: 218:     buffer[2] = (uint8_t)(aValue & 0xFF);
  7273     0AD0  0877               	movf	AutoFox_INA226_WriteRegister@aValue,w
  7274     0AD1  00A6               	movwf	AutoFox_INA226_WriteRegister@buffer+2
  7275     0AD2                     l3277:
  7276                           
  7277                           ;ina226.c: 221:     I2C_Master_Start();
  7278     0AD2  160A  118A  2775  120A  158A  	fcall	_I2C_Master_Start
  7279     0AD7                     l3279:
  7280                           
  7281                           ;ina226.c: 222:     I2C_Master_Write(this->mI2C_Address << 1);
  7282     0AD7  0874               	movf	AutoFox_INA226_WriteRegister@this,w
  7283     0AD8  3E01               	addlw	1
  7284     0AD9  1283               	bcf	3,5	;RP0=0, select bank0
  7285     0ADA  1303               	bcf	3,6	;RP1=0, select bank0
  7286     0ADB  00A0               	movwf	??_AutoFox_INA226_WriteRegister
  7287     0ADC  0875               	movf	AutoFox_INA226_WriteRegister@this+1,w
  7288     0ADD  1803               	skipnc
  7289     0ADE  3E01               	addlw	1
  7290     0ADF  3E00               	addlw	0
  7291     0AE0  00A1               	movwf	??_AutoFox_INA226_WriteRegister+1
  7292     0AE1  0820               	movf	??_AutoFox_INA226_WriteRegister,w
  7293     0AE2  0084               	movwf	4
  7294     0AE3  1783               	bsf	3,7
  7295     0AE4  1C21               	btfss	??_AutoFox_INA226_WriteRegister+1,0
  7296     0AE5  1383               	bcf	3,7
  7297     0AE6  0800               	movf	0,w
  7298     0AE7  00A2               	movwf	??_AutoFox_INA226_WriteRegister+2
  7299     0AE8  01A3               	clrf	??_AutoFox_INA226_WriteRegister+3
  7300     0AE9  1003               	clrc
  7301     0AEA  0D22               	rlf	??_AutoFox_INA226_WriteRegister+2,w
  7302     0AEB  00F2               	movwf	I2C_Master_Write@data
  7303     0AEC  0D23               	rlf	??_AutoFox_INA226_WriteRegister+3,w
  7304     0AED  00F3               	movwf	I2C_Master_Write@data+1
  7305     0AEE  160A  118A  2787  120A  158A  	fcall	_I2C_Master_Write
  7306     0AF3                     l3281:
  7307                           
  7308                           ;ina226.c: 224:     I2C_Master_Write(buffer[0]);
  7309     0AF3  1283               	bcf	3,5	;RP0=0, select bank0
  7310     0AF4  1303               	bcf	3,6	;RP1=0, select bank0
  7311     0AF5  0824               	movf	AutoFox_INA226_WriteRegister@buffer,w
  7312     0AF6  00A0               	movwf	??_AutoFox_INA226_WriteRegister
  7313     0AF7  01A1               	clrf	??_AutoFox_INA226_WriteRegister+1
  7314     0AF8  0820               	movf	??_AutoFox_INA226_WriteRegister,w
  7315     0AF9  00F2               	movwf	I2C_Master_Write@data
  7316     0AFA  0821               	movf	??_AutoFox_INA226_WriteRegister+1,w
  7317     0AFB  00F3               	movwf	I2C_Master_Write@data+1
  7318     0AFC  160A  118A  2787  120A  158A  	fcall	_I2C_Master_Write
  7319     0B01                     l3283:
  7320                           
  7321                           ;ina226.c: 225:     I2C_Master_Write(buffer[1]);
  7322     0B01  1283               	bcf	3,5	;RP0=0, select bank0
  7323     0B02  1303               	bcf	3,6	;RP1=0, select bank0
  7324     0B03  0825               	movf	AutoFox_INA226_WriteRegister@buffer+1,w
  7325     0B04  00A0               	movwf	??_AutoFox_INA226_WriteRegister
  7326     0B05  01A1               	clrf	??_AutoFox_INA226_WriteRegister+1
  7327     0B06  0820               	movf	??_AutoFox_INA226_WriteRegister,w
  7328     0B07  00F2               	movwf	I2C_Master_Write@data
  7329     0B08  0821               	movf	??_AutoFox_INA226_WriteRegister+1,w
  7330     0B09  00F3               	movwf	I2C_Master_Write@data+1
  7331     0B0A  160A  118A  2787  120A  158A  	fcall	_I2C_Master_Write
  7332     0B0F                     l3285:
  7333                           
  7334                           ;ina226.c: 226:     I2C_Master_Write(buffer[2]);
  7335     0B0F  1283               	bcf	3,5	;RP0=0, select bank0
  7336     0B10  1303               	bcf	3,6	;RP1=0, select bank0
  7337     0B11  0826               	movf	AutoFox_INA226_WriteRegister@buffer+2,w
  7338     0B12  00A0               	movwf	??_AutoFox_INA226_WriteRegister
  7339     0B13  01A1               	clrf	??_AutoFox_INA226_WriteRegister+1
  7340     0B14  0820               	movf	??_AutoFox_INA226_WriteRegister,w
  7341     0B15  00F2               	movwf	I2C_Master_Write@data
  7342     0B16  0821               	movf	??_AutoFox_INA226_WriteRegister+1,w
  7343     0B17  00F3               	movwf	I2C_Master_Write@data+1
  7344     0B18  160A  118A  2787  120A  158A  	fcall	_I2C_Master_Write
  7345     0B1D                     l3287:
  7346                           
  7347                           ;ina226.c: 228:     I2C_Master_Stop();
  7348     0B1D  160A  118A  277E  120A  158A  	fcall	_I2C_Master_Stop
  7349     0B22                     l3289:
  7350                           
  7351                           ;ina226.c: 230:     return OK;
  7352     0B22  3000               	movlw	0
  7353     0B23                     l337:
  7354     0B23  0008               	return
  7355     0B24                     __end_of_AutoFox_INA226_WriteRegister:
  7356                           
  7357                           	psect	text29
  7358     0027                     __ptext29:	
  7359 ;; *************** function _AutoFox_INA226_ReadRegister *****************
  7360 ;; Defined at:
  7361 ;;		line 193 in file "ina226.c"
  7362 ;; Parameters:    Size  Location     Type
  7363 ;;  this            2    0[BANK0 ] PTR struct AutoFox_INA22
  7364 ;;		 -> main@ina226(14), 
  7365 ;;  aRegister       1    2[BANK0 ] unsigned char 
  7366 ;;  aValue_p        2    3[BANK0 ] PTR unsigned short 
  7367 ;;		 -> AutoFox_INA226_ResetAlertPin@theTriggerCause(2), AutoFox_INA226_ConfigureAlertPinTrigger@theMaskEnableRegister(2
      +), AutoFox_INA226_GetPower_uW@theRegisterValue(2), AutoFox_INA226_GetCurrent_uA@theRegisterValue(2), 
  7368 ;;		 -> AutoFox_INA226_GetBusVoltage_V@theRegisterValue(4), AutoFox_INA226_GetShuntVoltage_uV@theRegisterValue(2), AutoF
      +ox_INA226_Init@theINA226_ID(2), main@ina226(14), 
  7369 ;; Auto vars:     Size  Location     Type
  7370 ;;		None
  7371 ;; Return value:  Size  Location     Type
  7372 ;;                  1    wreg      enum E1803
  7373 ;; Registers used:
  7374 ;;		wreg, fsr0l, fsr0h, status,2, status,0, btemp+1, pclath, cstack
  7375 ;; Tracked objects:
  7376 ;;		On entry : 0/0
  7377 ;;		On exit  : 0/0
  7378 ;;		Unchanged: 0/0
  7379 ;; Data sizes:     COMMON   BANK0   BANK1   BANK3   BANK2
  7380 ;;      Params:         0       5       0       0       0
  7381 ;;      Locals:         0       0       0       0       0
  7382 ;;      Temps:          0       4       0       0       0
  7383 ;;      Totals:         0       9       0       0       0
  7384 ;;Total ram usage:        9 bytes
  7385 ;; Hardware stack levels used: 1
  7386 ;; Hardware stack levels required when called: 3
  7387 ;; This function calls:
  7388 ;;		_I2C_Master_Read
  7389 ;;		_I2C_Master_Start
  7390 ;;		_I2C_Master_Stop
  7391 ;;		_I2C_Master_Write
  7392 ;; This function is called by:
  7393 ;;		_AutoFox_INA226_Init
  7394 ;;		_AutoFox_INA226_GetBusVoltage_V
  7395 ;;		_AutoFox_INA226_ConfigureVoltageConversionTime
  7396 ;;		_AutoFox_INA226_ConfigureNumSampleAveraging
  7397 ;;		_AutoFox_INA226_GetShuntVoltage_uV
  7398 ;;		_AutoFox_INA226_GetCurrent_uA
  7399 ;;		_AutoFox_INA226_GetPower_uW
  7400 ;;		_AutoFox_INA226_Hibernate
  7401 ;;		_AutoFox_INA226_SetOperatingMode
  7402 ;;		_AutoFox_INA226_ConfigureAlertPinTrigger
  7403 ;;		_AutoFox_INA226_ResetAlertPin
  7404 ;;		_AutoFox_INA226_Debug_GetConfigRegister
  7405 ;; This function uses a non-reentrant model
  7406 ;;
  7407                           
  7408     0027                     _AutoFox_INA226_ReadRegister:	
  7409                           ;psect for function _AutoFox_INA226_ReadRegister
  7410                           
  7411     0027                     l3367:	
  7412                           ;incstack = 0
  7413                           ; Regs used in _AutoFox_INA226_ReadRegister: [wreg-fsr0h+status,2+status,0+btemp+1+pclat
      +                          h+cstack]
  7414                           
  7415                           
  7416                           ;ina226.c: 193: status AutoFox_INA226_ReadRegister(AutoFox_INA226* this, uint8_t aRegist
      +                          er, uint16_t* aValue_p);ina226.c: 194: {;ina226.c: 195:     *aValue_p = 0;
  7417     0027  1283               	bcf	3,5	;RP0=0, select bank0
  7418     0028  1303               	bcf	3,6	;RP1=0, select bank0
  7419     0029  0823               	movf	AutoFox_INA226_ReadRegister@aValue_p,w
  7420     002A  0084               	movwf	4
  7421     002B  1783               	bsf	3,7
  7422     002C  1C24               	btfss	AutoFox_INA226_ReadRegister@aValue_p+1,0
  7423     002D  1383               	bcf	3,7
  7424     002E  0180               	clrf	0
  7425     002F  0A84               	incf	4,f
  7426     0030  0180               	clrf	0
  7427     0031                     l3369:
  7428                           
  7429                           ;ina226.c: 196:     I2C_Master_Start();
  7430     0031  160A  118A  2775  120A  118A  	fcall	_I2C_Master_Start
  7431     0036                     l3371:
  7432                           
  7433                           ;ina226.c: 197:     I2C_Master_Write(this->mI2C_Address << 1);
  7434     0036  1283               	bcf	3,5	;RP0=0, select bank0
  7435     0037  1303               	bcf	3,6	;RP1=0, select bank0
  7436     0038  0820               	movf	AutoFox_INA226_ReadRegister@this,w
  7437     0039  3E01               	addlw	1
  7438     003A  00A5               	movwf	??_AutoFox_INA226_ReadRegister
  7439     003B  0821               	movf	AutoFox_INA226_ReadRegister@this+1,w
  7440     003C  1803               	skipnc
  7441     003D  3E01               	addlw	1
  7442     003E  3E00               	addlw	0
  7443     003F  00A6               	movwf	??_AutoFox_INA226_ReadRegister+1
  7444     0040  0825               	movf	??_AutoFox_INA226_ReadRegister,w
  7445     0041  0084               	movwf	4
  7446     0042  1783               	bsf	3,7
  7447     0043  1C26               	btfss	??_AutoFox_INA226_ReadRegister+1,0
  7448     0044  1383               	bcf	3,7
  7449     0045  0800               	movf	0,w
  7450     0046  00A7               	movwf	??_AutoFox_INA226_ReadRegister+2
  7451     0047  01A8               	clrf	??_AutoFox_INA226_ReadRegister+3
  7452     0048  1003               	clrc
  7453     0049  0D27               	rlf	??_AutoFox_INA226_ReadRegister+2,w
  7454     004A  00F2               	movwf	I2C_Master_Write@data
  7455     004B  0D28               	rlf	??_AutoFox_INA226_ReadRegister+3,w
  7456     004C  00F3               	movwf	I2C_Master_Write@data+1
  7457     004D  160A  118A  2787  120A  118A  	fcall	_I2C_Master_Write
  7458     0052                     l3373:
  7459                           
  7460                           ;ina226.c: 198:     I2C_Master_Write(aRegister);
  7461     0052  1283               	bcf	3,5	;RP0=0, select bank0
  7462     0053  1303               	bcf	3,6	;RP1=0, select bank0
  7463     0054  0822               	movf	AutoFox_INA226_ReadRegister@aRegister,w
  7464     0055  00A5               	movwf	??_AutoFox_INA226_ReadRegister
  7465     0056  01A6               	clrf	??_AutoFox_INA226_ReadRegister+1
  7466     0057  0825               	movf	??_AutoFox_INA226_ReadRegister,w
  7467     0058  00F2               	movwf	I2C_Master_Write@data
  7468     0059  0826               	movf	??_AutoFox_INA226_ReadRegister+1,w
  7469     005A  00F3               	movwf	I2C_Master_Write@data+1
  7470     005B  160A  118A  2787  120A  118A  	fcall	_I2C_Master_Write
  7471     0060                     l3375:
  7472                           
  7473                           ;ina226.c: 199:     I2C_Master_Stop();
  7474     0060  160A  118A  277E  120A  118A  	fcall	_I2C_Master_Stop
  7475     0065                     l3377:
  7476                           
  7477                           ;ina226.c: 200:     I2C_Master_Start();
  7478     0065  160A  118A  2775  120A  118A  	fcall	_I2C_Master_Start
  7479     006A                     l3379:
  7480                           
  7481                           ;ina226.c: 201:     I2C_Master_Write((this->mI2C_Address << 1) | 1);
  7482     006A  1283               	bcf	3,5	;RP0=0, select bank0
  7483     006B  1303               	bcf	3,6	;RP1=0, select bank0
  7484     006C  0820               	movf	AutoFox_INA226_ReadRegister@this,w
  7485     006D  3E01               	addlw	1
  7486     006E  00A5               	movwf	??_AutoFox_INA226_ReadRegister
  7487     006F  0821               	movf	AutoFox_INA226_ReadRegister@this+1,w
  7488     0070  1803               	skipnc
  7489     0071  3E01               	addlw	1
  7490     0072  3E00               	addlw	0
  7491     0073  00A6               	movwf	??_AutoFox_INA226_ReadRegister+1
  7492     0074  0825               	movf	??_AutoFox_INA226_ReadRegister,w
  7493     0075  0084               	movwf	4
  7494     0076  1783               	bsf	3,7
  7495     0077  1C26               	btfss	??_AutoFox_INA226_ReadRegister+1,0
  7496     0078  1383               	bcf	3,7
  7497     0079  0800               	movf	0,w
  7498     007A  00A7               	movwf	??_AutoFox_INA226_ReadRegister+2
  7499     007B  01A8               	clrf	??_AutoFox_INA226_ReadRegister+3
  7500     007C  1003               	clrc
  7501     007D  0DA7               	rlf	??_AutoFox_INA226_ReadRegister+2,f
  7502     007E  0DA8               	rlf	??_AutoFox_INA226_ReadRegister+3,f
  7503     007F  3001               	movlw	1
  7504     0080  0427               	iorwf	??_AutoFox_INA226_ReadRegister+2,w
  7505     0081  00F2               	movwf	I2C_Master_Write@data
  7506     0082  3000               	movlw	0
  7507     0083  0428               	iorwf	??_AutoFox_INA226_ReadRegister+3,w
  7508     0084  00F3               	movwf	I2C_Master_Write@data+1
  7509     0085  160A  118A  2787  120A  118A  	fcall	_I2C_Master_Write
  7510     008A                     l3381:
  7511                           
  7512                           ;ina226.c: 203:     *aValue_p = I2C_Master_Read(1);
  7513     008A  3001               	movlw	1
  7514     008B  120A  158A  206A  120A  118A  	fcall	_I2C_Master_Read
  7515     0090  1283               	bcf	3,5	;RP0=0, select bank0
  7516     0091  1303               	bcf	3,6	;RP1=0, select bank0
  7517     0092  00A5               	movwf	??_AutoFox_INA226_ReadRegister
  7518     0093  01A6               	clrf	??_AutoFox_INA226_ReadRegister+1
  7519     0094  0823               	movf	AutoFox_INA226_ReadRegister@aValue_p,w
  7520     0095  0084               	movwf	4
  7521     0096  1783               	bsf	3,7
  7522     0097  1C24               	btfss	AutoFox_INA226_ReadRegister@aValue_p+1,0
  7523     0098  1383               	bcf	3,7
  7524     0099  0825               	movf	??_AutoFox_INA226_ReadRegister,w
  7525     009A  0080               	movwf	0
  7526     009B  0A84               	incf	4,f
  7527     009C  0826               	movf	??_AutoFox_INA226_ReadRegister+1,w
  7528     009D  0080               	movwf	0
  7529     009E                     l3383:
  7530                           
  7531                           ;ina226.c: 204:     *aValue_p = *aValue_p << 8;
  7532     009E  0823               	movf	AutoFox_INA226_ReadRegister@aValue_p,w
  7533     009F  0084               	movwf	4
  7534     00A0  1783               	bsf	3,7
  7535     00A1  1C24               	btfss	AutoFox_INA226_ReadRegister@aValue_p+1,0
  7536     00A2  1383               	bcf	3,7
  7537     00A3  0800               	movf	0,w
  7538     00A4  00A5               	movwf	??_AutoFox_INA226_ReadRegister
  7539     00A5  0A84               	incf	4,f
  7540     00A6  0800               	movf	0,w
  7541     00A7  00A6               	movwf	??_AutoFox_INA226_ReadRegister+1
  7542     00A8  0825               	movf	??_AutoFox_INA226_ReadRegister,w
  7543     00A9  00A6               	movwf	??_AutoFox_INA226_ReadRegister+1
  7544     00AA  01A5               	clrf	??_AutoFox_INA226_ReadRegister
  7545     00AB  0823               	movf	AutoFox_INA226_ReadRegister@aValue_p,w
  7546     00AC  0084               	movwf	4
  7547     00AD  1783               	bsf	3,7
  7548     00AE  1C24               	btfss	AutoFox_INA226_ReadRegister@aValue_p+1,0
  7549     00AF  1383               	bcf	3,7
  7550     00B0  0825               	movf	??_AutoFox_INA226_ReadRegister,w
  7551     00B1  0080               	movwf	0
  7552     00B2  0A84               	incf	4,f
  7553     00B3  0826               	movf	??_AutoFox_INA226_ReadRegister+1,w
  7554     00B4  0080               	movwf	0
  7555     00B5                     l3385:
  7556                           
  7557                           ;ina226.c: 205:     *aValue_p |= I2C_Master_Read(0);
  7558     00B5  3000               	movlw	0
  7559     00B6  120A  158A  206A  120A  118A  	fcall	_I2C_Master_Read
  7560     00BB  1283               	bcf	3,5	;RP0=0, select bank0
  7561     00BC  1303               	bcf	3,6	;RP1=0, select bank0
  7562     00BD  00A5               	movwf	??_AutoFox_INA226_ReadRegister
  7563     00BE  01A6               	clrf	??_AutoFox_INA226_ReadRegister+1
  7564     00BF  0823               	movf	AutoFox_INA226_ReadRegister@aValue_p,w
  7565     00C0  0084               	movwf	4
  7566     00C1  1783               	bsf	3,7
  7567     00C2  1C24               	btfss	AutoFox_INA226_ReadRegister@aValue_p+1,0
  7568     00C3  1383               	bcf	3,7
  7569     00C4  0825               	movf	??_AutoFox_INA226_ReadRegister,w
  7570     00C5  0480               	iorwf	0,f
  7571     00C6  0A84               	incf	4,f
  7572     00C7  0826               	movf	??_AutoFox_INA226_ReadRegister+1,w
  7573     00C8  0480               	iorwf	0,f
  7574     00C9                     l3387:
  7575                           
  7576                           ;ina226.c: 207:     I2C_Master_Stop();
  7577     00C9  160A  118A  277E  120A  118A  	fcall	_I2C_Master_Stop
  7578     00CE                     l3389:
  7579                           
  7580                           ;ina226.c: 209:     return OK;
  7581     00CE  3000               	movlw	0
  7582     00CF                     l334:
  7583     00CF  0008               	return
  7584     00D0                     __end_of_AutoFox_INA226_ReadRegister:
  7585                           
  7586                           	psect	text30
  7587     1787                     __ptext30:	
  7588 ;; *************** function _I2C_Master_Write *****************
  7589 ;; Defined at:
  7590 ;;		line 105 in file "hw_i2c.c"
  7591 ;; Parameters:    Size  Location     Type
  7592 ;;  data            2    2[COMMON] unsigned int 
  7593 ;; Auto vars:     Size  Location     Type
  7594 ;;		None
  7595 ;; Return value:  Size  Location     Type
  7596 ;;                  1    wreg      void 
  7597 ;; Registers used:
  7598 ;;		wreg, status,2, status,0, pclath, cstack
  7599 ;; Tracked objects:
  7600 ;;		On entry : 0/0
  7601 ;;		On exit  : 0/0
  7602 ;;		Unchanged: 0/0
  7603 ;; Data sizes:     COMMON   BANK0   BANK1   BANK3   BANK2
  7604 ;;      Params:         2       0       0       0       0
  7605 ;;      Locals:         0       0       0       0       0
  7606 ;;      Temps:          0       0       0       0       0
  7607 ;;      Totals:         2       0       0       0       0
  7608 ;;Total ram usage:        2 bytes
  7609 ;; Hardware stack levels used: 1
  7610 ;; Hardware stack levels required when called: 2
  7611 ;; This function calls:
  7612 ;;		_I2C_Master_Wait
  7613 ;; This function is called by:
  7614 ;;		_AutoFox_INA226_CheckI2cAddress
  7615 ;;		_AutoFox_INA226_ReadRegister
  7616 ;;		_AutoFox_INA226_WriteRegister
  7617 ;; This function uses a non-reentrant model
  7618 ;;
  7619                           
  7620     1787                     _I2C_Master_Write:	
  7621                           ;psect for function _I2C_Master_Write
  7622                           
  7623     1787                     l3199:	
  7624                           ;incstack = 0
  7625                           ; Regs used in _I2C_Master_Write: [wreg+status,2+status,0+pclath+cstack]
  7626                           
  7627                           
  7628                           ;hw_i2c.c: 105: void I2C_Master_Write(unsigned data);hw_i2c.c: 106: {;hw_i2c.c: 107:    
      +                           I2C_Master_Wait();
  7629     1787  160A  118A  27E5  160A  118A  	fcall	_I2C_Master_Wait
  7630     178C                     l3201:
  7631                           
  7632                           ;hw_i2c.c: 108:     SSPBUF=data;
  7633     178C  0872               	movf	I2C_Master_Write@data,w
  7634     178D  1283               	bcf	3,5	;RP0=0, select bank0
  7635     178E  1303               	bcf	3,6	;RP1=0, select bank0
  7636     178F  0093               	movwf	19	;volatile
  7637     1790                     l175:
  7638     1790  0008               	return
  7639     1791                     __end_of_I2C_Master_Write:
  7640                           
  7641                           	psect	text31
  7642     177E                     __ptext31:	
  7643 ;; *************** function _I2C_Master_Stop *****************
  7644 ;; Defined at:
  7645 ;;		line 91 in file "hw_i2c.c"
  7646 ;; Parameters:    Size  Location     Type
  7647 ;;		None
  7648 ;; Auto vars:     Size  Location     Type
  7649 ;;		None
  7650 ;; Return value:  Size  Location     Type
  7651 ;;                  1    wreg      void 
  7652 ;; Registers used:
  7653 ;;		status,2, status,0, pclath, cstack
  7654 ;; Tracked objects:
  7655 ;;		On entry : 0/0
  7656 ;;		On exit  : 0/0
  7657 ;;		Unchanged: 0/0
  7658 ;; Data sizes:     COMMON   BANK0   BANK1   BANK3   BANK2
  7659 ;;      Params:         0       0       0       0       0
  7660 ;;      Locals:         0       0       0       0       0
  7661 ;;      Temps:          0       0       0       0       0
  7662 ;;      Totals:         0       0       0       0       0
  7663 ;;Total ram usage:        0 bytes
  7664 ;; Hardware stack levels used: 1
  7665 ;; Hardware stack levels required when called: 2
  7666 ;; This function calls:
  7667 ;;		_I2C_Master_Wait
  7668 ;; This function is called by:
  7669 ;;		_AutoFox_INA226_CheckI2cAddress
  7670 ;;		_AutoFox_INA226_ReadRegister
  7671 ;;		_AutoFox_INA226_WriteRegister
  7672 ;; This function uses a non-reentrant model
  7673 ;;
  7674                           
  7675     177E                     _I2C_Master_Stop:	
  7676                           ;psect for function _I2C_Master_Stop
  7677                           
  7678     177E                     l3195:	
  7679                           ;incstack = 0
  7680                           ; Regs used in _I2C_Master_Stop: [status,2+status,0+pclath+cstack]
  7681                           
  7682                           
  7683                           ;hw_i2c.c: 93:     I2C_Master_Wait();
  7684     177E  160A  118A  27E5  160A  118A  	fcall	_I2C_Master_Wait
  7685     1783                     l3197:
  7686                           
  7687                           ;hw_i2c.c: 94:     SSPCON2bits.PEN=1;
  7688     1783  1683               	bsf	3,5	;RP0=1, select bank1
  7689     1784  1303               	bcf	3,6	;RP1=0, select bank1
  7690     1785  1511               	bsf	17,2	;volatile
  7691     1786                     l172:
  7692     1786  0008               	return
  7693     1787                     __end_of_I2C_Master_Stop:
  7694                           
  7695                           	psect	text32
  7696     1775                     __ptext32:	
  7697 ;; *************** function _I2C_Master_Start *****************
  7698 ;; Defined at:
  7699 ;;		line 77 in file "hw_i2c.c"
  7700 ;; Parameters:    Size  Location     Type
  7701 ;;		None
  7702 ;; Auto vars:     Size  Location     Type
  7703 ;;		None
  7704 ;; Return value:  Size  Location     Type
  7705 ;;                  1    wreg      void 
  7706 ;; Registers used:
  7707 ;;		status,2, status,0, pclath, cstack
  7708 ;; Tracked objects:
  7709 ;;		On entry : 0/0
  7710 ;;		On exit  : 0/0
  7711 ;;		Unchanged: 0/0
  7712 ;; Data sizes:     COMMON   BANK0   BANK1   BANK3   BANK2
  7713 ;;      Params:         0       0       0       0       0
  7714 ;;      Locals:         0       0       0       0       0
  7715 ;;      Temps:          0       0       0       0       0
  7716 ;;      Totals:         0       0       0       0       0
  7717 ;;Total ram usage:        0 bytes
  7718 ;; Hardware stack levels used: 1
  7719 ;; Hardware stack levels required when called: 2
  7720 ;; This function calls:
  7721 ;;		_I2C_Master_Wait
  7722 ;; This function is called by:
  7723 ;;		_AutoFox_INA226_CheckI2cAddress
  7724 ;;		_AutoFox_INA226_ReadRegister
  7725 ;;		_AutoFox_INA226_WriteRegister
  7726 ;; This function uses a non-reentrant model
  7727 ;;
  7728                           
  7729     1775                     _I2C_Master_Start:	
  7730                           ;psect for function _I2C_Master_Start
  7731                           
  7732     1775                     l3191:	
  7733                           ;incstack = 0
  7734                           ; Regs used in _I2C_Master_Start: [status,2+status,0+pclath+cstack]
  7735                           
  7736                           
  7737                           ;hw_i2c.c: 79:     I2C_Master_Wait();
  7738     1775  160A  118A  27E5  160A  118A  	fcall	_I2C_Master_Wait
  7739     177A                     l3193:
  7740                           
  7741                           ;hw_i2c.c: 80:     SSPCON2bits.SEN=1;
  7742     177A  1683               	bsf	3,5	;RP0=1, select bank1
  7743     177B  1303               	bcf	3,6	;RP1=0, select bank1
  7744     177C  1411               	bsf	17,0	;volatile
  7745     177D                     l169:
  7746     177D  0008               	return
  7747     177E                     __end_of_I2C_Master_Start:
  7748                           
  7749                           	psect	text33
  7750     086A                     __ptext33:	
  7751 ;; *************** function _I2C_Master_Read *****************
  7752 ;; Defined at:
  7753 ;;		line 119 in file "hw_i2c.c"
  7754 ;; Parameters:    Size  Location     Type
  7755 ;;  ack             1    wreg     unsigned char 
  7756 ;; Auto vars:     Size  Location     Type
  7757 ;;  ack             1    4[COMMON] unsigned char 
  7758 ;;  data            2    5[COMMON] unsigned short 
  7759 ;; Return value:  Size  Location     Type
  7760 ;;                  1    wreg      unsigned char 
  7761 ;; Registers used:
  7762 ;;		wreg, status,2, status,0, pclath, cstack
  7763 ;; Tracked objects:
  7764 ;;		On entry : 0/0
  7765 ;;		On exit  : 0/0
  7766 ;;		Unchanged: 0/0
  7767 ;; Data sizes:     COMMON   BANK0   BANK1   BANK3   BANK2
  7768 ;;      Params:         0       0       0       0       0
  7769 ;;      Locals:         3       0       0       0       0
  7770 ;;      Temps:          2       0       0       0       0
  7771 ;;      Totals:         5       0       0       0       0
  7772 ;;Total ram usage:        5 bytes
  7773 ;; Hardware stack levels used: 1
  7774 ;; Hardware stack levels required when called: 2
  7775 ;; This function calls:
  7776 ;;		_I2C_Master_Wait
  7777 ;; This function is called by:
  7778 ;;		_AutoFox_INA226_ReadRegister
  7779 ;; This function uses a non-reentrant model
  7780 ;;
  7781                           
  7782     086A                     _I2C_Master_Read:	
  7783                           ;psect for function _I2C_Master_Read
  7784                           
  7785                           
  7786                           ;incstack = 0
  7787                           ; Regs used in _I2C_Master_Read: [wreg+status,2+status,0+pclath+cstack]
  7788                           ;I2C_Master_Read@ack stored from wreg
  7789     086A  00F4               	movwf	I2C_Master_Read@ack
  7790     086B                     l3255:
  7791                           
  7792                           ;hw_i2c.c: 119: unsigned char I2C_Master_Read(unsigned char ack);hw_i2c.c: 120: {;hw_i2c
      +                          .c: 121:     unsigned short data;;hw_i2c.c: 122:     I2C_Master_Wait();
  7793     086B  160A  118A  27E5  120A  158A  	fcall	_I2C_Master_Wait
  7794     0870                     l3257:
  7795                           
  7796                           ;hw_i2c.c: 123:     RCEN=1;
  7797     0870  1683               	bsf	3,5	;RP0=1, select bank1
  7798     0871  1303               	bcf	3,6	;RP1=0, select bank1
  7799     0872  1591               	bsf	17,3	;volatile
  7800                           
  7801                           ;hw_i2c.c: 124:     I2C_Master_Wait();
  7802     0873  160A  118A  27E5  120A  158A  	fcall	_I2C_Master_Wait
  7803     0878                     l3259:
  7804                           
  7805                           ;hw_i2c.c: 125:     data=SSPBUF;
  7806     0878  1283               	bcf	3,5	;RP0=0, select bank0
  7807     0879  1303               	bcf	3,6	;RP1=0, select bank0
  7808     087A  0813               	movf	19,w	;volatile
  7809     087B  00F2               	movwf	??_I2C_Master_Read
  7810     087C  01F3               	clrf	??_I2C_Master_Read+1
  7811     087D  0872               	movf	??_I2C_Master_Read,w
  7812     087E  00F5               	movwf	I2C_Master_Read@data
  7813     087F  0873               	movf	??_I2C_Master_Read+1,w
  7814     0880  00F6               	movwf	I2C_Master_Read@data+1
  7815     0881                     l3261:
  7816                           
  7817                           ;hw_i2c.c: 126:     I2C_Master_Wait();
  7818     0881  160A  118A  27E5  120A  158A  	fcall	_I2C_Master_Wait
  7819     0886                     l3263:
  7820                           
  7821                           ;hw_i2c.c: 127:     ACKDT=(ack)?0:1;
  7822     0886  0874               	movf	I2C_Master_Read@ack,w
  7823     0887  1903               	btfsc	3,2
  7824     0888  288A               	goto	u2671
  7825     0889  288E               	goto	u2670
  7826     088A                     u2671:
  7827     088A  1683               	bsf	3,5	;RP0=1, select bank1
  7828     088B  1303               	bcf	3,6	;RP1=0, select bank1
  7829     088C  1691               	bsf	17,5	;volatile
  7830     088D  2891               	goto	u2684
  7831     088E                     u2670:
  7832     088E  1683               	bsf	3,5	;RP0=1, select bank1
  7833     088F  1303               	bcf	3,6	;RP1=0, select bank1
  7834     0890  1291               	bcf	17,5	;volatile
  7835     0891                     u2684:
  7836     0891                     l3265:
  7837                           
  7838                           ;hw_i2c.c: 128:     ACKEN=1;
  7839     0891  1611               	bsf	17,4	;volatile
  7840     0892                     l3267:
  7841                           
  7842                           ;hw_i2c.c: 129:     return data;
  7843     0892  0875               	movf	I2C_Master_Read@data,w
  7844     0893                     l178:
  7845     0893  0008               	return
  7846     0894                     __end_of_I2C_Master_Read:
  7847                           
  7848                           	psect	text34
  7849     17E5                     __ptext34:	
  7850 ;; *************** function _I2C_Master_Wait *****************
  7851 ;; Defined at:
  7852 ;;		line 61 in file "hw_i2c.c"
  7853 ;; Parameters:    Size  Location     Type
  7854 ;;		None
  7855 ;; Auto vars:     Size  Location     Type
  7856 ;;		None
  7857 ;; Return value:  Size  Location     Type
  7858 ;;                  1    wreg      void 
  7859 ;; Registers used:
  7860 ;;		None
  7861 ;; Tracked objects:
  7862 ;;		On entry : 0/0
  7863 ;;		On exit  : 0/0
  7864 ;;		Unchanged: 0/0
  7865 ;; Data sizes:     COMMON   BANK0   BANK1   BANK3   BANK2
  7866 ;;      Params:         0       0       0       0       0
  7867 ;;      Locals:         0       0       0       0       0
  7868 ;;      Temps:          0       0       0       0       0
  7869 ;;      Totals:         0       0       0       0       0
  7870 ;;Total ram usage:        0 bytes
  7871 ;; Hardware stack levels used: 1
  7872 ;; Hardware stack levels required when called: 1
  7873 ;; This function calls:
  7874 ;;		Nothing
  7875 ;; This function is called by:
  7876 ;;		_I2C_Master_Start
  7877 ;;		_I2C_Master_Stop
  7878 ;;		_I2C_Master_Write
  7879 ;;		_I2C_Master_Read
  7880 ;; This function uses a non-reentrant model
  7881 ;;
  7882                           
  7883     17E5                     _I2C_Master_Wait:	
  7884                           ;psect for function _I2C_Master_Wait
  7885                           
  7886     17E5                     l3171:	
  7887                           ;incstack = 0
  7888                           ; Regs used in _I2C_Master_Wait: []
  7889                           
  7890     17E5                     l163:	
  7891                           ;hw_i2c.c: 65:     {;hw_i2c.c: 66:     };
  7892                           
  7893                           
  7894                           ;hw_i2c.c: 63:     while (SSPCON2bits.RCEN || SSPCON2bits.PEN || SSPCON2bits.RSEN ||
  7895     17E5  1683               	bsf	3,5	;RP0=1, select bank1
  7896     17E6  1303               	bcf	3,6	;RP1=0, select bank1
  7897     17E7  1991               	btfsc	17,3	;volatile
  7898     17E8  2FEA               	goto	u2501
  7899     17E9  2FEB               	goto	u2500
  7900     17EA                     u2501:
  7901     17EA  2FE5               	goto	l163
  7902     17EB                     u2500:
  7903     17EB                     l3173:
  7904     17EB  1911               	btfsc	17,2	;volatile
  7905     17EC  2FEE               	goto	u2511
  7906     17ED  2FEF               	goto	u2510
  7907     17EE                     u2511:
  7908     17EE  2FE5               	goto	l163
  7909     17EF                     u2510:
  7910     17EF                     l3175:
  7911     17EF  1891               	btfsc	17,1	;volatile
  7912     17F0  2FF2               	goto	u2521
  7913     17F1  2FF3               	goto	u2520
  7914     17F2                     u2521:
  7915     17F2  2FE5               	goto	l163
  7916     17F3                     u2520:
  7917     17F3                     l3177:
  7918     17F3  1811               	btfsc	17,0	;volatile
  7919     17F4  2FF6               	goto	u2531
  7920     17F5  2FF7               	goto	u2530
  7921     17F6                     u2531:
  7922     17F6  2FE5               	goto	l163
  7923     17F7                     u2530:
  7924     17F7                     l3179:
  7925     17F7  1A11               	btfsc	17,4	;volatile
  7926     17F8  2FFA               	goto	u2541
  7927     17F9  2FFB               	goto	u2540
  7928     17FA                     u2541:
  7929     17FA  2FE5               	goto	l163
  7930     17FB                     u2540:
  7931     17FB                     l3181:
  7932     17FB  1914               	btfsc	20,2	;volatile
  7933     17FC  2FFE               	goto	u2551
  7934     17FD  2FFF               	goto	u2550
  7935     17FE                     u2551:
  7936     17FE  2FE5               	goto	l163
  7937     17FF                     u2550:
  7938     17FF                     l166:
  7939     17FF  0008               	return
  7940     1800                     __end_of_I2C_Master_Wait:
  7941                           
  7942                           	psect	text35
  7943     0800                     __ptext35:	
  7944 ;; *************** function _ADC_Init *****************
  7945 ;; Defined at:
  7946 ;;		line 13 in file "adc.c"
  7947 ;; Parameters:    Size  Location     Type
  7948 ;;		None
  7949 ;; Auto vars:     Size  Location     Type
  7950 ;;		None
  7951 ;; Return value:  Size  Location     Type
  7952 ;;                  1    wreg      void 
  7953 ;; Registers used:
  7954 ;;		wreg, status,2, status,0
  7955 ;; Tracked objects:
  7956 ;;		On entry : 0/0
  7957 ;;		On exit  : 0/0
  7958 ;;		Unchanged: 0/0
  7959 ;; Data sizes:     COMMON   BANK0   BANK1   BANK3   BANK2
  7960 ;;      Params:         0       0       0       0       0
  7961 ;;      Locals:         0       0       0       0       0
  7962 ;;      Temps:          2       0       0       0       0
  7963 ;;      Totals:         2       0       0       0       0
  7964 ;;Total ram usage:        2 bytes
  7965 ;; Hardware stack levels used: 1
  7966 ;; Hardware stack levels required when called: 1
  7967 ;; This function calls:
  7968 ;;		Nothing
  7969 ;; This function is called by:
  7970 ;;		_main
  7971 ;; This function uses a non-reentrant model
  7972 ;;
  7973                           
  7974     0800                     _ADC_Init:	
  7975                           ;psect for function _ADC_Init
  7976                           
  7977     0800                     l2859:	
  7978                           ;incstack = 0
  7979                           ; Regs used in _ADC_Init: [wreg+status,2+status,0]
  7980                           
  7981                           
  7982                           ;adc.c: 16:     ADCON0bits.ADCS = 0b10;
  7983     0800  1283               	bcf	3,5	;RP0=0, select bank0
  7984     0801  1303               	bcf	3,6	;RP1=0, select bank0
  7985     0802  081F               	movf	31,w	;volatile
  7986     0803  393F               	andlw	-193
  7987     0804  3880               	iorlw	128
  7988     0805  009F               	movwf	31	;volatile
  7989     0806                     l2861:
  7990                           
  7991                           ;adc.c: 19:     ADCON1bits.VCFG0 = 1;
  7992     0806  1683               	bsf	3,5	;RP0=1, select bank1
  7993     0807  1303               	bcf	3,6	;RP1=0, select bank1
  7994     0808  161F               	bsf	31,4	;volatile
  7995     0809                     l2863:
  7996                           
  7997                           ;adc.c: 20:     ADCON1bits.VCFG1 = 0;
  7998     0809  129F               	bcf	31,5	;volatile
  7999                           
  8000                           ;adc.c: 23:     ADCON0bits.CHS = 0b0000;
  8001     080A  30C3               	movlw	-61
  8002     080B  1283               	bcf	3,5	;RP0=0, select bank0
  8003     080C  1303               	bcf	3,6	;RP1=0, select bank0
  8004     080D  059F               	andwf	31,f	;volatile
  8005     080E                     l2865:
  8006                           
  8007                           ;adc.c: 24:    _delay((unsigned long)((2)*(8000000/4000.0)));
  8008     080E  3006               	movlw	6
  8009     080F  00F3               	movwf	??_ADC_Init+1
  8010     0810  3030               	movlw	48
  8011     0811  00F2               	movwf	??_ADC_Init
  8012     0812                     u3347:
  8013     0812  0BF2               	decfsz	??_ADC_Init,f
  8014     0813  2812               	goto	u3347
  8015     0814  0BF3               	decfsz	??_ADC_Init+1,f
  8016     0815  2812               	goto	u3347
  8017     0816  0000               	nop
  8018     0817                     l2867:
  8019                           
  8020                           ;adc.c: 28:     ADCON1bits.ADFM = 1;
  8021     0817  1683               	bsf	3,5	;RP0=1, select bank1
  8022     0818  1303               	bcf	3,6	;RP1=0, select bank1
  8023     0819  179F               	bsf	31,7	;volatile
  8024     081A                     l2869:
  8025                           
  8026                           ;adc.c: 31:     ADCON0bits.ADON = 1;
  8027     081A  1283               	bcf	3,5	;RP0=0, select bank0
  8028     081B  1303               	bcf	3,6	;RP1=0, select bank0
  8029     081C  141F               	bsf	31,0	;volatile
  8030     081D                     l455:
  8031     081D  0008               	return
  8032     081E                     __end_of_ADC_Init:
  8033                           
  8034                           	psect	text36
  8035     0894                     __ptext36:	
  8036 ;; *************** function _ISR *****************
  8037 ;; Defined at:
  8038 ;;		line 29 in file "interrupts.c"
  8039 ;; Parameters:    Size  Location     Type
  8040 ;;		None
  8041 ;; Auto vars:     Size  Location     Type
  8042 ;;		None
  8043 ;; Return value:  Size  Location     Type
  8044 ;;                  1    wreg      void 
  8045 ;; Registers used:
  8046 ;;		wreg, status,2, status,0
  8047 ;; Tracked objects:
  8048 ;;		On entry : 0/0
  8049 ;;		On exit  : 0/0
  8050 ;;		Unchanged: 0/0
  8051 ;; Data sizes:     COMMON   BANK0   BANK1   BANK3   BANK2
  8052 ;;      Params:         0       0       0       0       0
  8053 ;;      Locals:         0       0       0       0       0
  8054 ;;      Temps:          2       0       0       0       0
  8055 ;;      Totals:         2       0       0       0       0
  8056 ;;Total ram usage:        2 bytes
  8057 ;; Hardware stack levels used: 1
  8058 ;; This function calls:
  8059 ;;		Nothing
  8060 ;; This function is called by:
  8061 ;;		Interrupt level 1
  8062 ;; This function uses a non-reentrant model
  8063 ;;
  8064                           
  8065     0894                     _ISR:	
  8066                           ;psect for function _ISR
  8067                           
  8068     0894                     i1l2945:
  8069                           
  8070                           ;interrupts.c: 38:     if (TMR0IE && TMR0IF)
  8071     0894  1E8B               	btfss	11,5	;volatile
  8072     0895  2897               	goto	u230_21
  8073     0896  2898               	goto	u230_20
  8074     0897                     u230_21:
  8075     0897  28C1               	goto	i1l139
  8076     0898                     u230_20:
  8077     0898                     i1l2947:
  8078     0898  1D0B               	btfss	11,2	;volatile
  8079     0899  289B               	goto	u231_21
  8080     089A  289C               	goto	u231_20
  8081     089B                     u231_21:
  8082     089B  28C1               	goto	i1l139
  8083     089C                     u231_20:
  8084     089C                     i1l2949:
  8085                           
  8086                           ;interrupts.c: 39:     {;interrupts.c: 40:         g_timer_led_blink++;
  8087     089C  3001               	movlw	1
  8088     089D  07FA               	addwf	_g_timer_led_blink,f	;volatile
  8089     089E  1803               	skipnc
  8090     089F  0AFB               	incf	_g_timer_led_blink+1,f	;volatile
  8091     08A0  3000               	movlw	0
  8092     08A1  07FB               	addwf	_g_timer_led_blink+1,f	;volatile
  8093                           
  8094                           ;interrupts.c: 41:         if(g_timer_led_blink>=3906)
  8095     08A2  300F               	movlw	15
  8096     08A3  027B               	subwf	_g_timer_led_blink+1,w	;volatile
  8097     08A4  3042               	movlw	66
  8098     08A5  1903               	skipnz
  8099     08A6  027A               	subwf	_g_timer_led_blink,w	;volatile
  8100     08A7  1C03               	skipc
  8101     08A8  28AA               	goto	u232_21
  8102     08A9  28AB               	goto	u232_20
  8103     08AA                     u232_21:
  8104     08AA  28C0               	goto	i1l2961
  8105     08AB                     u232_20:
  8106     08AB                     i1l2951:
  8107                           
  8108                           ;interrupts.c: 42:         {;interrupts.c: 43:             if(g_flag)
  8109     08AB  1283               	bcf	3,5	;RP0=0, select bank0
  8110     08AC  1303               	bcf	3,6	;RP1=0, select bank0
  8111     08AD  0868               	movf	_g_flag,w	;volatile
  8112     08AE  0469               	iorwf	_g_flag+1,w	;volatile
  8113     08AF  1903               	btfsc	3,2
  8114     08B0  28B2               	goto	u233_21
  8115     08B1  28B3               	goto	u233_20
  8116     08B2                     u233_21:
  8117     08B2  28B8               	goto	i1l137
  8118     08B3                     u233_20:
  8119     08B3                     i1l2953:
  8120                           
  8121                           ;interrupts.c: 44:             {;interrupts.c: 45:                 PORTBbits.RB3=1;
  8122     08B3  1586               	bsf	6,3	;volatile
  8123                           
  8124                           ;interrupts.c: 46:                 PORTBbits.RB2=0;
  8125     08B4  1106               	bcf	6,2	;volatile
  8126     08B5                     i1l2955:
  8127                           
  8128                           ;interrupts.c: 47:                 g_flag=0;
  8129     08B5  01E8               	clrf	_g_flag	;volatile
  8130     08B6  01E9               	clrf	_g_flag+1	;volatile
  8131                           
  8132                           ;interrupts.c: 49:             }else
  8133     08B7  28BE               	goto	i1l2959
  8134     08B8                     i1l137:
  8135                           
  8136                           ;interrupts.c: 50:             {;interrupts.c: 51:                 PORTBbits.RB3=0;
  8137     08B8  1186               	bcf	6,3	;volatile
  8138                           
  8139                           ;interrupts.c: 52:                 PORTBbits.RB2=1;
  8140     08B9  1506               	bsf	6,2	;volatile
  8141     08BA                     i1l2957:
  8142                           
  8143                           ;interrupts.c: 53:                 g_flag=1;
  8144     08BA  3001               	movlw	1
  8145     08BB  00E8               	movwf	_g_flag	;volatile
  8146     08BC  3000               	movlw	0
  8147     08BD  00E9               	movwf	_g_flag+1	;volatile
  8148     08BE                     i1l2959:
  8149                           
  8150                           ;interrupts.c: 56:             g_timer_led_blink=0;
  8151     08BE  01FA               	clrf	_g_timer_led_blink	;volatile
  8152     08BF  01FB               	clrf	_g_timer_led_blink+1	;volatile
  8153     08C0                     i1l2961:
  8154                           
  8155                           ;interrupts.c: 59:         TMR0IF=0;
  8156     08C0  110B               	bcf	11,2	;volatile
  8157     08C1                     i1l139:
  8158     08C1  0871               	movf	??_ISR+1,w
  8159     08C2  008A               	movwf	10
  8160     08C3  0E70               	swapf	??_ISR,w
  8161     08C4  0083               	movwf	3
  8162     08C5  0EFE               	swapf	btemp,f
  8163     08C6  0E7E               	swapf	btemp,w
  8164     08C7  0009               	retfie
  8165     08C8                     __end_of_ISR:
  8166     0002                     ___latbits      equ	2
  8167     007E                     btemp           set	126	;btemp
  8168     007E                     wtemp0          set	126
  8169                           
  8170                           	psect	intentry
  8171     0004                     __pintentry:	
  8172                           ;incstack = 0
  8173                           ; Regs used in _ISR: [wreg+status,2+status,0]
  8174                           
  8175     0004                     interrupt_function:
  8176     007E                     saved_w         set	btemp
  8177     0004  00FE               	movwf	btemp
  8178     0005  0E03               	swapf	3,w
  8179     0006  00F0               	movwf	??_ISR
  8180     0007  080A               	movf	10,w
  8181     0008  00F1               	movwf	??_ISR+1
  8182     0009  120A  158A  2894   	ljmp	_ISR
  8183                           
  8184                           	psect	config
  8185                           
  8186                           ;Config register CONFIG1 @ 0x2007
  8187                           ;	Oscillator Selection bits
  8188                           ;	FOSC = INTRC_NOCLKOUT, INTOSCIO oscillator: I/O function on RA6/OSC2/CLKOUT pin, I/O f
      +                          unction on RA7/OSC1/CLKIN
  8189                           ;	Watchdog Timer Enable bit
  8190                           ;	WDTE = OFF, WDT disabled and can be enabled by SWDTEN bit of the WDTCON register
  8191                           ;	Power-up Timer Enable bit
  8192                           ;	PWRTE = OFF, PWRT disabled
  8193                           ;	RE3/MCLR pin function select bit
  8194                           ;	MCLRE = ON, RE3/MCLR pin function is MCLR
  8195                           ;	Code Protection bit
  8196                           ;	CP = OFF, Program memory code protection is disabled
  8197                           ;	Data Code Protection bit
  8198                           ;	CPD = OFF, Data memory code protection is disabled
  8199                           ;	Brown Out Reset Selection bits
  8200                           ;	BOREN = OFF, BOR disabled
  8201                           ;	Internal External Switchover bit
  8202                           ;	IESO = OFF, Internal/External Switchover mode is disabled
  8203                           ;	Fail-Safe Clock Monitor Enabled bit
  8204                           ;	FCMEN = OFF, Fail-Safe Clock Monitor is disabled
  8205                           ;	Low Voltage Programming Enable bit
  8206                           ;	LVP = OFF, RB3 pin has digital I/O, HV on MCLR must be used for programming
  8207                           ;	In-Circuit Debugger Mode bit
  8208                           ;	DEBUG = 0x1, unprogrammed default
  8209     2007                     	org	8199
  8210     2007  20F4               	dw	8436
  8211                           
  8212                           ;Config register CONFIG2 @ 0x2008
  8213                           ;	Brown-out Reset Selection bit
  8214                           ;	BOR4V = BOR40V, Brown-out Reset set to 4.0V
  8215                           ;	Flash Program Memory Self Write Enable bits
  8216                           ;	WRT = OFF, Write protection off
  8217     2008                     	org	8200
  8218     2008  3FFF               	dw	16383

Data Sizes:
    Strings     394
    Constant    61
    Data        0
    BSS         41
    Persistent  0
    Stack       0

Auto Spaces:
    Space          Size  Autos    Used
    COMMON           14     10      12
    BANK0            80     68      75
    BANK1            80     20      52
    BANK3            96      0       0
    BANK2            96      0       0

Pointer List with Targets:

    AutoFox_INA226_ConfigureNumSampleAveraging@this	PTR struct AutoFox_INA226 size(2) Largest target is 14
		 -> main@ina226(BANK1[14]), 

    AutoFox_INA226_ConfigureVoltageConversionTime@this	PTR struct AutoFox_INA226 size(2) Largest target is 14
		 -> main@ina226(BANK1[14]), 

    AutoFox_INA226_Constructor@this	PTR struct AutoFox_INA226 size(2) Largest target is 14
		 -> main@ina226(BANK1[14]), 

    AutoFox_INA226_GetBusVoltage_V@this	PTR struct AutoFox_INA226 size(2) Largest target is 14
		 -> main@ina226(BANK1[14]), 

    AutoFox_INA226_Init@this	PTR struct AutoFox_INA226 size(2) Largest target is 14
		 -> main@ina226(BANK1[14]), 

    AutoFox_INA226_ReadRegister@aValue_p	PTR unsigned short  size(2) Largest target is 14
		 -> AutoFox_INA226_ConfigureAlertPinTrigger@theMaskEnableRegister(COMMON[2]), AutoFox_INA226_GetBusVoltage_V@theRegisterValue(BANK0[4]), AutoFox_INA226_GetCurrent_uA@theRegisterValue(COMMON[2]), AutoFox_INA226_GetPower_uW@theRegisterValue(COMMON[2]), 
		 -> AutoFox_INA226_GetShuntVoltage_uV@theRegisterValue(COMMON[2]), AutoFox_INA226_Init@theINA226_ID(BANK0[2]), AutoFox_INA226_ResetAlertPin@theTriggerCause(COMMON[2]), main@ina226(BANK1[14]), 

    AutoFox_INA226_ReadRegister@this	PTR struct AutoFox_INA226 size(2) Largest target is 14
		 -> main@ina226(BANK1[14]), 

    AutoFox_INA226_setupCalibration@this	PTR struct AutoFox_INA226 size(2) Largest target is 14
		 -> main@ina226(BANK1[14]), 

    AutoFox_INA226_WriteRegister@this	PTR struct AutoFox_INA226 size(2) Largest target is 14
		 -> main@ina226(BANK1[14]), 

    fputc@fp	PTR struct _IO_FILE size(1) Largest target is 0
		 -> NULL(NULL[0]), 

    fputc@fp$.$buffer	PTR unsigned char  size(1) Largest target is 0

    fputc@fp$.$source	PTR const unsigned char  size(1) Largest target is 0

    printf@ap	PTR void [1] size(1) Largest target is 2
		 -> ?_printf(BANK0[2]), 

    printf@fmt	PTR const unsigned char  size(2) Largest target is 37
		 -> STR_1(CODE[34]), STR_17(CODE[29]), STR_18(CODE[37]), STR_2(CODE[37]), 
		 -> STR_3(CODE[18]), STR_4(CODE[19]), STR_5(CODE[18]), STR_6(CODE[19]), 

    S1550$buffer	PTR unsigned char  size(1) Largest target is 0

    S1550$source	PTR const unsigned char  size(1) Largest target is 0

    SendErrorStatus@errorMsg	PTR unsigned char  size(2) Largest target is 26
		 -> STR_10(CODE[26]), STR_11(CODE[16]), STR_12(CODE[26]), STR_13(CODE[17]), 
		 -> STR_14(CODE[19]), STR_15(CODE[23]), STR_16(CODE[17]), STR_7(CODE[6]), 
		 -> STR_8(CODE[8]), STR_9(CODE[25]), 

    vfpfcnvrt@ap	PTR PTR void  size(1) Largest target is 1
		 -> printf@ap(BANK0[1]), 

    vfpfcnvrt@cp	PTR unsigned char  size(2) Largest target is 37
		 -> STR_1(CODE[34]), STR_17(CODE[29]), STR_18(CODE[37]), STR_2(CODE[37]), 
		 -> STR_3(CODE[18]), STR_4(CODE[19]), STR_5(CODE[18]), STR_6(CODE[19]), 

    vfpfcnvrt@fmt	PTR PTR unsigned char  size(1) Largest target is 2
		 -> vfprintf@cfmt(BANK0[2]), 

    vfpfcnvrt@fp	PTR struct _IO_FILE size(1) Largest target is 0
		 -> NULL(NULL[0]), 

    vfprintf@ap	PTR PTR void  size(1) Largest target is 1
		 -> printf@ap(BANK0[1]), 

    vfprintf@cfmt	PTR unsigned char  size(2) Largest target is 37
		 -> STR_1(CODE[34]), STR_17(CODE[29]), STR_18(CODE[37]), STR_2(CODE[37]), 
		 -> STR_3(CODE[18]), STR_4(CODE[19]), STR_5(CODE[18]), STR_6(CODE[19]), 

    vfprintf@fmt	PTR const unsigned char  size(2) Largest target is 37
		 -> STR_1(CODE[34]), STR_17(CODE[29]), STR_18(CODE[37]), STR_2(CODE[37]), 
		 -> STR_3(CODE[18]), STR_4(CODE[19]), STR_5(CODE[18]), STR_6(CODE[19]), 

    vfprintf@fp	PTR struct _IO_FILE size(1) Largest target is 0
		 -> NULL(NULL[0]), 


Critical Paths under _main in COMMON

    _main->_AutoFox_INA226_ConfigureNumSampleAveraging
    _main->_SendErrorStatus
    _SendErrorStatus->_SendUART_debug
    _vfpfcnvrt->___awdiv
    _vfpfcnvrt->_abs
    _fputc->_putch
    _putch->_SendUART_debug
    _abs->___awmod
    _ReadVoltageAverage->___lmul
    _AutoFox_INA226_setupCalibration->___lmul
    _AutoFox_INA226_CheckI2cAddress->_I2C_Master_Write
    _AutoFox_INA226_GetBusVoltage_V->___lmul
    ___lldiv->___lmul
    _AutoFox_INA226_ConfigureVoltageConversionTime->_AutoFox_INA226_WriteRegister
    _AutoFox_INA226_ConfigureNumSampleAveraging->_AutoFox_INA226_WriteRegister
    _AutoFox_INA226_WriteRegister->_I2C_Master_Write
    _AutoFox_INA226_ReadRegister->_I2C_Master_Read

Critical Paths under _ISR in COMMON

    None.

Critical Paths under _main in BANK0

    _main->_AutoFox_INA226_Init
    _DisplayVoltage->_ReadVoltageAverage
    _printf->_vfprintf
    _vfprintf->_vfpfcnvrt
    _vfpfcnvrt->_fputc
    _ReadVoltageAverage->___lldiv
    _AutoFox_INA226_Init->_AutoFox_INA226_setupCalibration
    _AutoFox_INA226_setupCalibration->___lldiv
    _AutoFox_INA226_GetBusVoltage_V->___lldiv
    ___lldiv->___lmul
    _AutoFox_INA226_ConfigureVoltageConversionTime->_AutoFox_INA226_ReadRegister
    _AutoFox_INA226_ConfigureNumSampleAveraging->_AutoFox_INA226_ReadRegister

Critical Paths under _ISR in BANK0

    None.

Critical Paths under _main in BANK1

    None.

Critical Paths under _ISR in BANK1

    None.

Critical Paths under _main in BANK3

    None.

Critical Paths under _ISR in BANK3

    None.

Critical Paths under _main in BANK2

    None.

Critical Paths under _ISR in BANK2

    None.

Call Graph Tables:

 ---------------------------------------------------------------------------------
 (Depth) Function   	        Calls       Base Space   Used Autos Params    Refs
 ---------------------------------------------------------------------------------
 (0) _main                                                23    23      0   14616
                                             65 BANK0      3     3      0
                                              0 BANK1     20    20      0
                           _ADC_Init
_AutoFox_INA226_ConfigureNumSampleAv
_AutoFox_INA226_ConfigureVoltageConv
         _AutoFox_INA226_Constructor
     _AutoFox_INA226_GetBusVoltage_V
                _AutoFox_INA226_Init
                     _DisplayVoltage
                        _Global_Init
                           _I2C_Init
                     _Interrupt_Init
                    _SendErrorStatus
                            ___lwdiv
                            ___lwmod
                             _printf
 ---------------------------------------------------------------------------------
 (1) _SendErrorStatus                                      5     5      0     181
                                              5 COMMON     5     5      0
                     _SendUART_debug
 ---------------------------------------------------------------------------------
 (1) _Interrupt_Init                                       0     0      0       0
 ---------------------------------------------------------------------------------
 (1) _I2C_Init                                             0     0      0       0
 ---------------------------------------------------------------------------------
 (1) _Global_Init                                          0     0      0       0
 ---------------------------------------------------------------------------------
 (1) _DisplayVoltage                                       4     2      2    3721
                                             44 BANK0      4     2      2
                 _ReadVoltageAverage
                            ___lwdiv
                            ___lwmod
                             _printf
 ---------------------------------------------------------------------------------
 (1) _printf                                               9     3      6    2128
                                             26 BANK0      7     1      6
                            ___lwdiv (ARG)
                            ___lwmod (ARG)
                           _vfprintf
 ---------------------------------------------------------------------------------
 (2) _vfprintf                                             6     2      4    2023
                                             20 BANK0      6     2      4
                          _vfpfcnvrt
 ---------------------------------------------------------------------------------
 (3) _vfpfcnvrt                                           15    12      3    1823
                                              5 BANK0     15    12      3
                            ___awdiv
                            ___awmod
                                _abs
                              _fputc
 ---------------------------------------------------------------------------------
 (4) _fputc                                                8     5      3     356
                                              6 COMMON     3     0      3
                                              0 BANK0      5     5      0
                              _putch
 ---------------------------------------------------------------------------------
 (5) _putch                                                1     1      0     126
                                              5 COMMON     1     1      0
                     _SendUART_debug
 ---------------------------------------------------------------------------------
 (4) _abs                                                  4     2      2      96
                                              8 COMMON     2     0      2
                                              0 BANK0      2     2      0
                            ___awmod (ARG)
 ---------------------------------------------------------------------------------
 (4) ___awmod                                              6     2      4     298
                                              2 COMMON     6     2      4
 ---------------------------------------------------------------------------------
 (4) ___awdiv                                              8     4      4     302
                                              2 COMMON     8     4      4
 ---------------------------------------------------------------------------------
 (1) ___lwmod                                              5     1      4     173
                                              2 COMMON     5     1      4
 ---------------------------------------------------------------------------------
 (1) ___lwdiv                                              7     3      4     170
                                              2 COMMON     7     3      4
 ---------------------------------------------------------------------------------
 (2) _ReadVoltageAverage                                  25    23      2    1061
                                             19 BANK0     25    23      2
                _ADC_Read_ADC_Result
                            ___lldiv
                             ___lmul
 ---------------------------------------------------------------------------------
 (3) _ADC_Read_ADC_Result                                  4     2      2      23
                                              2 COMMON     4     2      2
 ---------------------------------------------------------------------------------
 (1) _AutoFox_INA226_Init                                 22    13      9    3591
                                             43 BANK0     22    13      9
     _AutoFox_INA226_CheckI2cAddress
        _AutoFox_INA226_ReadRegister
       _AutoFox_INA226_WriteRegister
    _AutoFox_INA226_setupCalibration
                     _SendUART_debug
 ---------------------------------------------------------------------------------
 (6) _SendUART_debug                                       3     3      0      97
                                              2 COMMON     3     3      0
 ---------------------------------------------------------------------------------
 (2) _AutoFox_INA226_setupCalibration                     24    16      8    1354
                                             19 BANK0     24    16      8
       _AutoFox_INA226_WriteRegister
                            ___lldiv
                             ___lmul
 ---------------------------------------------------------------------------------
 (2) _AutoFox_INA226_CheckI2cAddress                       3     3      0     102
                                              4 COMMON     3     3      0
                   _I2C_Master_Start
                    _I2C_Master_Stop
                   _I2C_Master_Write
 ---------------------------------------------------------------------------------
 (1) _AutoFox_INA226_GetBusVoltage_V                       6     4      2    1127
                                             19 BANK0      6     4      2
        _AutoFox_INA226_ReadRegister
                            ___lldiv
                             ___lmul
 ---------------------------------------------------------------------------------
 (3) ___lmul                                              13     5      8     202
                                              2 COMMON     8     0      8
                                              0 BANK0      5     5      0
 ---------------------------------------------------------------------------------
 (3) ___lldiv                                             14     6      8     289
                                              5 BANK0     14     6      8
                             ___lmul (ARG)
 ---------------------------------------------------------------------------------
 (1) _AutoFox_INA226_Constructor                           4     2      2     133
                                              2 COMMON     4     2      2
 ---------------------------------------------------------------------------------
 (1) _AutoFox_INA226_ConfigureVoltageConversionTime       11     7      4    1401
                                              9 BANK0     11     7      4
        _AutoFox_INA226_ReadRegister
       _AutoFox_INA226_WriteRegister
 ---------------------------------------------------------------------------------
 (1) _AutoFox_INA226_ConfigureNumSampleAveraging           9     5      4    1336
                                              9 COMMON     1     1      0
                                              9 BANK0      8     4      4
        _AutoFox_INA226_ReadRegister
       _AutoFox_INA226_WriteRegister
 ---------------------------------------------------------------------------------
 (3) _AutoFox_INA226_WriteRegister                        12     7      5     445
                                              4 COMMON     5     0      5
                                              0 BANK0      7     7      0
                   _I2C_Master_Start
                    _I2C_Master_Stop
                   _I2C_Master_Write
 ---------------------------------------------------------------------------------
 (2) _AutoFox_INA226_ReadRegister                          9     4      5     510
                                              0 BANK0      9     4      5
                    _I2C_Master_Read
                   _I2C_Master_Start
                    _I2C_Master_Stop
                   _I2C_Master_Write
 ---------------------------------------------------------------------------------
 (4) _I2C_Master_Write                                     2     0      2      55
                                              2 COMMON     2     0      2
                    _I2C_Master_Wait
 ---------------------------------------------------------------------------------
 (4) _I2C_Master_Stop                                      0     0      0       0
                    _I2C_Master_Wait
 ---------------------------------------------------------------------------------
 (4) _I2C_Master_Start                                     0     0      0       0
                    _I2C_Master_Wait
 ---------------------------------------------------------------------------------
 (3) _I2C_Master_Read                                      5     5      0      81
                                              2 COMMON     5     5      0
                    _I2C_Master_Wait
 ---------------------------------------------------------------------------------
 (5) _I2C_Master_Wait                                      0     0      0       0
 ---------------------------------------------------------------------------------
 (1) _ADC_Init                                             2     2      0       0
                                              2 COMMON     2     2      0
 ---------------------------------------------------------------------------------
 Estimated maximum stack depth 6
 ---------------------------------------------------------------------------------
 (Depth) Function   	        Calls       Base Space   Used Autos Params    Refs
 ---------------------------------------------------------------------------------
 (8) _ISR                                                  2     2      0       0
                                              0 COMMON     2     2      0
 ---------------------------------------------------------------------------------
 Estimated maximum stack depth 8
 ---------------------------------------------------------------------------------

 Call Graph Graphs:

 _main (ROOT)
   _ADC_Init
   _AutoFox_INA226_ConfigureNumSampleAveraging
     _AutoFox_INA226_ReadRegister
       _I2C_Master_Read
         _I2C_Master_Wait
       _I2C_Master_Start
         _I2C_Master_Wait
       _I2C_Master_Stop
         _I2C_Master_Wait
       _I2C_Master_Write
         _I2C_Master_Wait
     _AutoFox_INA226_WriteRegister
       _I2C_Master_Start
       _I2C_Master_Stop
       _I2C_Master_Write
   _AutoFox_INA226_ConfigureVoltageConversionTime
     _AutoFox_INA226_ReadRegister
     _AutoFox_INA226_WriteRegister
   _AutoFox_INA226_Constructor
   _AutoFox_INA226_GetBusVoltage_V
     _AutoFox_INA226_ReadRegister
     ___lldiv
       ___lmul (ARG)
     ___lmul
   _AutoFox_INA226_Init
     _AutoFox_INA226_CheckI2cAddress
       _I2C_Master_Start
       _I2C_Master_Stop
       _I2C_Master_Write
     _AutoFox_INA226_ReadRegister
     _AutoFox_INA226_WriteRegister
     _AutoFox_INA226_setupCalibration
       _AutoFox_INA226_WriteRegister
       ___lldiv
       ___lmul
     _SendUART_debug
   _DisplayVoltage
     _ReadVoltageAverage
       _ADC_Read_ADC_Result
       ___lldiv
       ___lmul
     ___lwdiv
     ___lwmod
     _printf
       ___lwdiv (ARG)
       ___lwmod (ARG)
       _vfprintf (ARG)
         _vfpfcnvrt
           ___awdiv
           ___awmod
           _abs
             ___awmod (ARG)
           _fputc
             _putch
               _SendUART_debug
   _Global_Init
   _I2C_Init
   _Interrupt_Init
   _SendErrorStatus
     _SendUART_debug
   ___lwdiv
   ___lwmod
   _printf

 _ISR (ROOT)

Address spaces:
Name               Size   Autos  Total    Usage
BITCOMMON           14      0       0      0.0%
BITBANK0            80      0       0      0.0%
BITBANK1            80      0       0      0.0%
BITBANK3            96      0       0      0.0%
BITBANK2            96      0       0      0.0%
COMMON              14     10      12     85.7%
BANK0               80     68      75     93.8%
BANK1               80     20      52     65.0%
BANK3               96      0       0      0.0%
BANK2               96      0       0      0.0%
STACK                0      0       0      0.0%
DATA                 0      0     139      0.0%


Microchip Technology PIC Macro Assembler V2.50 build 20240725155939 
Symbol Table                                                                                   Thu Nov 14 23:27:52 2024

                                                                 ??_Interrupt_Init 0072  
                                                                 ??_DisplayVoltage 007A  
                                                            __end_of_INA226_DIE_ID 0144  
                                                            __end_of_INA226_CONFIG 014D  
                                                             __end_of_INA226_POWER 014A  
                                                                                pc 0002  
                                                                      _SSPSTATbits 0094  
                                                                               l46 0427  
                                                                               l48 045E  
                                                                     ___awdiv@sign 0077  
                                                          __end_of_INA226_DIE_ID_K 013C  
                                                           __end_of_INA226_CURRENT 0149  
                                                                               fsr 0004  
                                                                    ??_Global_Init 0072  
                                                            DisplayVoltage@voltage 004E  
                                                       __end_of_INA226_BUS_VOLTAGE 014B  
                                                                              l111 00F9  
                                                                              l210 0985  
                                                                              l301 0EED  
                                                                              l213 1774  
                                                                              l126 17AE  
                                                                              l207 0978  
                                                                              l208 0964  
                                                                              l160 179E  
                                                                              l401 0768  
                                                                              l402 07F7  
                                                                              l330 0869  
                                                                              l163 17E5  
                                                                              l411 0CDE  
                                                                              l172 1786  
                                                                              l412 0D5A  
                                                                              l166 17FF  
                                                                              l334 00CF  
                                                                              l326 0759  
                                                                              l175 1790  
                                                                              l343 0A1B  
                                                                              l440 0CCF  
                                                                              l169 177D  
                                                                              l337 0B23  
                                                                              l178 0893  
                                                                              l461 17D1  
                                                                              l470 060C  
                                                                              l455 081D  
                                                                              l296 0B81  
                                                                              l458 17C3  
                                                                              l714 0BE4  
                                                                              l475 0DE5  
                                                                              l575 09CD  
                                                                              l727 0A72  
                                                                              l841 0941  
                                                                              l851 08FF  
                                                                              l597 0C4A  
                                                                              _ISR 0894  
                                                               SendErrorStatus@err 0077  
                                                                              _abs 17D2  
                                                        __end_of_cAlertPinModeMask 0134  
                                                                              fsr0 0004  
                                                                              indf 0000  
                                                                     ___awmod@sign 0077  
                                                                             ?_ISR 0070  
                                                           ReadVoltageAverage@vref 0112  
                                                                             l1024 17BF  
                                                                             ?_abs 0078  
                                                                             l1062 0FFF  
                                                                             l2201 0BB1  
                                                                             l2203 0BC2  
                                                                             l2211 0BD6  
                                                                             l1075 17E4  
                                                                             l1068 0842  
                                                                             l2141 0950  
                                                                             l2213 0BDB  
                                                                             l2205 0BC8  
                                                                             l2221 0A1D  
                                                                             l2151 0967  
                                                                             l2215 0BE0  
                                                                             l2207 0BC9  
                                                                             l2231 0A31  
                                                                             l2223 0A21  
                                                                             l1087 0AC9  
                                                                             l3201 178C  
                                                                             l2153 0970  
                                                                             l2137 0943  
                                                                             l2209 0BD0  
                                                                             l2241 0A47  
                                                                             l2233 0A37  
                                                                             l2225 0A26  
                                                                             l2161 176E  
                                                                             l2155 0972  
                                                                             l2147 0951  
                                                                             l2139 0947  
                                                                             l2251 0A69  
                                                                             l2243 0A51  
                                                                             l2235 0A3A  
                                                                             l2227 0A28  
                                                                             l2219 0A1C  
                                                                             l3211 0F16  
                                                                             l3203 0EEE  
                                                                             l3301 09B4  
                                                                             l2157 097B  
                                                                             l2149 0960  
                                                                             l2181 0B8C  
                                                                             l2253 0A6E  
                                                                             l2245 0A57  
                                                                             l2237 0A41  
                                                                             l2229 0A2C  
                                                                             l2261 0A7D  
                                                                             l3221 0F5D  
                                                                             l3213 0F1E  
                                                                             l3205 0F06  
                                                                             l3311 0BFA  
                                                                             l3303 09C5  
                                                                             l2159 0984  
                                                                             l2191 0B9B  
                                                                             l2183 0B8E  
                                                                             l2175 0B82  
                                                                             l2247 0A5E  
                                                                             l2239 0A43  
                                                                             l2263 0A84  
                                                                             l3231 0FA0  
                                                                             l3223 0F5F  
                                                                             l3215 0F2C  
                                                                             l3207 0F0E  
                                                                             l3321 0C32  
                                                                             l3313 0C05  
                                                                             l3401 073C  
                                                                             l2193 0BA1  
                                                                             l2185 0B92  
                                                                             l2177 0B83  
                                                                             l2249 0A64  
                                                                             l2265 0A95  
                                                                             l2257 0A73  
                                                                             l3241 0FCA  
                                                                             l3233 0FA5  
                                                                             l3225 0F66  
                                                                             l3217 0F3A  
                                                                             l3209 0F12  
                                                                             l2601 00DE  
                                                                             l3171 17E5  
                                                                             l3323 0C33  
                                                                             l3315 0C09  
                                                                             l3307 0BE5  
                                                                             l2531 0902  
                                                                             l2195 0BA4  
                                                                             l2187 0B97  
                                                                             l2179 0B87  
                                                                             l2267 0AB2  
                                                                             l2259 0A78  
                                                                             l3235 0FAA  
                                                                             l3243 0FCE  
                                                                             l3227 0F85  
                                                                             l3219 0F48  
                                                                             l3331 081E  
                                                                             l2611 00E3  
                                                                             l2603 00DF  
                                                                             l3181 17FB  
                                                                             l3173 17EB  
                                                                             l3261 0881  
                                                                             l3325 0C3C  
                                                                             l3317 0C12  
                                                                             l3309 0BF7  
                                                                             l3501 0EA9  
                                                                             l2381 17C0  
                                                                             l3421 04CB  
                                                                             l3413 0495  
                                                                             l3405 047A  
                                                                             l2541 0918  
                                                                             l2533 0908  
                                                                             l2197 0BAB  
                                                                             l2189 0B99  
                                                                             l3237 0FAF  
                                                                             l3229 0F9A  
                                                                             l3245 0FD5  
                                                                             l3333 0825  
                                                                             l3341 17AF  
                                                                             l2621 00E8  
                                                                             l2613 00E4  
                                                                             l2605 00E0  
                                                                             l3175 17EF  
                                                                             l3263 0886  
                                                                             l3255 086B  
                                                                             l3191 1775  
                                                                             l3271 0ACA  
                                                                             l3319 0C24  
                                                                             l3327 0C42  
                                                                             l3351 0856  
                                                                             l3511 0EE3  
                                                                             l3503 0EC4  
                                                                             l2383 17C7  
                                                                             l3431 05E9  
                                                                             l3423 04D1  
                                                                             l3415 04A0  
                                                                             l3407 0494  
                                                                             l2543 0929  
                                                                             l2535 090B  
                                                                             l2551 093D  
                                                                             l2199 0BAD  
                                                                             l3183 17D2  
                                                                             l3239 0FB8  
                                                                             l3335 0830  
                                                                             l3343 17B3  
                                                                             l2631 00ED  
                                                                             l2623 00E9  
                                                                             l2615 00E5  
                                                                             l2607 00E1  
                                                                             l3177 17F3  
                                                                             l3265 0891  
                                                                             l3257 0870  
                                                                             l3193 177A  
                                                                             l3281 0AF3  
                                                                             l3273 0ACE  
                                                                             l3521 075A  
                                                                             l3353 085C  
                                                                             l3361 0863  
                                                                             l3441 0DFC  
                                                                             l3425 0589  
                                                                             l3417 04BD  
                                                                             l2545 092F  
                                                                             l2537 0912  
                                                                             l2529 0900  
                                                                             l2561 08D8  
                                                                             l3185 17D6  
                                                                             l3249 0FE0  
                                                                             l3337 0840  
                                                                             l2641 00F2  
                                                                             l2633 00EE  
                                                                             l2625 00EA  
                                                                             l2617 00E6  
                                                                             l2609 00E2  
                                                                             l3601 02E7  
                                                                             l3179 17F7  
                                                                             l3267 0892  
                                                                             l3259 0878  
                                                                             l3195 177E  
                                                                             l3371 0036  
                                                                             l3283 0B01  
                                                                             l3275 0AD0  
                                                                             l3523 0766  
                                                                             l3363 0868  
                                                                             l3355 0861  
                                                                             l3347 0844  
                                                                             l3515 0EE5  
                                                                             l3507 0EC6  
                                                                             l3451 0E1D  
                                                                             l3435 0DE6  
                                                                             l3427 05AB  
                                                                             l3419 04C7  
                                                                             l2547 0930  
                                                                             l2539 0914  
                                                                             l2571 08F5  
                                                                             l2563 08DA  
                                                                             l2555 08C8  
                                                                             l3187 17D7  
                                                                             l2643 00F3  
                                                                             l2635 00EF  
                                                                             l2627 00EB  
                                                                             l2619 00E7  
                                                                             l2651 179F  
                                                                             l3611 02F6  
                                                                             l3603 02EC  
                                                                             l3197 1783  
                                                                             l3381 008A  
                                                                             l3373 0052  
                                                                             l3285 0B0F  
                                                                             l3277 0AD2  
                                                                             l3541 0799  
                                                                             l3533 077B  
                                                                             l2581 0B39  
                                                                             l3293 0986  
                                                                             l3349 0849  
                                                                             l3517 0EEC  
                                                                             l3509 0EDE  
                                                                             l3461 0E2A  
                                                                             l3445 0DFE  
                                                                             l3437 0DEE  
                                                                             l3429 05CA  
                                                                             l2549 0937  
                                                                             l2565 08DE  
                                                                             l2557 08CE  
                                                                             l2573 08FB  
                                                                             l2645 00F4  
                                                                             l2637 00F0  
                                                                             l2629 00EC  
                                                                             l2661 17AC  
                                                                             l2653 17A3  
                                                                             l3621 0340  
                                                                             l3613 02F7  
                                                                             l3605 02F1  
                                                                             l3199 1787  
                                                                             l3383 009E  
                                                                             l3375 0060  
                                                                             l3367 0027  
                                                                             l3287 0B1D  
                                                                             l3279 0AD7  
                                                                             l3551 0CD0  
                                                                             l3543 07AB  
                                                                             l3535 0792  
                                                                             l3527 076C  
                                                                             l2583 0B49  
                                                                             l3295 0990  
                                                                             l3471 0E4C  
                                                                             l3463 0E3C  
                                                                             l3455 0E1F  
                                                                             l3447 0E04  
                                                                             l3439 0DF7  
                                                                             l2567 08E8  
                                                                             l2559 08D1  
                                                                             l2647 00F5  
                                                                             l2639 00F1  
                                                                             l2591 00D4  
                                                                             l2671 179C  
                                                                             l2663 17AD  
                                                                             l2655 17A5  
                                                                             l3631 038F  
                                                                             l3623 0357  
                                                                             l3615 0313  
                                                                             l3607 02F4  
                                                                             l3385 00B5  
                                                                             l3377 0065  
                                                                             l3369 0031  
                                                                             l3289 0B22  
                                                                             l3553 0CDC  
                                                                             l3545 07C9  
                                                                             l3537 0797  
                                                                             l3529 0779  
                                                                             l2585 0B59  
                                                                             l2577 0B24  
                                                                             l3297 0994  
                                                                             l3393 060D  
                                                                             l3481 0E73  
                                                                             l3465 0E41  
                                                                             l3457 0E28  
                                                                             l3449 0E18  
                                                                             l2569 08EE  
                                                                             l2649 00F8  
                                                                             l2593 00D5  
                                                                             l2673 179D  
                                                                             l2665 1791  
                                                                             l2657 17A6  
                                                                             l2761 0C4C  
                                                                             l3641 0428  
                                                                             l3633 03C5  
                                                                             l3617 0327  
                                                                             l3609 02F5  
                                                                             l3387 00C9  
                                                                             l3379 006A  
                                                                             l3571 0D0D  
                                                                             l3563 0CF1  
                                                                             l3547 07DB  
                                                                             l2587 0B6D  
                                                                             l2579 0B2A  
                                                                             l3299 09AB  
                                                                             l3395 06D3  
                                                                             l3475 0E4E  
                                                                             l2595 00D6  
                                                                             l2667 1794  
                                                                             l2659 17A9  
                                                                             l2771 0C61  
                                                                             l2763 0C4D  
                                                                             l3651 0468  
                                                                             l3643 0431  
                                                                             l3635 03FA  
                                                                             l3627 0364  
                                                                             l3619 033B  
                                                                             l2861 0806  
                                                                             l3389 00CE  
                                                                             l3573 0D21  
                                                                             l3565 0D06  
                                                                             l3557 0CE2  
                                                                             l3581 09D8  
                                                                             l3397 06EB  
                                                                             l3493 0E8D  
                                                                             l3485 0E75  
                                                                             l3477 0E5D  
                                                                             l3469 0E43  
                                                                             l2597 00DA  
                                                                             l2589 00D0  
                                                                             l2669 1798  
                                                                             l2781 0C7A  
                                                                             l2773 0C66  
                                                                             l2765 0C52  
                                                                             l3645 0453  
                                                                             l3637 041C  
                                                                             l3629 0379  
                                                                             l2863 0809  
                                                                             l3575 0D3E  
                                                                             l3567 0D0B  
                                                                             l3559 0CEF  
                                                                             l3583 09E7  
                                                                             l3399 06FD  
                                                                             l3495 0EA2  
                                                                             l3487 0E86  
                                                                             l3479 0E6E  
                                                                             l3591 0DAE  
                                                                             l2599 00DB  
                                                                             l2775 0C6B  
                                                                             l2767 0C57  
                                                                             l2791 0CBF  
                                                                             l3647 0454  
                                                                             l3639 041D  
                                                                             l2865 080E  
                                                                             l3497 0EA7  
                                                                             l3489 0E8B  
                                                                             l3593 0DDF  
                                                                             l2777 0C70  
                                                                             l2769 0C5C  
                                                                             l2785 0C7F  
                                                                             l3649 045F  
                                                                             l2867 0817  
                                                                             l2859 0800  
                                                                             l3579 09CE  
                                                                             l3587 0D5B  
                                                                             l2787 0CAB  
                                                                             l2779 0C75  
                                                                             l2869 081A  
                                                                             l3589 0D7C  
                                                                             l2789 0CB9  
                                                                             l3861 0C8C  
                                                                             l3597 02D9  
                                                                             l3863 0C91  
                                                                             l3599 02E2  
                                                              _ADC_Read_ADC_Result 17C0  
                                                                             STR_1 0199  
                                                                             STR_2 0174  
                                                                             STR_3 0275  
                                                                             STR_4 024F  
                                                                             STR_5 0287  
                                                                             STR_6 0262  
                                                                             STR_7 02D3  
                                                                             STR_8 02CB  
                                                                             STR_9 020C  
                                                                             u2010 08DE  
                                                                             u2011 08DD  
                                                                             u2020 08E8  
                                                                             u2021 08E7  
                                                                             u2005 08D2  
                                                                             u3000 076C  
                                                                             u2040 08FB  
                                                                             u3001 076B  
                                                                             u2041 08FA  
                                                                             u2025 08E4  
                                                                             u3010 0779  
                                                                             u1410 0BC2  
                                                                             u3011 0778  
                                                                             u2035 08EF  
                                                                             u1411 0BC1  
                                                                             u3020 0797  
                                                                             u1500 0A51  
                                                                             u3100 038F  
                                                                             u3021 0796  
                                                                             u1405 0BB2  
                                                                             u1501 0A50  
                                                                             u3101 038E  
                                                                             u1270 0960  
                                                                             u1430 0BD6  
                                                                             u1350 0B87  
                                                                             u2150 0CCF  
                                                                             u3110 041C  
                                                                             u3015 0775  
                                                                             u1271 095F  
                                                                             u1431 0BD5  
                                                                             u1415 0BBE  
                                                                             u1351 0B86  
                                                                             u2151 0CCE  
                                                                             u3111 041B  
                                                                             u3040 0CDC  
                                                                             u1280 0978  
                                                                             u1264 0957  
                                                                             u1440 0BDB  
                                                                             u1360 0B92  
                                                                             u1520 0A64  
                                                                             u3120 0453  
                                                                             u3041 0CDB  
                                                                             u1281 0977  
                                                                             u1265 0955  
                                                                             u1441 0BDA  
                                                                             u1425 0BCA  
                                                                             u1361 0B91  
                                                                             u1521 0A63  
                                                                             u1505 0A4D  
                                                                             u3121 0452  
                                                                             u3050 0CE2  
                                                                             u1370 0BA1  
                                                                             u1530 0A69  
                                                                             u1450 0A21  
                                                                             u3051 0CE1  
                                                                             u3035 07BE  
                                                                             u1371 0BA0  
                                                                             u1531 0A68  
                                                                             u1515 0A58  
                                                                             u1451 0A20  
                                                                             u3115 0418  
                                                                             u2500 17EB  
                                                                             u3060 0CEF  
                                                                             u1460 0A2C  
                                                                             u1540 0A78  
                                                                             u2501 17EA  
                                                                             u3061 0CEE  
                                                                             u1461 0A2B  
                                                                             u1541 0A77  
                                                                             u3125 044F  
                                                                             u2510 17EF  
                                                                             u3070 0D0B  
                                                                             u1710 17C7  
                                                                             u1390 0BB1  
                                                                             u1470 0A37  
                                                                             u1550 0A7D  
                                                                             u2511 17EE  
                                                                             u3071 0D0A  
                                                                             u1711 17C6  
                                                                             u1391 0BB0  
                                                                             u1471 0A36  
                                                                             u1551 0A7C  
                                                                             u2520 17F3  
                                                                             u1560 0A95  
                                                                             u2600 0F64  
                                                                             u2521 17F2  
                                                                             u3065 0CEB  
                                                                             u1385 0BA5  
                                                                             u1561 0A94  
                                                                             u2601 0F62  
                                                                             u2530 17F7  
                                                                             u1490 0A47  
                                                                             u1570 0AB2  
                                                                             u2610 0F65  
                                                                             u3090 0D7C  
                                                                             u2531 17F6  
                                                                             u3307 04C3  
                                                                             u1491 0A46  
                                                                             u1571 0AB1  
                                                                             u3091 0D7B  
                                                                             u2540 17FB  
                                                                             u2620 0FA0  
                                                                             u2541 17FA  
                                                                             u3085 0D27  
                                                                             u2701 099D  
                                                                             u3317 0949  
                                                                             u1485 0A3B  
                                                                             u2621 0F9F  
                                                                             u2550 17FF  
                                                                             u2702 09A4  
                                                                             u2630 0FA5  
                                                                             u2551 17FE  
                                                                             u2703 09AB  
                                                                             u3327 0969  
                                                                             u1575 0AAE  
                                                                             u2631 0FA4  
                                                                             u2800 0C42  
                                                                             u1920 0908  
                                                                             u2560 17D6  
                                                                             u2640 0FAA  
                                                                             u2801 0C41  
                                                                             u3337 097D  
                                                                             u1921 0907  
                                                                             u2561 17D5  
                                                                             u2641 0FA9  
                                                                             u2730 09C5  
                                                                             u2650 0FAF  
                                                                             u2570 0F06  
                                                                             u2810 0840  
                                                                             u3347 0812  
                                                                             u2731 09C4  
                                                                             u2715 09AD  
                                                                             u2651 0FAE  
                                                                             u2571 0F05  
                                                                             u2811 083F  
                                                                             u2740 0BF7  
                                                                             u2820 085C  
                                                                             u2900 0E1D  
                                                                             u1940 0918  
                                                                             u2660 0FD4  
                                                                             u2580 0F2C  
                                                                             u2741 0BF6  
                                                                             u2725 09B5  
                                                                             u2821 085B  
                                                                             u2901 0E1C  
                                                                             u1941 0917  
                                                                             u2661 0FD3  
                                                                             u2581 0F2B  
                                                                             u2670 088E  
                                                                             u2830 063D  
                                                                             u2910 0E28  
                                                                             u2590 0F3A  
                                                                             u2671 088A  
                                                                             u2831 063E  
                                                                             u2911 0E27  
                                                                             u1935 090C  
                                                                             u2591 0F39  
                                                                             u2760 0C09  
                                                                             u2840 06A7  
                                                                             u2832 0643  
                                                                             u2920 0E41  
                                                                             u1960 0929  
                                                                             u2761 0C08  
                                                                             u2833 0644  
                                                                             u2921 0E40  
                                                                             u1961 0928  
                                                                             u3297 0470  
                                                                             u2690 0994  
                                                                             u2850 06B1  
                                                                             u2930 0E4C  
                                                                             u2755 0BFC  
                                                                             u2691 0993  
                                                                             u2851 06B2  
                                                                             u2931 0E4B  
                                                                             u1955 0919  
                                                                             u2684 0891  
                                                                             u2780 0C24  
                                                                             u2852 06B7  
                                                                             u2940 0E73  
                                                                             u1980 093D  
                                                                             u2781 0C23  
                                                                             u2853 06B8  
                                                                             u2845 06A2  
                                                                             u2941 0E72  
                                                                             u2861 04AF  
                                                                             u1981 093C  
                                                                             u1965 0925  
                                                                             u2950 0E8B  
                                                                             u2870 04D1  
                                                                             u2862 04B6  
                                                                             u1990 08CE  
                                                                             u2775 0C0B  
                                                                             u2951 0E8A  
                                                                             u2871 04D0  
                                                                             u2863 04BD  
                                                                             u1975 0931  
                                                                             u1991 08CD  
                                                                             u2960 0EA7  
                                                                             u2880 0598  
                                                                             u2785 0C20  
                                                                             u2961 0EA6  
                                                                             u2881 0599  
                                                                             u2970 0EC4  
                                                                             u2890 0DFC  
                                                                             u2882 059E  
                                                                             u2795 0C34  
                                                                             u2971 0EC3  
                                                                             u2891 0DFB  
                                                                             u2883 059F  
                                                                             u2980 0EE3  
                                                                             _RCEN 048B  
                                                                             u2981 0EE2  
                                                                             u2990 0766  
                                                                             u2991 0765  
                                                                             _TRMT 04C1  
                                                                             abs@a 0078  
                                                                             _dbuf 00A0  
                                                                             _main 02D9  
                                                                             _prec 0066  
                                                                 __end_of_I2C_Init 179F  
                                                                             btemp 007E  
                                                                 __end_of_ADC_Init 081E  
                                                    ??_AutoFox_INA226_ReadRegister 0025  
                                                               _INA226_I2C_TIMEOUT 0140  
                                                                             start 000C  
                                                               _INA226_CALIBRATION 0147  
                                                                            ??_ISR 0070  
                                                        _cShuntVoltageConvTimeMask 0128  
                                                             ?_ADC_Read_ADC_Result 0072  
                                                                            ??_abs 0020  
                                                              _AutoFox_INA226_Init 0DE6  
                                                     ADC_Read_ADC_Result@adcResult 0074  
                                                                 ?_I2C_Master_Read 0070  
                                                                 ?_I2C_Master_Wait 0070  
                                                                 ?_I2C_Master_Stop 0070  
                                  AutoFox_INA226_setupCalibration@theCurrentLSB_uA 0047  
                                                                            ?_main 0070  
                                                                            _ACKEN 048C  
                                                                            _ACKDT 048D  
                                                                  __end_of___awdiv 0BE5  
                                                                            STR_10 01D8  
                                                                            STR_11 02BB  
                                                                            STR_12 01F2  
                                                                            STR_13 0299  
                                                                            STR_14 023C  
                                                                            STR_15 0225  
                                                                            STR_16 02AA  
                                                                            STR_17 01BB  
                                                                            STR_18 014F  
                                                                  __end_of___awmod 0A73  
                                                                            _ANSEL 0188  
                                                                  __end_of___lldiv 0C4B  
                                                                  ___awdiv@divisor 0072  
                                                                  __end_of___lwdiv 0942  
                                                                            i1l137 08B8  
                                                                            i1l139 08C1  
                                                                  __end_of___lwmod 0900  
                                                                  ___awdiv@counter 0076  
                                                                     vfpfcnvrt@fmt 0026  
                                                                            _SPBRG 0099  
                                       AutoFox_INA226_CheckI2cAddress@aI2C_Address 0076  
                                              AutoFox_INA226_setupCalibration@this 0033  
                                                                            _TXREG 0019  
                                                              ___lmul@multiplicand 0076  
                                                              __end_of_Global_Init 00FA  
                                                                            _flags 006A  
                                                                            _fputc 0A73  
                                                             ?_AutoFox_INA226_Init 004B  
                                                                            _width 0064  
                                                                            _putch 176D  
                                                                            pclath 000A  
                                                         _cBusVoltConvTimeIdxShift 0124  
                                                                            status 0003  
                                                                            wtemp0 007E  
                                                                  __initialization 000F  
                                                               _INA226_ALERT_LIMIT 0145  
                                                                     __end_of_main 047A  
                                                            ??_ADC_Read_ADC_Result 0074  
                                                           _INA226_MANUFACTURER_ID 0144  
                                                    __end_of_INA226_CONFIG_DEFAULT 013A  
                                                                           ??_main 0061  
                                          AutoFox_INA226_Init@aShuntResistor_mOhms 004E  
                                                      ?_AutoFox_INA226_Constructor 0072  
                                                         ReadVoltageAverage@sample 003D  
                                                                ?_I2C_Master_Start 0070  
                                                                ?_I2C_Master_Write 0072  
                                                               ??_I2C_Master_Start 0072  
                                                            ??_AutoFox_INA226_Init 0054  
                                                               ??_I2C_Master_Write 0074  
                                                                           ?_fputc 0076  
                                                                           _ADRESH 001E  
                                                                           _ADRESL 009E  
                                                                 ___awdiv@dividend 0074  
                                                                           ?_putch 0070  
                                                                           _ANSELH 0189  
                                                                           i1l2951 08AB  
                                                                           i1l2953 08B3  
                                                                           i1l2961 08C0  
                                                                           i1l2945 0894  
                                                                           i1l2955 08B5  
                                                                           i1l2947 0898  
                                                                           i1l2957 08BA  
                                                                           i1l2949 089C  
                                                                           i1l2959 08BE  
                                                                           u230_20 0898  
                                                                           u230_21 0897  
                                                                           u231_20 089C  
                                                                           u231_21 089B  
                                                                           u232_20 08AB  
                                                                           u232_21 08AA  
                                                                           u233_20 08B3  
                                                                           u233_21 08B2  
                                                                    vfpfcnvrt@done 002C  
                                                                           _TMR0IE 005D  
                                                                           _TMR0IF 005A  
                                                                           _SSPADD 0093  
                                                                           _TRISA0 0428  
                                                                           _TRISA1 0429  
                                                                           _TRISA2 042A  
                                                                           _TRISB0 0430  
                                                                           _TRISA3 042B  
                                                                           _TRISB1 0431  
                                                                           _TRISC0 0438  
                                                                           _TRISA4 042C  
                                                                           _TRISB2 0432  
                                                                           _TRISC1 0439  
                                                                           _TRISA5 042D  
                                                                           _TRISB3 0433  
                                                                           _TRISC2 043A  
                                                                           _TRISA6 042E  
                                                                           _TRISB4 0434  
                                                                           _TRISC3 043B  
                                                                           _TRISA7 042F  
                                                                           _TRISB5 0435  
                                                                           _TRISC4 043C  
                                                                           _TRISB6 0436  
                                                                           _TRISC5 043D  
                                                                           _TRISB7 0437  
                                                                           _TRISC6 043E  
                                                                           _TRISC7 043F  
                                                                           _SSPBUF 0013  
                                                                     vfprintf@cfmt 0038  
                                                                           ___lmul 0986  
                                                                        ??___awdiv 0076  
                                                                        ??___awmod 0076  
                                                                           _g_flag 0068  
                                                                        ??___lldiv 002D  
                                                                        ??___lwdiv 0076  
                                                                        ??___lwmod 0076  
                                                                 ___awdiv@quotient 0078  
                                                                  ___awmod@divisor 0072  
                                            __end_ofReadVoltageAverage@num_samples 0143  
                                                    ReadVoltageAverage@num_samples 0142  
                                                                  ___awmod@counter 0076  
                                                                      _Global_Init 00D0  
                                                                           _printf 17AF  
                                                                           fputc@c 0076  
                                                                        ?_I2C_Init 0070  
                                                                        ?_ADC_Init 0070  
                                                                           saved_w 007E  
                                                  AutoFox_INA226_Init@theINA226_ID 005F  
                                                                 __end_of_vfprintf 0843  
                            __end_of_AutoFox_INA226_ConfigureVoltageConversionTime 07F8  
                                  ??_AutoFox_INA226_ConfigureVoltageConversionTime 002D  
                                   ?_AutoFox_INA226_ConfigureVoltageConversionTime 0029  
                                    _AutoFox_INA226_ConfigureVoltageConversionTime 075A  
                                                                     _INA226_POWER 0149  
                                                          __end_of__initialization 0023  
                                                       __end_of_cMaxConvTimeTblIdx 0120  
                                                               _cOperatingModeMask 0134  
                                                             ReadVoltageAverage@R1 0044  
                                                             ReadVoltageAverage@R2 0039  
                                               __end_of_cShuntVoltConvTimeIdxShift 0124  
                                                       _cShuntVoltConvTimeIdxShift 0122  
                                                                   __pcstackCOMMON 0070  
                                                   __end_of_INA226_BUS_VOLTAGE_LSB 011E  
                                               __end_of_INA226_DEFAULT_I2C_ADDRESS 014F  
                                                       _INA226_DEFAULT_I2C_ADDRESS 014E  
                                                                    __end_of_fputc 0ACA  
                                                                    __end_of_putch 1775  
                                                                ??_SendErrorStatus 0075  
                                                 ??_AutoFox_INA226_CheckI2cAddress 0074  
                                                  ?_AutoFox_INA226_CheckI2cAddress 0070  
                                                               _INA226_MASK_ENABLE 0146  
                                                                       ??_I2C_Init 0072  
                                                                   _OPTION_REGbits 0081  
             AutoFox_INA226_ConfigureNumSampleAveraging@aIndexToSampleAverageTable 002B  
                                                                       ??_ADC_Init 0072  
                                               AutoFox_INA226_GetBusVoltage_V@this 0033  
                                                                          ??_fputc 0020  
                                                                          ??_putch 0075  
                                                               _INA226_BUS_VOLTAGE 014A  
                                                                       __pbssBANK0 0064  
                                                                       __pbssBANK1 00A0  
                                           __end_of_AutoFox_INA226_GetBusVoltage_V 0A1C  
                                                   _AutoFox_INA226_GetBusVoltage_V 09CE  
AutoFox_INA226_ConfigureVoltageConversionTime@theMergedBusAndShuntConvTimeIndicies 0031  
                                                                       __pmaintext 02D9  
                                   __end_of_INA226_DEFAULT_I2C_ADDRESS@ina226$F814 014E  
                                           _INA226_DEFAULT_I2C_ADDRESS@ina226$F814 014D  
                                                                          ?___lmul 0072  
                                                                       __pintentry 0004  
                                                                          _ACKSTAT 048E  
                                                                   ___lmul@product 0021  
                                                                          ?_printf 003A  
                                                   __end_ofReadVoltageAverage@vref 0116  
                                                __end_of_cShuntVoltageConvTimeMask 012A  
                                            AutoFox_INA226_setupCalibration@theCal 0043  
                                                                          _SSPCON2 0091  
                                                                       __stringtab 0100  
                                                               SendUART_debug@data 0073  
                                                                          ___awdiv 0B82  
                                                                          ___awmod 0A1C  
                                                                          ___lldiv 0BE5  
                                                                          ___lwdiv 0900  
                                                                          ___lwmod 08C8  
                                                                        ?_vfprintf 0034  
                                                            __end_of_cResetCommand 0138  
                                                                          __ptext1 0C4B  
                                                                          __ptext2 179F  
                                                                          __ptext3 1791  
                                                                          __ptext4 00D0  
                                                                          __ptext5 0D5B  
                                                                          __ptext6 17AF  
                                                                          __ptext7 081E  
                                                                          __ptext8 0EEE  
                                                                          __ptext9 0A73  
                                                                  SendUART_debug@i 0074  
                                                                        _T1CONbits 0010  
                                                                 ___awmod@dividend 0074  
                                                  __end_of_cBusVoltageConvTimeMask 012C  
                                                  __end_of_INA226_POWER_LSB_FACTOR 011A  
                                                 __end_of_INA226_MANUFACTURER_ID_K 013E  
                                                                          clrloop0 07F9  
                                                                  _cAlertCauseMask 0130  
                                                             end_of_initialization 0023  
                                              __end_of_AutoFox_INA226_ReadRegister 00D0  
                                                      _AutoFox_INA226_ReadRegister 0027  
                                                                          fputc@fp 0078  
                                                      __end_of_ADC_Read_ADC_Result 17D2  
                                                                  ___lldiv@divisor 0025  
                                                   __end_of_INA226_MANUFACTURER_ID 0145  
                                                                  ___lldiv@counter 0032  
                                                                __end_of_vfpfcnvrt 1000  
                                                                        _RCSTAbits 0018  
                                      AutoFox_INA226_ConfigureNumSampleAveraging@s 0079  
                                                                 vfpfcnvrt@convarg 002F  
                                                                    _INA226_DIE_ID 0143  
                                                                    _INA226_CONFIG 014C  
                                                                     __pstringtext 0100  
                                                                       ??_vfprintf 007A  
                                                                     ?_Global_Init 0070  
                                                                        _PORTAbits 0005  
                                                                        _PORTBbits 0006  
                                                                        _PORTCbits 0007  
                                                      __end_of_AutoFox_INA226_Init 0EEE  
                                                            _INA226_CONFIG_DEFAULT 0138  
                                                              _cMaxSampleAvgTblIdx 0120  
                                                                       main@ina226 00C6  
                                                       __end_of_cAlertLatchingMode 0130  
                                                            ReadVoltageAverage@sum 003F  
                                                                        _TXSTAbits 0098  
                                                                  _SendErrorStatus 0C4B  
                                   AutoFox_INA226_ConfigureNumSampleAveraging@this 0029  
                                                       __end_of_ReadVoltageAverage 060D  
                                                                   __end_of___lmul 09CE  
                                                                      vfpfcnvrt@ap 0027  
                                                                      vfpfcnvrt@cp 002D  
                                                                      vfpfcnvrt@fp 0025  
                                                               _cMaxConvTimeTblIdx 011E  
                                                                   __end_of_printf 17C0  
                                                          __end_of_cAlertCauseMask 0132  
                                                              start_initialization 000F  
                                                                      __end_of_ISR 08C8  
                                               AutoFox_INA226_WriteRegister@aValue 0077  
                                             __end_of_AutoFox_INA226_WriteRegister 0B24  
                                                     _AutoFox_INA226_WriteRegister 0ACA  
                                                                      __end_of_abs 17E5  
                                               AutoFox_INA226_WriteRegister@buffer 0024  
                                                                      putch@txData 0075  
                                                                ??_I2C_Master_Read 0072  
                                                                ??_I2C_Master_Wait 0072  
                                                                ??_I2C_Master_Stop 0072  
                                                                   _SendUART_debug 0942  
                                                         _INA226_MANUFACTURER_ID_K 013C  
                                          __end_of_AutoFox_INA226_setupCalibration 075A  
                                                ??_AutoFox_INA226_setupCalibration 003B  
                                                 ?_AutoFox_INA226_setupCalibration 0033  
                                                  _AutoFox_INA226_setupCalibration 060D  
                                                                      vfprintf@fmt 0035  
                                                                         ??___lmul 0020  
                                                  ?_AutoFox_INA226_GetBusVoltage_V 0033  
                                                 ??_AutoFox_INA226_GetBusVoltage_V 007A  
                                                                         ??_printf 007A  
                                                                   _Interrupt_Init 179F  
                                                                   _DisplayVoltage 0D5B  
                                                                      __pbssCOMMON 007A  
                                                              ReadVoltageAverage@i 0043  
                                                                        ___latbits 0002  
                                   AutoFox_INA226_GetBusVoltage_V@theRegisterValue 0035  
                                                                    __pcstackBANK0 0020  
                                                                    __pcstackBANK1 00C0  
                                                    ?_AutoFox_INA226_WriteRegister 0074  
                                                          __end_of_SendErrorStatus 0CD0  
                                                           __end_of_SendUART_debug 0986  
                                                                 _I2C_Master_Start 1775  
                                                                 _I2C_Master_Write 1787  
                                                                 ___lwdiv@dividend 0074  
                                                                         ?___awdiv 0072  
                                                                         ?___awmod 0072  
                                                                         ?___lldiv 0025  
                                                                         ?___lwdiv 0072  
                                                                         ?___lwmod 0072  
                                                             I2C_Master_Write@data 0072  
                                                           __end_of_Interrupt_Init 17AF  
                                                           __end_of_DisplayVoltage 0DE6  
                                                       __end_of_cSampleAvgIdxShift 0128  
                                                                   _cSampleAvgMask 012C  
                                                                         _I2C_Init 1791  
                                                  AutoFox_INA226_Init@aI2C_Address 004D  
                                                                         _ADC_Init 0800  
                                                     ??_AutoFox_INA226_Constructor 0074  
                                                                 ___lwdiv@quotient 0076  
                                                     __end_of_INA226_SHUNT_VOLTAGE 014C  
                                                                  ?_SendUART_debug 0070  
                                                                interrupt_function 0004  
                               __end_of_AutoFox_INA226_ConfigureNumSampleAveraging 0D5B  
                                     ??_AutoFox_INA226_ConfigureNumSampleAveraging 002D  
                                      ?_AutoFox_INA226_ConfigureNumSampleAveraging 0029  
                                       _AutoFox_INA226_ConfigureNumSampleAveraging 0CD0  
                                           __end_of_INA226_I2C_TIMEOUT@ina226$F815 0140  
                                                   _INA226_I2C_TIMEOUT@ina226$F815 013E  
                                                                        clear_ram0 07F8  
                                                                  main@bus_voltage 00C2  
                                              AutoFox_INA226_Init@aMaxCurrent_Amps 0050  
                                   AutoFox_INA226_ConfigureVoltageConversionTime@s 0033  
                                                   AutoFox_INA226_Constructor@this 0072  
                                                           __end_of_cSampleAvgMask 012E  
                                                                        _vfpfcnvrt 0EEE  
                                                                  ?_Interrupt_Init 0070  
                                                                  ?_DisplayVoltage 004C  
                                                                       _ADCON0bits 001F  
                                                                      __stringbase 0112  
                                                                       _ADCON1bits 009F  
                                                       __end_of_INA226_I2C_TIMEOUT 0142  
                                                       __end_of_INA226_CALIBRATION 0148  
                                                              I2C_Master_Read@data 0075  
                                                                       vfpfcnvrt@c 0033  
                                                             main@voltage_24V_diff 00C4  
                                                          SendErrorStatus@errorMsg 0078  
                                                                ___lmul@multiplier 0072  
                                                                 ?_SendErrorStatus 0070  
                                                   ??_AutoFox_INA226_WriteRegister 0020  
                                                          _cBusVoltageConvTimeMask 012A  
                                                          _INA226_POWER_LSB_FACTOR 0116  
                                                                       vfprintf@ap 0037  
                                                                       vfprintf@fp 0034  
                                                               _cAlertLatchingMode 012E  
                                                                       ?_vfpfcnvrt 0025  
                                                               __end_of__stringtab 0112  
                                                                  _I2C_Master_Read 086A  
                                                                  _I2C_Master_Wait 17E5  
                                                                  _I2C_Master_Stop 177E  
                                                                  ___lwdiv@divisor 0072  
                                                                  ___lwdiv@counter 0078  
                                                               _ReadVoltageAverage 047A  
                                                                         __ptext10 176D  
                                                                         __ptext11 17D2  
                                                                         __ptext20 060D  
                                                                         __ptext12 0A1C  
                                                                         __ptext21 0843  
                                                                         __ptext13 0B82  
                                                                         __ptext30 1787  
                                                                         __ptext22 09CE  
                                                                         __ptext14 08C8  
                                                                         __ptext31 177E  
                                                                         __ptext23 0986  
                                                                         __ptext15 0900  
                                                                         __ptext32 1775  
                                                                         __ptext24 0BE5  
                                                                         __ptext16 047A  
                                                                         __ptext33 086A  
                                                                         __ptext25 0B24  
                                                                         __ptext17 17C0  
                                                                         __ptext34 17E5  
                                                                         __ptext26 075A  
                                                                         __ptext18 0DE6  
                                                                         __ptext35 0800  
                                                                         __ptext27 0CD0  
                                                                         __ptext19 0942  
                                                                         __ptext36 0894  
                                                                         __ptext28 0ACA  
                                                                         __ptext29 0027  
                                                       __end_of_INA226_ALERT_LIMIT 0146  
                                                  AutoFox_INA226_ReadRegister@this 0020  
                                                              ?_ReadVoltageAverage 0033  
                              AutoFox_INA226_setupCalibration@aShuntResistor_mOhms 0035  
         AutoFox_INA226_ConfigureVoltageConversionTime@aIndexToConversionTimeTable 002B  
                                AutoFox_INA226_ConfigureVoltageConversionTime@this 0029  
                                                             AutoFox_INA226_Init@s 0058  
                                                             _INA226_SHUNT_VOLTAGE 014B  
                                                                         _vfprintf 081E  
                                                                        printf@fmt 003A  
                                                             ??_ReadVoltageAverage 0035  
                                                               I2C_Master_Read@ack 0074  
                                                                    _cResetCommand 0136  
                                               __end_of_AutoFox_INA226_Constructor 0B82  
                                                       _AutoFox_INA226_Constructor 0B24  
                                            AutoFox_INA226_WriteRegister@aRegister 0076  
                                                         __end_of_I2C_Master_Start 177E  
                                                         __end_of_I2C_Master_Write 1791  
                                                                       _INTCONbits 000B  
                                                                  _INA226_DIE_ID_K 013A  
                                                        ReadVoltageAverage@average 0048  
                                                      __end_of_cMaxSampleAvgTblIdx 0122  
                                                                         intlevel1 0000  
                                                                 ___lwmod@dividend 0074  
                                                                 ___lldiv@dividend 0029  
                                                                        stringcode 010A  
                                                                       _OSCCONbits 008F  
                                                                _g_timer_led_blink 007A  
                                  AutoFox_INA226_setupCalibration@aMaxCurrent_Amps 0037  
                                                                         printf@ap 0040  
                                                          __end_of_I2C_Master_Read 0894  
                                                          __end_of_I2C_Master_Wait 1800  
                                                          __end_of_I2C_Master_Stop 1787  
                                                                      ??_vfpfcnvrt 0028  
                                                           _INA226_BUS_VOLTAGE_LSB 011A  
                                                                   _INA226_CURRENT 0148  
                                                                 ___lldiv@quotient 002E  
                                                                  ___lwmod@divisor 0072  
                                                       __end_of_cOperatingModeMask 0136  
                                                                  ___lwmod@counter 0076  
                                                                 ??_SendUART_debug 0072  
                                                                         stringtab 0100  
                                                 __end_of_cBusVoltConvTimeIdxShift 0126  
                                                                _cAlertPinModeMask 0132  
                                                                      _SSPCON2bits 0091  
                                                               _cSampleAvgIdxShift 0126  
                                             AutoFox_INA226_ReadRegister@aRegister 0022  
                                                         AutoFox_INA226_Init@s_870 005E  
                                                         AutoFox_INA226_Init@s_865 0059  
                                                         AutoFox_INA226_Init@s_866 005A  
                                                         AutoFox_INA226_Init@s_867 005B  
                                                         AutoFox_INA226_Init@s_868 005C  
                                                         AutoFox_INA226_Init@s_869 005D  
                                                     ?_AutoFox_INA226_ReadRegister 0020  
                                           __end_of_AutoFox_INA226_CheckI2cAddress 086A  
                                                   _AutoFox_INA226_CheckI2cAddress 0843  
                                                                       _SSPCONbits 0014  
                                                                  main@voltage_12V 00C0  
                                              AutoFox_INA226_ReadRegister@aValue_p 0023  
                                                       __end_of_INA226_MASK_ENABLE 0147  
                                                          AutoFox_INA226_Init@this 004B  
                                                 AutoFox_INA226_WriteRegister@this 0074  
